
lab4.elf:     file format elf32-littlenios2
lab4.elf
architecture: nios2:r1, flags 0x00000112:
EXEC_P, HAS_SYMS, D_PAGED
start address 0x00020230

Program Header:
    LOAD off    0x00001000 vaddr 0x00020000 paddr 0x00020000 align 2**12
         filesz 0x00000020 memsz 0x00000020 flags r-x
    LOAD off    0x00001020 vaddr 0x00020020 paddr 0x00020020 align 2**12
         filesz 0x0000dbe0 memsz 0x0000dbe0 flags r-x
    LOAD off    0x0000ec00 vaddr 0x0002dc00 paddr 0x0002f6f4 align 2**12
         filesz 0x00001af4 memsz 0x00001af4 flags rw-
    LOAD off    0x000111e8 vaddr 0x000311e8 paddr 0x000311e8 align 2**12
         filesz 0x00000000 memsz 0x000073dc flags rw-

Sections:
Idx Name          Size      VMA       LMA       File off  Algn
  0 .entry        00000020  00020000  00020000  00001000  2**5
                  CONTENTS, ALLOC, LOAD, READONLY, CODE
  1 .exceptions   00000210  00020020  00020020  00001020  2**2
                  CONTENTS, ALLOC, LOAD, READONLY, CODE
  2 .text         0000d850  00020230  00020230  00001230  2**2
                  CONTENTS, ALLOC, LOAD, READONLY, CODE
  3 .rodata       00000180  0002da80  0002da80  0000ea80  2**2
                  CONTENTS, ALLOC, LOAD, READONLY, DATA
  4 .rwdata       00001af4  0002dc00  0002f6f4  0000ec00  2**2
                  CONTENTS, ALLOC, LOAD, DATA, SMALL_DATA
  5 .bss          000073dc  000311e8  000311e8  000111e8  2**2
                  ALLOC, SMALL_DATA
  6 .OnChip_Memory 00000000  000385c4  000385c4  000106f4  2**0
                  CONTENTS
  7 .comment      00000023  00000000  00000000  000106f4  2**0
                  CONTENTS, READONLY
  8 .debug_aranges 00000b90  00000000  00000000  00010718  2**3
                  CONTENTS, READONLY, DEBUGGING
  9 .debug_info   0001fb68  00000000  00000000  000112a8  2**0
                  CONTENTS, READONLY, DEBUGGING
 10 .debug_abbrev 00007ae6  00000000  00000000  00030e10  2**0
                  CONTENTS, READONLY, DEBUGGING
 11 .debug_line   00008eb8  00000000  00000000  000388f6  2**0
                  CONTENTS, READONLY, DEBUGGING
 12 .debug_frame  00002600  00000000  00000000  000417b0  2**2
                  CONTENTS, READONLY, DEBUGGING
 13 .debug_str    000038a2  00000000  00000000  00043db0  2**0
                  CONTENTS, READONLY, DEBUGGING
 14 .debug_loc    00004ada  00000000  00000000  00047652  2**0
                  CONTENTS, READONLY, DEBUGGING
 15 .debug_alt_sim_info 00000010  00000000  00000000  0004c12c  2**2
                  CONTENTS, READONLY, DEBUGGING
 16 .debug_ranges 00000680  00000000  00000000  0004c140  2**3
                  CONTENTS, READONLY, DEBUGGING
 17 .thread_model 00000006  00000000  00000000  00050522  2**0
                  CONTENTS, READONLY
 18 .cpu          00000011  00000000  00000000  00050528  2**0
                  CONTENTS, READONLY
 19 .qsys         00000001  00000000  00000000  00050539  2**0
                  CONTENTS, READONLY
 20 .simulation_enabled 00000001  00000000  00000000  0005053a  2**0
                  CONTENTS, READONLY
 21 .stderr_dev   00000009  00000000  00000000  0005053b  2**0
                  CONTENTS, READONLY
 22 .stdin_dev    00000009  00000000  00000000  00050544  2**0
                  CONTENTS, READONLY
 23 .stdout_dev   00000009  00000000  00000000  0005054d  2**0
                  CONTENTS, READONLY
 24 .sopc_system_name 00000009  00000000  00000000  00050556  2**0
                  CONTENTS, READONLY
 25 .quartus_project_dir 00000013  00000000  00000000  0005055f  2**0
                  CONTENTS, READONLY
 26 .jdi          00004573  00000000  00000000  00050572  2**0
                  CONTENTS, READONLY
 27 .sopcinfo     0004bd43  00000000  00000000  00054ae5  2**0
                  CONTENTS, READONLY
SYMBOL TABLE:
00020000 l    d  .entry	00000000 .entry
00020020 l    d  .exceptions	00000000 .exceptions
00020230 l    d  .text	00000000 .text
0002da80 l    d  .rodata	00000000 .rodata
0002dc00 l    d  .rwdata	00000000 .rwdata
000311e8 l    d  .bss	00000000 .bss
000385c4 l    d  .OnChip_Memory	00000000 .OnChip_Memory
00000000 l    d  .comment	00000000 .comment
00000000 l    d  .debug_aranges	00000000 .debug_aranges
00000000 l    d  .debug_info	00000000 .debug_info
00000000 l    d  .debug_abbrev	00000000 .debug_abbrev
00000000 l    d  .debug_line	00000000 .debug_line
00000000 l    d  .debug_frame	00000000 .debug_frame
00000000 l    d  .debug_str	00000000 .debug_str
00000000 l    d  .debug_loc	00000000 .debug_loc
00000000 l    d  .debug_alt_sim_info	00000000 .debug_alt_sim_info
00000000 l    d  .debug_ranges	00000000 .debug_ranges
00000000 l    df *ABS*	00000000 ../lab4_bsp//obj/HAL/src/crt0.o
00020268 l       .text	00000000 alt_after_alt_main
00000000 l    df *ABS*	00000000 alt_irq_handler.c
00000000 l    df *ABS*	00000000 alt_instruction_exception_entry.c
00000000 l    df *ABS*	00000000 hello_ucosii.c
00000000 l    df *ABS*	00000000 puts.c
00000000 l    df *ABS*	00000000 strlen.c
00000000 l    df *ABS*	00000000 findfp.c
000204f4 l     F .text	00000008 __fp_unlock
00020508 l     F .text	0000019c __sinit.part.1
000206a4 l     F .text	00000008 __fp_lock
00000000 l    df *ABS*	00000000 fvwrite.c
00000000 l    df *ABS*	00000000 fwalk.c
00000000 l    df *ABS*	00000000 impure.c
0002dc00 l     O .rwdata	00000424 impure_data
00000000 l    df *ABS*	00000000 mallocr.c
00000000 l    df *ABS*	00000000 memchr.c
00000000 l    df *ABS*	00000000 memcpy.c
00000000 l    df *ABS*	00000000 memmove.c
00000000 l    df *ABS*	00000000 memset.c
00000000 l    df *ABS*	00000000 mallocr.c
00000000 l    df *ABS*	00000000 sbrkr.c
00000000 l    df *ABS*	00000000 stdio.c
00000000 l    df *ABS*	00000000 writer.c
00000000 l    df *ABS*	00000000 wsetup.c
00000000 l    df *ABS*	00000000 closer.c
00000000 l    df *ABS*	00000000 fclose.c
00000000 l    df *ABS*	00000000 fflush.c
00000000 l    df *ABS*	00000000 mallocr.c
00000000 l    df *ABS*	00000000 int_errno.c
00000000 l    df *ABS*	00000000 lseekr.c
00000000 l    df *ABS*	00000000 makebuf.c
00000000 l    df *ABS*	00000000 readr.c
00000000 l    df *ABS*	00000000 fstatr.c
00000000 l    df *ABS*	00000000 isattyr.c
00000000 l    df *ABS*	00000000 lib2-divmod.c
00000000 l    df *ABS*	00000000 lib2-mul.c
00000000 l    df *ABS*	00000000 alt_close.c
00023194 l     F .text	0000003c alt_get_errno
00000000 l    df *ABS*	00000000 alt_dev.c
000232a8 l     F .text	0000002c alt_dev_null_write
00000000 l    df *ABS*	00000000 alt_errno.c
00000000 l    df *ABS*	00000000 alt_fstat.c
000232d4 l     F .text	0000003c alt_get_errno
00000000 l    df *ABS*	00000000 alt_isatty.c
000233c8 l     F .text	0000003c alt_get_errno
00000000 l    df *ABS*	00000000 alt_load.c
000234b0 l     F .text	00000068 alt_load_section
00000000 l    df *ABS*	00000000 alt_lseek.c
0002359c l     F .text	0000003c alt_get_errno
00000000 l    df *ABS*	00000000 alt_main.c
00000000 l    df *ABS*	00000000 alt_read.c
00023770 l     F .text	0000003c alt_get_errno
00000000 l    df *ABS*	00000000 alt_release_fd.c
00000000 l    df *ABS*	00000000 alt_sbrk.c
0002f668 l     O .rwdata	00000004 heap_end
00000000 l    df *ABS*	00000000 alt_write.c
000239e4 l     F .text	0000003c alt_get_errno
00000000 l    df *ABS*	00000000 alt_env_lock.c
0002f66c l     O .rwdata	00000004 lockid
00031208 l     O .bss	00000004 locks
00000000 l    df *ABS*	00000000 alt_malloc_lock.c
0002f670 l     O .rwdata	00000004 lockid
00031210 l     O .bss	00000004 locks
00000000 l    df *ABS*	00000000 os_core.c
0002541c l     F .text	00000048 OS_InitMisc
00025464 l     F .text	0000006c OS_InitRdyList
000255d0 l     F .text	000000e4 OS_InitTCBList
0002533c l     F .text	000000e0 OS_InitEventList
000254d0 l     F .text	00000080 OS_InitTaskIdle
00025550 l     F .text	00000080 OS_InitTaskStat
00025840 l     F .text	00000074 OS_SchedNew
00000000 l    df *ABS*	00000000 os_dbg.c
00000000 l    df *ABS*	00000000 os_flag.c
00027550 l     F .text	000000f4 OS_FlagTaskRdy
00027310 l     F .text	00000160 OS_FlagBlock
00000000 l    df *ABS*	00000000 os_mem.c
00000000 l    df *ABS*	00000000 os_q.c
00000000 l    df *ABS*	00000000 os_sem.c
00000000 l    df *ABS*	00000000 os_task.c
00000000 l    df *ABS*	00000000 os_time.c
00000000 l    df *ABS*	00000000 alt_sys_init.c
0002b628 l     F .text	00000034 alt_dev_reg
0002e5d4 l     O .rwdata	0000106c JTAG_UART
00000000 l    df *ABS*	00000000 altera_avalon_jtag_uart_fd.c
00000000 l    df *ABS*	00000000 altera_avalon_jtag_uart_init.c
0002b9a0 l     F .text	000002a4 altera_avalon_jtag_uart_irq
0002bc44 l     F .text	00000104 altera_avalon_jtag_uart_timeout
00000000 l    df *ABS*	00000000 altera_avalon_jtag_uart_ioctl.c
00000000 l    df *ABS*	00000000 altera_avalon_jtag_uart_read.c
00000000 l    df *ABS*	00000000 altera_avalon_jtag_uart_write.c
00000000 l    df *ABS*	00000000 altera_avalon_timer_sc.c
0002c420 l     F .text	00000078 alt_avalon_timer_sc_irq
00000000 l    df *ABS*	00000000 alt_alarm_start.c
00000000 l    df *ABS*	00000000 alt_dcache_flush_all.c
00000000 l    df *ABS*	00000000 alt_dev_llist_insert.c
0002c660 l     F .text	0000003c alt_get_errno
00000000 l    df *ABS*	00000000 alt_do_ctors.c
00000000 l    df *ABS*	00000000 alt_do_dtors.c
00000000 l    df *ABS*	00000000 alt_icache_flush_all.c
00000000 l    df *ABS*	00000000 alt_iic.c
00000000 l    df *ABS*	00000000 alt_iic_isr_register.c
00000000 l    df *ABS*	00000000 alt_io_redirect.c
0002cac0 l     F .text	000000e4 alt_open_fd
00000000 l    df *ABS*	00000000 alt_irq_vars.c
00000000 l    df *ABS*	00000000 alt_open.c
0002cc20 l     F .text	0000003c alt_get_errno
0002cc5c l     F .text	000000ec alt_file_locked
00000000 l    df *ABS*	00000000 alt_tick.c
00000000 l    df *ABS*	00000000 altera_nios2_gen2_irq.c
00000000 l    df *ABS*	00000000 os_cpu_a.o
00000040 l       *ABS*	00000000 OSCtxSw_SWITCH_PC
00000000 l    df *ABS*	00000000 os_cpu_c.c
00000014 l       *ABS*	00000000 OSTCBNext_OFFSET
00000032 l       *ABS*	00000000 OSTCBPrio_OFFSET
00000000 l       *ABS*	00000000 OSTCBStkPtr_OFFSET
00000000 l    df *ABS*	00000000 alt_find_dev.c
00000000 l    df *ABS*	00000000 alt_find_file.c
00000000 l    df *ABS*	00000000 alt_get_fd.c
00000000 l    df *ABS*	00000000 atexit.c
00000000 l    df *ABS*	00000000 exit.c
00000000 l    df *ABS*	00000000 memcmp.c
00000000 l    df *ABS*	00000000 __atexit.c
00000000 l    df *ABS*	00000000 __call_atexit.c
00000000 l    df *ABS*	00000000 alt_exit.c
00031274 g     O .bss	00000004 alt_instruction_exception_handler
0002f6be g     O .rwdata	00000002 OSTaskNameSize
00022f64 g     F .text	00000054 _isatty_r
000236b4 g     F .text	000000bc alt_main
00020388 g     F .text	000000c0 _puts_r
000384c4 g     O .bss	00000100 alt_irq
00022c8c g     F .text	00000060 _lseek_r
00027d70 g     F .text	000000d8 OS_MemInit
0002f6f4 g       *ABS*	00000000 __flash_rwdata_start
0002b5c8 g     F .text	00000060 OSTimeSet
00024090 g     F .text	00000610 OSEventPendMulti
000385c4 g       *ABS*	00000000 __alt_heap_start
0002d298 g     F .text	00000024 OSTaskCreateHook
000312a0 g     O .bss	00002000 task1_stk
0002f696 g     O .rwdata	00000002 OSMboxEn
000246f8 g     F .text	0000004c OSIntEnter
00022240 g     F .text	0000005c __sseek
00020854 g     F .text	00000010 __sinit
0002f6a6 g     O .rwdata	00000002 OSQEn
000206ac g     F .text	00000078 __sfmoreglue
00023d64 g     F .text	000000cc __malloc_unlock
0002d300 g     F .text	00000020 OSTaskStatHook
00031218 g     O .bss	00000001 OSLockNesting
0002f6e4 g     O .rwdata	00000002 OSDataSize
00031219 g     O .bss	00000001 OSRunning
0002192c g     F .text	0000015c memmove
0002d340 g     F .text	00000020 OSInitHookBegin
0002f6dc g     O .rwdata	00000002 OSTmrSize
0002083c g     F .text	00000018 _cleanup
0003121c g     O .bss	00000004 OSIdleCtr
0002d048 g     F .text	00000024 altera_nios2_gen2_irq_init
0002d118 g       .text	00000000 OSStartTsk
00025b70 g     F .text	000002d4 OS_TCBInit
00020000 g     F .entry	0000000c __reset
0002f6e2 g     O .rwdata	00000002 OSTmrWheelTblSize
00020020 g       *ABS*	00000000 __flash_exceptions_start
0002f682 g     O .rwdata	00000002 OSEventSize
00031220 g     O .bss	00000001 OSPrioHighRdy
00022f08 g     F .text	0000005c _fstat_r
0002d2bc g     F .text	00000024 OSTaskDelHook
000311f4 g     O .bss	00000004 errno
000221bc g     F .text	00000008 __seofread
0002d0f8 g       .text	00000000 OSStartHighRdy
0002a048 g     F .text	000001e4 OSTaskCreateExt
00026e58 g     F .text	00000060 OSFlagPendGetFlagsRdy
0002f6c2 g     O .rwdata	00000002 OSTaskStatStkSize
00025fd4 g     F .text	00000308 OSFlagAccept
000283b4 g     F .text	000000b8 OSQFlush
00027e48 g     F .text	00000140 OSQAccept
00031200 g     O .bss	00000004 alt_argv
00037640 g       *ABS*	00000000 _gp
00029e9c g     F .text	000001ac OSTaskCreate
000299ac g     F .text	000004f0 OSTaskChangePrio
00031214 g     O .bss	00000004 alt_heapsem
00025e44 g     F .text	00000190 OSDebugInit
0002a22c g     F .text	00000344 OSTaskDel
00020000 g       *ABS*	00000000 __alt_mem_OnChip_Memory
0002e454 g     O .rwdata	00000180 alt_fd_list
000352a0 g     O .bss	00000370 OSFlagTbl
0002511c g     F .text	000000b8 OS_EventTaskRemove
0002d3c4 g     F .text	00000090 alt_find_dev
000217e4 g     F .text	00000148 memcpy
0002f6ac g     O .rwdata	00000002 OSRdyTblSize
000204fc g     F .text	0000000c _cleanup_r
0002cba4 g     F .text	0000007c alt_io_redirect
0002da80 g       *ABS*	00000000 __DTOR_END__
00020448 g     F .text	00000014 puts
0002d650 g     F .text	0000009c alt_exception_cause_generated_bad_addr
00023e30 g     F .text	00000120 OSEventNameGet
0002f690 g     O .rwdata	00000002 OSFlagMax
00024744 g     F .text	000000f8 OSIntExit
0002f6ca g     O .rwdata	00000002 OSTCBSize
00031221 g     O .bss	00000001 OSPrioCur
0002bea0 g     F .text	000002bc altera_avalon_jtag_uart_read
000230b0 g     F .text	00000064 .hidden __udivsi3
00023404 g     F .text	000000ac isatty
0002f6b0 g     O .rwdata	00000002 OSStkWidth
0002f6a4 g     O .rwdata	00000002 OSPtrSize
0002f684 g     O .rwdata	00000002 OSEventTblSize
0002d06c g       .text	00000000 OSCtxSw
000311f0 g     O .bss	00000004 __malloc_top_pad
00031224 g     O .bss	00000004 OSTCBList
000311f8 g     O .bss	00000004 alt_fd_list_lock
000208a4 g     F .text	000004c8 __sfvwrite_r
00035610 g     O .bss	00000c30 OSMemTbl
00031228 g     O .bss	00000001 OSTickStepState
00022114 g     F .text	00000054 _sbrk_r
0002f6a8 g     O .rwdata	00000002 OSQMax
00036240 g     O .bss	00000800 OSTaskStatStk
000279ac g     F .text	000000f0 OSMemNameGet
0002f688 g     O .rwdata	00000002 OSFlagEn
00022ea8 g     F .text	00000060 _read_r
0002f6ce g     O .rwdata	00000002 OSTimeTickHookEn
00028864 g     F .text	00000168 OSQPost
00027644 g     F .text	000000a4 OS_FlagUnlink
0002f660 g     O .rwdata	00000004 alt_max_fd
00025708 g     F .text	00000068 OS_MemCopy
00025770 g     F .text	000000d0 OS_Sched
000224ac g     F .text	000000f0 _fclose_r
000278bc g     F .text	000000f0 OSMemGet
0002a858 g     F .text	000001b4 OSTaskNameSet
00022828 g     F .text	00000030 fflush
000311ec g     O .bss	00000004 __malloc_max_sbrked_mem
0003122c g     O .bss	00000004 OSCtxSwCtr
0002d320 g     F .text	00000020 OSTimeTickHook
0002f692 g     O .rwdata	00000002 OSFlagNameSize
000251d4 g     F .text	00000100 OS_EventTaskRemoveMulti
00024fcc g     F .text	00000150 OS_EventTaskWaitMulti
0002f6aa g     O .rwdata	00000002 OSQSize
000235d8 g     F .text	000000dc lseek
00029314 g     F .text	0000020c OSSemPend
0002f640 g     O .rwdata	00000004 _global_impure_ptr
00021bb0 g     F .text	00000564 _realloc_r
0002f694 g     O .rwdata	00000002 OSLowestPrio
000385c4 g       *ABS*	00000000 __bss_end
0002c9d0 g     F .text	000000f0 alt_iic_isr_register
0002d3a0 g     F .text	00000024 OSTCBInitHook
0002f6da g     O .rwdata	00000002 OSTmrCfgTicksPerSec
0002cf40 g     F .text	00000108 alt_tick
0002f67c g     O .rwdata	00000002 OSEventEn
0002f6d6 g     O .rwdata	00000002 OSTmrCfgNameSize
00020874 g     F .text	00000018 __fp_lock_all
0002c984 g     F .text	0000004c alt_ic_irq_enabled
00027470 g     F .text	000000e0 OS_FlagInit
0002cea4 g     F .text	0000009c alt_alarm_stop
0002f6b8 g     O .rwdata	00000002 OSTaskIdleStkSize
00031268 g     O .bss	00000004 alt_irq_active
00028f4c g     F .text	000000b0 OSSemAccept
00027bb0 g     F .text	000000d8 OSMemPut
000276e8 g     F .text	000001d4 OSMemCreate
00031230 g     O .bss	00000004 OSIdleCtrMax
000200fc g     F .exceptions	000000d4 alt_irq_handler
0002e42c g     O .rwdata	00000028 alt_dev_null
0002f6cc g     O .rwdata	00000002 OSTicksPerSec
0002d06c g       .text	00000000 OSIntCtxSw
0002c640 g     F .text	00000020 alt_dcache_flush_all
00031234 g     O .bss	00000004 OSTCBFreeList
0002f6f4 g       *ABS*	00000000 __ram_rwdata_end
00029520 g     F .text	0000016c OSSemPendAbort
0002f658 g     O .rwdata	00000008 alt_dev_list
00023a20 g     F .text	00000100 write
0002f6d0 g     O .rwdata	00000002 OSVersionNbr
0002dc00 g       *ABS*	00000000 __ram_rodata_end
00023310 g     F .text	000000b8 fstat
0002f678 g     O .rwdata	00000004 OSEndiannessTest
00023114 g     F .text	00000058 .hidden __umodsi3
0002f68a g     O .rwdata	00000002 OSFlagGrpSize
000385c4 g       *ABS*	00000000 end
0002b858 g     F .text	00000148 altera_avalon_jtag_uart_init
000259d8 g     F .text	000000cc OS_TaskStat
000201d0 g     F .exceptions	00000060 alt_instruction_exception_entry
0002da80 g       *ABS*	00000000 __CTOR_LIST__
0003f400 g       *ABS*	00000000 __alt_stack_pointer
0002c498 g     F .text	0000007c alt_avalon_timer_sc_init
0002c15c g     F .text	000002c4 altera_avalon_jtag_uart_write
00020864 g     F .text	00000004 __sfp_lock_acquire
00021700 g     F .text	000000e4 memchr
000256b4 g     F .text	00000054 OS_MemClr
0002d13c g     F .text	0000015c OSTaskStkInit
0002026c g     F .text	00000038 task1
0002297c g     F .text	00000310 _free_r
00024d24 g     F .text	00000198 OS_EventTaskRdy
0002d8cc g     F .text	00000180 __call_exitprocs
00031238 g     O .bss	00000001 OSCPUUsage
0002f648 g     O .rwdata	00000004 __malloc_sbrk_base
00020230 g     F .text	0000003c _start
000202a4 g     F .text	00000038 task2
0003126c g     O .bss	00000004 _alt_tick_rate
0002846c g     F .text	0000028c OSQPend
0002b118 g     F .text	00000104 OSTimeDly
00031270 g     O .bss	00000004 _alt_nticks
000237ac g     F .text	00000104 read
0002b694 g     F .text	00000060 alt_sys_init
0002d7b4 g     F .text	00000118 __register_exitproc
00031239 g     O .bss	00000001 OSTaskCtr
0002b21c g     F .text	0000017c OSTimeDlyHMSM
0002bd48 g     F .text	00000068 altera_avalon_jtag_uart_close
0002316c g     F .text	00000028 .hidden __mulsi3
0002dc00 g       *ABS*	00000000 __ram_rwdata_start
0002da80 g       *ABS*	00000000 __ram_rodata_start
00031278 g     O .bss	00000028 __malloc_current_mallinfo
0002f67e g     O .rwdata	00000002 OSEventMax
0002968c g     F .text	00000110 OSSemPost
000248c8 g     F .text	000000dc OSSchedUnlock
0002b6f4 g     F .text	00000060 altera_avalon_jtag_uart_read_fd
0002d55c g     F .text	000000f4 alt_get_fd
0003123c g     O .bss	00000004 OSMemFreeList
00024a14 g     F .text	000000b0 OSStatInit
0002724c g     F .text	000000c4 OSFlagQuery
0002f6b4 g     O .rwdata	00000002 OSTaskCreateExtEn
00022458 g     F .text	00000054 _close_r
0002d738 g     F .text	0000007c memcmp
00024d04 g     F .text	00000020 OS_Dummy
0002b7b4 g     F .text	00000050 altera_avalon_jtag_uart_close_fd
000385c4 g       *ABS*	00000000 __alt_stack_base
0002b804 g     F .text	00000054 altera_avalon_jtag_uart_ioctl_fd
00022304 g     F .text	00000154 __swsetup_r
00036a40 g     O .bss	000001e0 OSQTbl
00020724 g     F .text	00000118 __sfp
0002e024 g     O .rwdata	00000408 __malloc_av_
00020870 g     F .text	00000004 __sinit_lock_release
00031240 g     O .bss	00000004 OSTCBHighRdy
00022168 g     F .text	00000054 __sread
00031244 g     O .bss	00000004 OSQFreeList
0002d454 g     F .text	00000108 alt_find_file
0002c69c g     F .text	000000a4 alt_dev_llist_insert
00023c44 g     F .text	00000120 __malloc_lock
00023934 g     F .text	000000b0 sbrk
00023f50 g     F .text	00000140 OSEventNameSet
000227cc g     F .text	0000005c _fflush_r
00031248 g     O .bss	00000001 OSRdyGrp
000311e8 g       *ABS*	00000000 __bss_start
00021a88 g     F .text	00000128 memset
000202dc g     F .text	000000ac main
00031204 g     O .bss	00000004 alt_envp
000311e8 g     O .bss	00000004 __malloc_max_total_mem
0002b754 g     F .text	00000060 altera_avalon_jtag_uart_write_fd
0002dacc g     O .rodata	00000100 OSUnMapTbl
0002f6ae g     O .rwdata	00000002 OSSemEn
00026eb8 g     F .text	00000394 OSFlagPost
0002229c g     F .text	00000008 __sclose
0003f400 g       *ABS*	00000000 __alt_heap_limit
0002259c g     F .text	00000014 fclose
00024ebc g     F .text	00000110 OS_EventTaskWait
000332a0 g     O .bss	00002000 task2_stk
00025aa4 g     F .text	000000cc OS_TaskStatStkChk
0002a570 g     F .text	00000150 OSTaskDelReq
00020ef4 g     F .text	0000080c _malloc_r
0002f664 g     O .rwdata	00000004 alt_errno
000249a4 g     F .text	00000070 OSStart
00023be4 g     F .text	00000060 __env_unlock
00020d6c g     F .text	000000c4 _fwalk
0002aa0c g     F .text	000001d4 OSTaskResume
00027c88 g     F .text	000000e8 OSMemQuery
0002f6c0 g     O .rwdata	00000002 OSTaskStatEn
0002f69a g     O .rwdata	00000002 OSMemMax
000289cc g     F .text	00000170 OSQPostFront
00022fb8 g     F .text	00000084 .hidden __divsi3
00031249 g     O .bss	00000003 OSRdyTbl
0002f674 g     O .rwdata	00000002 OSDebugEn
00022858 g     F .text	00000124 _malloc_trim_r
0002da80 g       *ABS*	00000000 __CTOR_END__
0002f68c g     O .rwdata	00000002 OSFlagNodeSize
0002f6d4 g     O .rwdata	00000002 OSTmrCfgMax
00027f88 g     F .text	000001ac OSQCreate
0002a6c0 g     F .text	00000198 OSTaskNameGet
0002da80 g       *ABS*	00000000 __flash_rodata_start
00028b3c g     F .text	0000020c OSQPostOpt
00024ac4 g     F .text	00000220 OSTimeTick
0002f6bc g     O .rwdata	00000002 OSTaskMax
0002da80 g       *ABS*	00000000 __DTOR_LIST__
00028ffc g     F .text	000000d8 OSSemCreate
0002f6e0 g     O .rwdata	00000002 OSTmrWheelSize
0002f6b6 g     O .rwdata	00000002 OSTaskDelEn
0002979c g     F .text	00000110 OSSemQuery
00028134 g     F .text	00000280 OSQDel
000286f8 g     F .text	0000016c OSQPendAbort
0002b65c g     F .text	00000038 alt_irq_init
000238b0 g     F .text	00000084 alt_release_fd
0002d6ec g     F .text	00000014 atexit
000222a4 g     F .text	00000060 _write_r
0002483c g     F .text	0000008c OSSchedLock
000262dc g     F .text	00000108 OSFlagCreate
0002f644 g     O .rwdata	00000004 _impure_ptr
000311fc g     O .bss	00000004 alt_argc
000225b0 g     F .text	0000021c __sflush_r
0002c7a0 g     F .text	00000060 _do_dtors
0002f686 g     O .rwdata	00000002 OSEventMultiEn
000263e4 g     F .text	00000248 OSFlagDel
0003124c g     O .bss	00000004 OSEventFreeList
00020020 g       .exceptions	00000000 alt_irq_entry
000268a0 g     F .text	000005b8 OSFlagPend
0002f6d2 g     O .rwdata	00000002 OSTmrEn
0002088c g     F .text	00000018 __fp_unlock_all
0002f650 g     O .rwdata	00000008 alt_fs_list
000258b4 g     F .text	00000074 OS_StrCopy
0002f69c g     O .rwdata	00000002 OSMemNameSize
0002d360 g     F .text	00000020 OSInitHookEnd
00020020 g       *ABS*	00000000 __ram_exceptions_start
0002f6c8 g     O .rwdata	00000002 OSTCBPrioTblMax
0002f6c4 g     O .rwdata	00000002 OSTaskStatStkChkEn
0002c820 g     F .text	00000050 alt_ic_isr_register
0002f698 g     O .rwdata	00000002 OSMemEn
0002f6a2 g     O .rwdata	00000002 OSMutexEn
0002f6f4 g       *ABS*	00000000 _edata
000385c4 g       *ABS*	00000000 _end
00031250 g     O .bss	00000001 OSIntNesting
00020230 g       *ABS*	00000000 __ram_exceptions_end
0002bdb0 g     F .text	000000f0 altera_avalon_jtag_uart_ioctl
0002b398 g     F .text	000001d4 OSTimeDlyResume
00026754 g     F .text	0000014c OSFlagNameSet
0002abe0 g     F .text	000001c0 OSTaskStkChk
0002c8f8 g     F .text	0000008c alt_ic_irq_disable
0002f69e g     O .rwdata	00000002 OSMemSize
000221c4 g     F .text	0000007c __swrite
0002f64c g     O .rwdata	00000004 __malloc_trim_threshold
00031254 g     O .bss	00000004 OSTCBCur
0002d700 g     F .text	00000038 exit
0002f6a0 g     O .rwdata	00000002 OSMemTblSize
00020e30 g     F .text	000000c4 _fwalk_reent
0002303c g     F .text	00000074 .hidden __modsi3
0003f400 g       *ABS*	00000000 __alt_data_end
00020020 g     F .exceptions	00000000 alt_exception
00020868 g     F .text	00000004 __sfp_lock_release
000246a0 g     F .text	00000058 OSInit
0002af84 g     F .text	00000124 OSTaskQuery
00028ea4 g     F .text	000000a8 OS_QInit
00025928 g     F .text	00000054 OS_StrLen
00027a9c g     F .text	00000114 OSMemNameSet
0002f6ba g     O .rwdata	00000002 OSTaskProfileEn
00031258 g     O .bss	00000004 OSTime
00036c20 g     O .bss	00000800 OSTaskIdleStk
0002da4c g     F .text	00000034 _exit
0002c514 g     F .text	0000012c alt_alarm_start
0002662c g     F .text	00000128 OSFlagNameGet
0002b56c g     F .text	0000005c OSTimeGet
00022cec g     F .text	000001bc __smakebuf_r
0002045c g     F .text	00000098 strlen
0002d2e0 g     F .text	00000020 OSTaskSwHook
0002cd48 g     F .text	0000015c open
00037420 g     O .bss	00000b40 OSEventTbl
00037f60 g     O .bss	00000510 OSTCBTbl
000298ac g     F .text	00000100 OSSemSet
0002c800 g     F .text	00000020 alt_icache_flush_all
0002f6e8 g     O .rwdata	00000004 alt_priority_mask
000290d4 g     F .text	00000240 OSSemDel
0003125c g     O .bss	00000004 OSFlagFreeList
0002c870 g     F .text	00000088 alt_ic_irq_enable
0002f680 g     O .rwdata	00000002 OSEventNameSize
00031260 g     O .bss	00000001 OSStatRdy
00038470 g     O .bss	00000054 OSTCBPrioTbl
00023b20 g     F .text	000000c4 __env_lock
0002f6c6 g     O .rwdata	00000002 OSTaskSwHookEn
0002f6ec g     O .rwdata	00000008 alt_alarm_list
0002f68e g     O .rwdata	00000002 OSFlagWidth
0002c740 g     F .text	00000060 _do_ctors
000231d0 g     F .text	000000d8 close
0003120c g     O .bss	00000004 alt_envsem
00031264 g     O .bss	00000004 OSIdleCtrRun
00024ce4 g     F .text	00000020 OSVersion
0002f6d8 g     O .rwdata	00000002 OSTmrCfgWheelSize
00023518 g     F .text	00000084 alt_load
0002b0a8 g     F .text	00000070 OS_TaskStkClr
0002f6b2 g     O .rwdata	00000002 OSTaskCreateEn
000252d4 g     F .text	00000068 OS_EventWaitListInit
0002d380 g     F .text	00000020 OSTaskIdleHook
0002086c g     F .text	00000004 __sinit_lock_acquire
0002ada0 g     F .text	000001e4 OSTaskSuspend
0002597c g     F .text	0000005c OS_TaskIdle
0002f6de g     O .rwdata	00000002 OSTmrTblSize
00028d48 g     F .text	0000015c OSQQuery



Disassembly of section .entry:

00020000 <__reset>:
 * Jump to the _start entry point in the .text section if reset code
 * is allowed or if optimizing for RTL simulation.
 */
#if defined(ALT_ALLOW_CODE_AT_RESET) || defined(ALT_SIM_OPTIMIZE)
    /* Jump to the _start entry point in the .text section. */
    movhi r1, %hi(_start)
   20000:	004000b4 	movhi	at,2
    ori r1, r1, %lo(_start)
   20004:	08408c14 	ori	at,at,560
    jmp r1
   20008:	0800683a 	jmp	at
	...

Disassembly of section .exceptions:

00020020 <alt_exception>:

#else /* ALT_EXCEPTION_STACK disabled */
        /* 
         * Reserve space on normal stack for registers about to be pushed.
         */
        addi  sp, sp, -76
   20020:	deffed04 	addi	sp,sp,-76
         * documentation for details).
         *
         * Leave a gap in the stack frame at 4(sp) for the muldiv handler to
         * store zero into.
         */
        stw   ra,  0(sp)
   20024:	dfc00015 	stw	ra,0(sp)
        stw   r1,   8(sp)
   20028:	d8400215 	stw	at,8(sp)
        stw   r2,  12(sp)
   2002c:	d8800315 	stw	r2,12(sp)
        stw   r3,  16(sp)
   20030:	d8c00415 	stw	r3,16(sp)
        stw   r4,  20(sp)
   20034:	d9000515 	stw	r4,20(sp)
        stw   r5,  24(sp)
   20038:	d9400615 	stw	r5,24(sp)
        stw   r6,  28(sp)
   2003c:	d9800715 	stw	r6,28(sp)
        stw   r7,  32(sp)
   20040:	d9c00815 	stw	r7,32(sp)
        rdctl r5, estatus   /* Read early to avoid usage stall */
   20044:	000b307a 	rdctl	r5,estatus
        stw   r8,  36(sp)
   20048:	da000915 	stw	r8,36(sp)
        stw   r9,  40(sp)
   2004c:	da400a15 	stw	r9,40(sp)
        stw   r10, 44(sp)
   20050:	da800b15 	stw	r10,44(sp)
        stw   r11, 48(sp)
   20054:	dac00c15 	stw	r11,48(sp)
        stw   r12, 52(sp)
   20058:	db000d15 	stw	r12,52(sp)
        stw   r13, 56(sp)
   2005c:	db400e15 	stw	r13,56(sp)
        stw   r14, 60(sp)
   20060:	db800f15 	stw	r14,60(sp)
        stw   r15, 64(sp)
   20064:	dbc01015 	stw	r15,64(sp)
        /*
         * ea-4 contains the address of the instruction being executed
         * when the exception occured. For interrupt exceptions, we will
         * will be re-issue the isntruction. Store it in 72(sp)
         */
        stw   r5,  68(sp)  /* estatus */
   20068:	d9401115 	stw	r5,68(sp)
        addi  r15, ea, -4  /* instruction that caused exception */
   2006c:	ebffff04 	addi	r15,ea,-4
        stw   r15,  72(sp)
   20070:	dbc01215 	stw	r15,72(sp)
#else
        /*
         * Test to see if the exception was a software exception or caused 
         * by an external interrupt, and vector accordingly.
         */
        rdctl r4, ipending
   20074:	0009313a 	rdctl	r4,ipending
        andi  r2, r5, 1
   20078:	2880004c 	andi	r2,r5,1
        beq   r2, zero, .Lnot_irq
   2007c:	10000326 	beq	r2,zero,2008c <alt_exception+0x6c>
        beq   r4, zero, .Lnot_irq
   20080:	20000226 	beq	r4,zero,2008c <alt_exception+0x6c>
        /*
         * Now that all necessary registers have been preserved, call 
         * alt_irq_handler() to process the interrupts.
         */

        call alt_irq_handler
   20084:	00200fc0 	call	200fc <alt_irq_handler>

        .section .exceptions.irqreturn, "xa"

        br    .Lexception_exit
   20088:	00000706 	br	200a8 <alt_exception+0x88>
         * upon completion, so we write ea (address of instruction *after*
         * the one where the exception occured) into 72(sp). The actual
         * instruction that caused the exception is written in r2, which these
         * handlers will utilize.
         */
        stw ea, 72(sp) /* EA is PC+4 so will skip over instruction causing exception */
   2008c:	df401215 	stw	ea,72(sp)
.Lunknown_16bit:
        addi.n r4, r4, 2 /* Need PC+2 to skip over instruction causing exception */
        stw r4, 72(sp)

#else /* CDX is not Enabled and all instructions are 32bits */
        ldw r2, -4(ea) /* Instruction value that caused exception */
   20090:	e8bfff17 	ldw	r2,-4(ea)
         * debugger is present) or go into an infinite loop since the
         * handling behavior is undefined; in that case we will not return here.
         */

        /* Load exception-causing address as first argument (r4) */
        addi   r4, ea, -4
   20094:	e93fff04 	addi	r4,ea,-4

        /* Call the instruction-exception entry */
        call   alt_instruction_exception_entry
   20098:	00201d00 	call	201d0 <alt_instruction_exception_entry>
         * instruction
         *
         * Return code was 0: Skip. The instruction after the exception is
         * already stored in 72(sp).
         */
        bne   r2, r0, .Lexception_exit
   2009c:	1000021e 	bne	r2,zero,200a8 <alt_exception+0x88>

        /*
         * Otherwise, modify 72(sp) to re-issue the instruction that caused the
         * exception.
         */
        addi  r15, ea, -4  /* instruction that caused exception */
   200a0:	ebffff04 	addi	r15,ea,-4
        stw   r15,  72(sp)
   200a4:	dbc01215 	stw	r15,72(sp)
        /* 
         * Restore the saved registers, so that all general purpose registers 
         * have been restored to their state at the time the interrupt occured.
         */

        ldw   r5,  68(sp)
   200a8:	d9401117 	ldw	r5,68(sp)
        ldw   ea,  72(sp)  /* This becomes the PC once eret is executed */
   200ac:	df401217 	ldw	ea,72(sp)
        ldw   ra,   0(sp)
   200b0:	dfc00017 	ldw	ra,0(sp)

        wrctl estatus, r5
   200b4:	2801707a 	wrctl	estatus,r5

        ldw   r1,   8(sp)
   200b8:	d8400217 	ldw	at,8(sp)
        ldw   r2,  12(sp)
   200bc:	d8800317 	ldw	r2,12(sp)
        ldw   r3,  16(sp)
   200c0:	d8c00417 	ldw	r3,16(sp)
        ldw   r4,  20(sp)
   200c4:	d9000517 	ldw	r4,20(sp)
        ldw   r5,  24(sp)
   200c8:	d9400617 	ldw	r5,24(sp)
        ldw   r6,  28(sp)
   200cc:	d9800717 	ldw	r6,28(sp)
        ldw   r7,  32(sp)
   200d0:	d9c00817 	ldw	r7,32(sp)

#if defined(ALT_EXCEPTION_STACK) && defined(ALT_STACK_CHECK)
        ldw   et, %gprel(alt_exception_old_stack_limit)(gp)
#endif

        ldw   r8,  36(sp)
   200d4:	da000917 	ldw	r8,36(sp)
        ldw   r9,  40(sp)
   200d8:	da400a17 	ldw	r9,40(sp)
        ldw   r10, 44(sp)
   200dc:	da800b17 	ldw	r10,44(sp)
        ldw   r11, 48(sp)
   200e0:	dac00c17 	ldw	r11,48(sp)
        ldw   r12, 52(sp)
   200e4:	db000d17 	ldw	r12,52(sp)
        ldw   r13, 56(sp)
   200e8:	db400e17 	ldw	r13,56(sp)
        ldw   r14, 60(sp)
   200ec:	db800f17 	ldw	r14,60(sp)
        ldw   r15, 64(sp)
   200f0:	dbc01017 	ldw	r15,64(sp)
        stw   et, %gprel(alt_stack_limit_value)(gp)
        stw   zero, %gprel(alt_exception_old_stack_limit)(gp)
#endif /* ALT_STACK_CHECK */
        ldw   sp,  76(sp)
#else /* ALT_EXCEPTION_STACK disabled */
        addi  sp, sp, 76
   200f4:	dec01304 	addi	sp,sp,76

        /*
         * Return to the interrupted instruction.
         */

        eret
   200f8:	ef80083a 	eret

000200fc <alt_irq_handler>:
 * instruction is present if the macro ALT_CI_INTERRUPT_VECTOR defined.
 */

void alt_irq_handler (void) __attribute__ ((section (".exceptions")));
void alt_irq_handler (void)
{
   200fc:	defff904 	addi	sp,sp,-28
   20100:	dfc00615 	stw	ra,24(sp)
   20104:	df000515 	stw	fp,20(sp)
   20108:	df000504 	addi	fp,sp,20
  
  /*
   * Notify the operating system that we are at interrupt level.
   */ 
  
  ALT_OS_INT_ENTER();
   2010c:	00246f80 	call	246f8 <OSIntEnter>
#ifndef NIOS2_EIC_PRESENT
static ALT_INLINE alt_u32 ALT_ALWAYS_INLINE alt_irq_pending (void)
{
  alt_u32 active;

  NIOS2_READ_IPENDING (active);
   20110:	0005313a 	rdctl	r2,ipending
   20114:	e0bffe15 	stw	r2,-8(fp)

  return active;
   20118:	e0bffe17 	ldw	r2,-8(fp)
   * Consider the case where the high priority interupt is asserted during
   * the interrupt entry sequence for a lower priority interrupt to see why
   * this is the case.
   */

  active = alt_irq_pending ();
   2011c:	e0bffb15 	stw	r2,-20(fp)

  do
  {
    i = 0;
   20120:	e03ffd15 	stw	zero,-12(fp)
    mask = 1;
   20124:	00800044 	movi	r2,1
   20128:	e0bffc15 	stw	r2,-16(fp)
     * called to clear the interrupt condition.
     */

    do
    {
      if (active & mask)
   2012c:	e0fffb17 	ldw	r3,-20(fp)
   20130:	e0bffc17 	ldw	r2,-16(fp)
   20134:	1884703a 	and	r2,r3,r2
   20138:	10001426 	beq	r2,zero,2018c <alt_irq_handler+0x90>
      { 
#ifdef ALT_ENHANCED_INTERRUPT_API_PRESENT
        alt_irq[i].handler(alt_irq[i].context); 
   2013c:	00800134 	movhi	r2,4
   20140:	10a13104 	addi	r2,r2,-31548
   20144:	e0fffd17 	ldw	r3,-12(fp)
   20148:	180690fa 	slli	r3,r3,3
   2014c:	10c5883a 	add	r2,r2,r3
   20150:	10c00017 	ldw	r3,0(r2)
   20154:	00800134 	movhi	r2,4
   20158:	10a13104 	addi	r2,r2,-31548
   2015c:	e13ffd17 	ldw	r4,-12(fp)
   20160:	200890fa 	slli	r4,r4,3
   20164:	1105883a 	add	r2,r2,r4
   20168:	10800104 	addi	r2,r2,4
   2016c:	10800017 	ldw	r2,0(r2)
   20170:	1009883a 	mov	r4,r2
   20174:	183ee83a 	callr	r3
#else
        alt_irq[i].handler(alt_irq[i].context, i); 
#endif
        break;
   20178:	0001883a 	nop
#ifndef NIOS2_EIC_PRESENT
static ALT_INLINE alt_u32 ALT_ALWAYS_INLINE alt_irq_pending (void)
{
  alt_u32 active;

  NIOS2_READ_IPENDING (active);
   2017c:	0005313a 	rdctl	r2,ipending
   20180:	e0bfff15 	stw	r2,-4(fp)

  return active;
   20184:	e0bfff17 	ldw	r2,-4(fp)
   20188:	00000706 	br	201a8 <alt_irq_handler+0xac>
      }
      mask <<= 1;
   2018c:	e0bffc17 	ldw	r2,-16(fp)
   20190:	1085883a 	add	r2,r2,r2
   20194:	e0bffc15 	stw	r2,-16(fp)
      i++;
   20198:	e0bffd17 	ldw	r2,-12(fp)
   2019c:	10800044 	addi	r2,r2,1
   201a0:	e0bffd15 	stw	r2,-12(fp)

    } while (1);
   201a4:	003fe106 	br	2012c <__alt_data_end+0xfffe0d2c>

    active = alt_irq_pending ();
   201a8:	e0bffb15 	stw	r2,-20(fp)
    
  } while (active);
   201ac:	e0bffb17 	ldw	r2,-20(fp)
   201b0:	103fdb1e 	bne	r2,zero,20120 <__alt_data_end+0xfffe0d20>

  /*
   * Notify the operating system that interrupt processing is complete.
   */ 

  ALT_OS_INT_EXIT();
   201b4:	00247440 	call	24744 <OSIntExit>
}
   201b8:	0001883a 	nop
   201bc:	e037883a 	mov	sp,fp
   201c0:	dfc00117 	ldw	ra,4(sp)
   201c4:	df000017 	ldw	fp,0(sp)
   201c8:	dec00204 	addi	sp,sp,8
   201cc:	f800283a 	ret

000201d0 <alt_instruction_exception_entry>:
 * that handler if it has been registered. Absent a handler, it will
 * break break or hang as discussed below.
 */
int 
alt_instruction_exception_entry (alt_u32 exception_pc)
{
   201d0:	defffb04 	addi	sp,sp,-20
   201d4:	dfc00415 	stw	ra,16(sp)
   201d8:	df000315 	stw	fp,12(sp)
   201dc:	df000304 	addi	fp,sp,12
   201e0:	e13fff15 	stw	r4,-4(fp)
  cause = ( (cause & NIOS2_EXCEPTION_REG_CAUSE_MASK) >>
              NIOS2_EXCEPTION_REG_CAUSE_OFST );

  NIOS2_READ_BADADDR(badaddr);
#else
  cause = NIOS2_EXCEPTION_CAUSE_NOT_PRESENT;
   201e4:	00bfffc4 	movi	r2,-1
   201e8:	e0bffd15 	stw	r2,-12(fp)
  badaddr = 0;
   201ec:	e03ffe15 	stw	zero,-8(fp)
#endif /* NIOS2_HAS_EXTRA_EXCEPTION_INFO */

  if(alt_instruction_exception_handler) {
   201f0:	d0a70d17 	ldw	r2,-25548(gp)
   201f4:	10000726 	beq	r2,zero,20214 <alt_instruction_exception_entry+0x44>
     * Call handler. Its return value indicates whether the exception-causing
     * instruction should be re-issued. The code that called us,
     * alt_eceptions_entry.S, will look at this value and adjust the ea
     * register as necessary
     */
    return alt_instruction_exception_handler(cause, exception_pc, badaddr);
   201f8:	d0a70d17 	ldw	r2,-25548(gp)
   201fc:	e0fffd17 	ldw	r3,-12(fp)
   20200:	e1bffe17 	ldw	r6,-8(fp)
   20204:	e17fff17 	ldw	r5,-4(fp)
   20208:	1809883a 	mov	r4,r3
   2020c:	103ee83a 	callr	r2
   20210:	00000206 	br	2021c <alt_instruction_exception_entry+0x4c>
   *    (a peripheral which negates its interrupt output before its
   *    interrupt handler has been executed will cause spurious interrupts)
   */
  else {
#ifdef NIOS2_HAS_DEBUG_STUB
    NIOS2_BREAK();
   20214:	003da03a 	break	0
      ;
#endif /* NIOS2_HAS_DEBUG_STUB */
  }

  /* We should not get here. Remove compiler warning. */
  return NIOS2_EXCEPTION_RETURN_REISSUE_INST;
   20218:	0005883a 	mov	r2,zero
}
   2021c:	e037883a 	mov	sp,fp
   20220:	dfc00117 	ldw	ra,4(sp)
   20224:	df000017 	ldw	fp,0(sp)
   20228:	dec00204 	addi	sp,sp,8
   2022c:	f800283a 	ret

Disassembly of section .text:

00020230 <_start>:

    /*
     * Now that the caches are initialized, set up the stack pointer and global pointer.
     * The values provided by the linker are assumed to be correctly aligned.
     */
    movhi sp, %hi(__alt_stack_pointer)
   20230:	06c000f4 	movhi	sp,3
    ori sp, sp, %lo(__alt_stack_pointer)
   20234:	defd0014 	ori	sp,sp,62464
    movhi gp, %hi(_gp)
   20238:	068000f4 	movhi	gp,3
    ori gp, gp, %lo(_gp)
   2023c:	d69d9014 	ori	gp,gp,30272
 */
#ifndef ALT_SIM_OPTIMIZE
    /* Log that the BSS is about to be cleared. */
    ALT_LOG_PUTS(alt_log_msg_bss)

    movhi r2, %hi(__bss_start)
   20240:	008000f4 	movhi	r2,3
    ori r2, r2, %lo(__bss_start)
   20244:	10847a14 	ori	r2,r2,4584

    movhi r3, %hi(__bss_end)
   20248:	00c000f4 	movhi	r3,3
    ori r3, r3, %lo(__bss_end)
   2024c:	18e17114 	ori	r3,r3,34244

    beq r2, r3, 1f
   20250:	10c00326 	beq	r2,r3,20260 <_start+0x30>

0:
    stw zero, (r2)
   20254:	10000015 	stw	zero,0(r2)
    addi r2, r2, 4
   20258:	10800104 	addi	r2,r2,4
    bltu r2, r3, 0b
   2025c:	10fffd36 	bltu	r2,r3,20254 <__alt_data_end+0xfffe0e54>
     * section aren't defined until alt_load() has been called).
     */
    mov   et, zero
#endif

    call alt_load
   20260:	00235180 	call	23518 <alt_load>

    /* Log that alt_main is about to be called. */
    ALT_LOG_PUTS(alt_log_msg_alt_main)

    /* Call the C entry point. It should never return. */
    call alt_main
   20264:	00236b40 	call	236b4 <alt_main>

00020268 <alt_after_alt_main>:

    /* Wait in infinite loop in case alt_main does return. */
alt_after_alt_main:
    br alt_after_alt_main
   20268:	003fff06 	br	20268 <__alt_data_end+0xfffe0e68>

0002026c <task1>:
#define TASK1_PRIORITY      1
#define TASK2_PRIORITY      2

/* Prints "Hello World" and sleeps for three seconds */
void task1(void* pdata)
{
   2026c:	defffd04 	addi	sp,sp,-12
   20270:	dfc00215 	stw	ra,8(sp)
   20274:	df000115 	stw	fp,4(sp)
   20278:	df000104 	addi	fp,sp,4
   2027c:	e13fff15 	stw	r4,-4(fp)
  while (1)
  { 
    printf("Hello from task1\n");
   20280:	010000f4 	movhi	r4,3
   20284:	2136a004 	addi	r4,r4,-9600
   20288:	00204480 	call	20448 <puts>
    OSTimeDlyHMSM(0, 0, 3, 0);
   2028c:	000f883a 	mov	r7,zero
   20290:	018000c4 	movi	r6,3
   20294:	000b883a 	mov	r5,zero
   20298:	0009883a 	mov	r4,zero
   2029c:	002b21c0 	call	2b21c <OSTimeDlyHMSM>
  }
   202a0:	003ff706 	br	20280 <__alt_data_end+0xfffe0e80>

000202a4 <task2>:
}
/* Prints "Hello World" and sleeps for three seconds */
void task2(void* pdata)
{
   202a4:	defffd04 	addi	sp,sp,-12
   202a8:	dfc00215 	stw	ra,8(sp)
   202ac:	df000115 	stw	fp,4(sp)
   202b0:	df000104 	addi	fp,sp,4
   202b4:	e13fff15 	stw	r4,-4(fp)
  while (1)
  { 
    printf("Hello from task2\n");
   202b8:	010000f4 	movhi	r4,3
   202bc:	2136a504 	addi	r4,r4,-9580
   202c0:	00204480 	call	20448 <puts>
    OSTimeDlyHMSM(0, 0, 3, 0);
   202c4:	000f883a 	mov	r7,zero
   202c8:	018000c4 	movi	r6,3
   202cc:	000b883a 	mov	r5,zero
   202d0:	0009883a 	mov	r4,zero
   202d4:	002b21c0 	call	2b21c <OSTimeDlyHMSM>
  }
   202d8:	003ff706 	br	202b8 <__alt_data_end+0xfffe0eb8>

000202dc <main>:
}
/* The main function creates two task and starts multi-tasking */
int main(void)
{
   202dc:	defff904 	addi	sp,sp,-28
   202e0:	dfc00615 	stw	ra,24(sp)
   202e4:	df000515 	stw	fp,20(sp)
   202e8:	df000504 	addi	fp,sp,20
  
  OSTaskCreateExt(task1,
   202ec:	d8000415 	stw	zero,16(sp)
   202f0:	d8000315 	stw	zero,12(sp)
   202f4:	00820004 	movi	r2,2048
   202f8:	d8800215 	stw	r2,8(sp)
   202fc:	008000f4 	movhi	r2,3
   20300:	1084a804 	addi	r2,r2,4768
   20304:	d8800115 	stw	r2,4(sp)
   20308:	00800044 	movi	r2,1
   2030c:	d8800015 	stw	r2,0(sp)
   20310:	01c00044 	movi	r7,1
   20314:	018000f4 	movhi	r6,3
   20318:	318ca704 	addi	r6,r6,12956
   2031c:	000b883a 	mov	r5,zero
   20320:	010000b4 	movhi	r4,2
   20324:	21009b04 	addi	r4,r4,620
   20328:	002a0480 	call	2a048 <OSTaskCreateExt>
                  TASK_STACKSIZE,
                  NULL,
                  0);
              
               
  OSTaskCreateExt(task2,
   2032c:	d8000415 	stw	zero,16(sp)
   20330:	d8000315 	stw	zero,12(sp)
   20334:	00820004 	movi	r2,2048
   20338:	d8800215 	stw	r2,8(sp)
   2033c:	008000f4 	movhi	r2,3
   20340:	108ca804 	addi	r2,r2,12960
   20344:	d8800115 	stw	r2,4(sp)
   20348:	00800084 	movi	r2,2
   2034c:	d8800015 	stw	r2,0(sp)
   20350:	01c00084 	movi	r7,2
   20354:	018000f4 	movhi	r6,3
   20358:	3194a704 	addi	r6,r6,21148
   2035c:	000b883a 	mov	r5,zero
   20360:	010000b4 	movhi	r4,2
   20364:	2100a904 	addi	r4,r4,676
   20368:	002a0480 	call	2a048 <OSTaskCreateExt>
                  TASK2_PRIORITY,
                  task2_stk,
                  TASK_STACKSIZE,
                  NULL,
                  0);
  OSStart();
   2036c:	00249a40 	call	249a4 <OSStart>
  return 0;
   20370:	0005883a 	mov	r2,zero
}
   20374:	e037883a 	mov	sp,fp
   20378:	dfc00117 	ldw	ra,4(sp)
   2037c:	df000017 	ldw	fp,0(sp)
   20380:	dec00204 	addi	sp,sp,8
   20384:	f800283a 	ret

00020388 <_puts_r>:
   20388:	defff604 	addi	sp,sp,-40
   2038c:	dc000715 	stw	r16,28(sp)
   20390:	2021883a 	mov	r16,r4
   20394:	2809883a 	mov	r4,r5
   20398:	dc400815 	stw	r17,32(sp)
   2039c:	dfc00915 	stw	ra,36(sp)
   203a0:	2823883a 	mov	r17,r5
   203a4:	002045c0 	call	2045c <strlen>
   203a8:	10c00044 	addi	r3,r2,1
   203ac:	d8800115 	stw	r2,4(sp)
   203b0:	008000f4 	movhi	r2,3
   203b4:	10b6aa04 	addi	r2,r2,-9560
   203b8:	d8800215 	stw	r2,8(sp)
   203bc:	00800044 	movi	r2,1
   203c0:	d8800315 	stw	r2,12(sp)
   203c4:	00800084 	movi	r2,2
   203c8:	dc400015 	stw	r17,0(sp)
   203cc:	d8c00615 	stw	r3,24(sp)
   203d0:	dec00415 	stw	sp,16(sp)
   203d4:	d8800515 	stw	r2,20(sp)
   203d8:	80000226 	beq	r16,zero,203e4 <_puts_r+0x5c>
   203dc:	80800e17 	ldw	r2,56(r16)
   203e0:	10001426 	beq	r2,zero,20434 <_puts_r+0xac>
   203e4:	81400217 	ldw	r5,8(r16)
   203e8:	2880030b 	ldhu	r2,12(r5)
   203ec:	10c8000c 	andi	r3,r2,8192
   203f0:	1800061e 	bne	r3,zero,2040c <_puts_r+0x84>
   203f4:	29001917 	ldw	r4,100(r5)
   203f8:	00f7ffc4 	movi	r3,-8193
   203fc:	10880014 	ori	r2,r2,8192
   20400:	20c6703a 	and	r3,r4,r3
   20404:	2880030d 	sth	r2,12(r5)
   20408:	28c01915 	stw	r3,100(r5)
   2040c:	d9800404 	addi	r6,sp,16
   20410:	8009883a 	mov	r4,r16
   20414:	00208a40 	call	208a4 <__sfvwrite_r>
   20418:	1000091e 	bne	r2,zero,20440 <_puts_r+0xb8>
   2041c:	00800284 	movi	r2,10
   20420:	dfc00917 	ldw	ra,36(sp)
   20424:	dc400817 	ldw	r17,32(sp)
   20428:	dc000717 	ldw	r16,28(sp)
   2042c:	dec00a04 	addi	sp,sp,40
   20430:	f800283a 	ret
   20434:	8009883a 	mov	r4,r16
   20438:	00208540 	call	20854 <__sinit>
   2043c:	003fe906 	br	203e4 <__alt_data_end+0xfffe0fe4>
   20440:	00bfffc4 	movi	r2,-1
   20444:	003ff606 	br	20420 <__alt_data_end+0xfffe1020>

00020448 <puts>:
   20448:	008000f4 	movhi	r2,3
   2044c:	10bd9104 	addi	r2,r2,-2492
   20450:	200b883a 	mov	r5,r4
   20454:	11000017 	ldw	r4,0(r2)
   20458:	00203881 	jmpi	20388 <_puts_r>

0002045c <strlen>:
   2045c:	208000cc 	andi	r2,r4,3
   20460:	10002026 	beq	r2,zero,204e4 <strlen+0x88>
   20464:	20800007 	ldb	r2,0(r4)
   20468:	10002026 	beq	r2,zero,204ec <strlen+0x90>
   2046c:	2005883a 	mov	r2,r4
   20470:	00000206 	br	2047c <strlen+0x20>
   20474:	10c00007 	ldb	r3,0(r2)
   20478:	18001826 	beq	r3,zero,204dc <strlen+0x80>
   2047c:	10800044 	addi	r2,r2,1
   20480:	10c000cc 	andi	r3,r2,3
   20484:	183ffb1e 	bne	r3,zero,20474 <__alt_data_end+0xfffe1074>
   20488:	10c00017 	ldw	r3,0(r2)
   2048c:	01ffbff4 	movhi	r7,65279
   20490:	39ffbfc4 	addi	r7,r7,-257
   20494:	00ca303a 	nor	r5,zero,r3
   20498:	01a02074 	movhi	r6,32897
   2049c:	19c7883a 	add	r3,r3,r7
   204a0:	31a02004 	addi	r6,r6,-32640
   204a4:	1946703a 	and	r3,r3,r5
   204a8:	1986703a 	and	r3,r3,r6
   204ac:	1800091e 	bne	r3,zero,204d4 <strlen+0x78>
   204b0:	10800104 	addi	r2,r2,4
   204b4:	10c00017 	ldw	r3,0(r2)
   204b8:	19cb883a 	add	r5,r3,r7
   204bc:	00c6303a 	nor	r3,zero,r3
   204c0:	28c6703a 	and	r3,r5,r3
   204c4:	1986703a 	and	r3,r3,r6
   204c8:	183ff926 	beq	r3,zero,204b0 <__alt_data_end+0xfffe10b0>
   204cc:	00000106 	br	204d4 <strlen+0x78>
   204d0:	10800044 	addi	r2,r2,1
   204d4:	10c00007 	ldb	r3,0(r2)
   204d8:	183ffd1e 	bne	r3,zero,204d0 <__alt_data_end+0xfffe10d0>
   204dc:	1105c83a 	sub	r2,r2,r4
   204e0:	f800283a 	ret
   204e4:	2005883a 	mov	r2,r4
   204e8:	003fe706 	br	20488 <__alt_data_end+0xfffe1088>
   204ec:	0005883a 	mov	r2,zero
   204f0:	f800283a 	ret

000204f4 <__fp_unlock>:
   204f4:	0005883a 	mov	r2,zero
   204f8:	f800283a 	ret

000204fc <_cleanup_r>:
   204fc:	014000b4 	movhi	r5,2
   20500:	29492b04 	addi	r5,r5,9388
   20504:	0020e301 	jmpi	20e30 <_fwalk_reent>

00020508 <__sinit.part.1>:
   20508:	defff704 	addi	sp,sp,-36
   2050c:	00c000b4 	movhi	r3,2
   20510:	dfc00815 	stw	ra,32(sp)
   20514:	ddc00715 	stw	r23,28(sp)
   20518:	dd800615 	stw	r22,24(sp)
   2051c:	dd400515 	stw	r21,20(sp)
   20520:	dd000415 	stw	r20,16(sp)
   20524:	dcc00315 	stw	r19,12(sp)
   20528:	dc800215 	stw	r18,8(sp)
   2052c:	dc400115 	stw	r17,4(sp)
   20530:	dc000015 	stw	r16,0(sp)
   20534:	18c13f04 	addi	r3,r3,1276
   20538:	24000117 	ldw	r16,4(r4)
   2053c:	20c00f15 	stw	r3,60(r4)
   20540:	2080bb04 	addi	r2,r4,748
   20544:	00c000c4 	movi	r3,3
   20548:	20c0b915 	stw	r3,740(r4)
   2054c:	2080ba15 	stw	r2,744(r4)
   20550:	2000b815 	stw	zero,736(r4)
   20554:	05c00204 	movi	r23,8
   20558:	00800104 	movi	r2,4
   2055c:	2025883a 	mov	r18,r4
   20560:	b80d883a 	mov	r6,r23
   20564:	81001704 	addi	r4,r16,92
   20568:	000b883a 	mov	r5,zero
   2056c:	80000015 	stw	zero,0(r16)
   20570:	80000115 	stw	zero,4(r16)
   20574:	80000215 	stw	zero,8(r16)
   20578:	8080030d 	sth	r2,12(r16)
   2057c:	80001915 	stw	zero,100(r16)
   20580:	8000038d 	sth	zero,14(r16)
   20584:	80000415 	stw	zero,16(r16)
   20588:	80000515 	stw	zero,20(r16)
   2058c:	80000615 	stw	zero,24(r16)
   20590:	0021a880 	call	21a88 <memset>
   20594:	058000b4 	movhi	r22,2
   20598:	94400217 	ldw	r17,8(r18)
   2059c:	054000b4 	movhi	r21,2
   205a0:	050000b4 	movhi	r20,2
   205a4:	04c000b4 	movhi	r19,2
   205a8:	b5885a04 	addi	r22,r22,8552
   205ac:	ad487104 	addi	r21,r21,8644
   205b0:	a5089004 	addi	r20,r20,8768
   205b4:	9cc8a704 	addi	r19,r19,8860
   205b8:	85800815 	stw	r22,32(r16)
   205bc:	85400915 	stw	r21,36(r16)
   205c0:	85000a15 	stw	r20,40(r16)
   205c4:	84c00b15 	stw	r19,44(r16)
   205c8:	84000715 	stw	r16,28(r16)
   205cc:	00800284 	movi	r2,10
   205d0:	8880030d 	sth	r2,12(r17)
   205d4:	00800044 	movi	r2,1
   205d8:	b80d883a 	mov	r6,r23
   205dc:	89001704 	addi	r4,r17,92
   205e0:	000b883a 	mov	r5,zero
   205e4:	88000015 	stw	zero,0(r17)
   205e8:	88000115 	stw	zero,4(r17)
   205ec:	88000215 	stw	zero,8(r17)
   205f0:	88001915 	stw	zero,100(r17)
   205f4:	8880038d 	sth	r2,14(r17)
   205f8:	88000415 	stw	zero,16(r17)
   205fc:	88000515 	stw	zero,20(r17)
   20600:	88000615 	stw	zero,24(r17)
   20604:	0021a880 	call	21a88 <memset>
   20608:	94000317 	ldw	r16,12(r18)
   2060c:	00800484 	movi	r2,18
   20610:	8c400715 	stw	r17,28(r17)
   20614:	8d800815 	stw	r22,32(r17)
   20618:	8d400915 	stw	r21,36(r17)
   2061c:	8d000a15 	stw	r20,40(r17)
   20620:	8cc00b15 	stw	r19,44(r17)
   20624:	8080030d 	sth	r2,12(r16)
   20628:	00800084 	movi	r2,2
   2062c:	80000015 	stw	zero,0(r16)
   20630:	80000115 	stw	zero,4(r16)
   20634:	80000215 	stw	zero,8(r16)
   20638:	80001915 	stw	zero,100(r16)
   2063c:	8080038d 	sth	r2,14(r16)
   20640:	80000415 	stw	zero,16(r16)
   20644:	80000515 	stw	zero,20(r16)
   20648:	80000615 	stw	zero,24(r16)
   2064c:	b80d883a 	mov	r6,r23
   20650:	000b883a 	mov	r5,zero
   20654:	81001704 	addi	r4,r16,92
   20658:	0021a880 	call	21a88 <memset>
   2065c:	00800044 	movi	r2,1
   20660:	84000715 	stw	r16,28(r16)
   20664:	85800815 	stw	r22,32(r16)
   20668:	85400915 	stw	r21,36(r16)
   2066c:	85000a15 	stw	r20,40(r16)
   20670:	84c00b15 	stw	r19,44(r16)
   20674:	90800e15 	stw	r2,56(r18)
   20678:	dfc00817 	ldw	ra,32(sp)
   2067c:	ddc00717 	ldw	r23,28(sp)
   20680:	dd800617 	ldw	r22,24(sp)
   20684:	dd400517 	ldw	r21,20(sp)
   20688:	dd000417 	ldw	r20,16(sp)
   2068c:	dcc00317 	ldw	r19,12(sp)
   20690:	dc800217 	ldw	r18,8(sp)
   20694:	dc400117 	ldw	r17,4(sp)
   20698:	dc000017 	ldw	r16,0(sp)
   2069c:	dec00904 	addi	sp,sp,36
   206a0:	f800283a 	ret

000206a4 <__fp_lock>:
   206a4:	0005883a 	mov	r2,zero
   206a8:	f800283a 	ret

000206ac <__sfmoreglue>:
   206ac:	defffc04 	addi	sp,sp,-16
   206b0:	dc800215 	stw	r18,8(sp)
   206b4:	2825883a 	mov	r18,r5
   206b8:	dc000015 	stw	r16,0(sp)
   206bc:	01401a04 	movi	r5,104
   206c0:	2021883a 	mov	r16,r4
   206c4:	913fffc4 	addi	r4,r18,-1
   206c8:	dfc00315 	stw	ra,12(sp)
   206cc:	dc400115 	stw	r17,4(sp)
   206d0:	002316c0 	call	2316c <__mulsi3>
   206d4:	8009883a 	mov	r4,r16
   206d8:	11401d04 	addi	r5,r2,116
   206dc:	1023883a 	mov	r17,r2
   206e0:	0020ef40 	call	20ef4 <_malloc_r>
   206e4:	1021883a 	mov	r16,r2
   206e8:	10000726 	beq	r2,zero,20708 <__sfmoreglue+0x5c>
   206ec:	11000304 	addi	r4,r2,12
   206f0:	10000015 	stw	zero,0(r2)
   206f4:	14800115 	stw	r18,4(r2)
   206f8:	11000215 	stw	r4,8(r2)
   206fc:	89801a04 	addi	r6,r17,104
   20700:	000b883a 	mov	r5,zero
   20704:	0021a880 	call	21a88 <memset>
   20708:	8005883a 	mov	r2,r16
   2070c:	dfc00317 	ldw	ra,12(sp)
   20710:	dc800217 	ldw	r18,8(sp)
   20714:	dc400117 	ldw	r17,4(sp)
   20718:	dc000017 	ldw	r16,0(sp)
   2071c:	dec00404 	addi	sp,sp,16
   20720:	f800283a 	ret

00020724 <__sfp>:
   20724:	defffb04 	addi	sp,sp,-20
   20728:	dc000015 	stw	r16,0(sp)
   2072c:	040000f4 	movhi	r16,3
   20730:	843d9004 	addi	r16,r16,-2496
   20734:	dcc00315 	stw	r19,12(sp)
   20738:	2027883a 	mov	r19,r4
   2073c:	81000017 	ldw	r4,0(r16)
   20740:	dfc00415 	stw	ra,16(sp)
   20744:	dc800215 	stw	r18,8(sp)
   20748:	20800e17 	ldw	r2,56(r4)
   2074c:	dc400115 	stw	r17,4(sp)
   20750:	1000021e 	bne	r2,zero,2075c <__sfp+0x38>
   20754:	00205080 	call	20508 <__sinit.part.1>
   20758:	81000017 	ldw	r4,0(r16)
   2075c:	2480b804 	addi	r18,r4,736
   20760:	047fffc4 	movi	r17,-1
   20764:	91000117 	ldw	r4,4(r18)
   20768:	94000217 	ldw	r16,8(r18)
   2076c:	213fffc4 	addi	r4,r4,-1
   20770:	20000a16 	blt	r4,zero,2079c <__sfp+0x78>
   20774:	8080030f 	ldh	r2,12(r16)
   20778:	10000c26 	beq	r2,zero,207ac <__sfp+0x88>
   2077c:	80c01d04 	addi	r3,r16,116
   20780:	00000206 	br	2078c <__sfp+0x68>
   20784:	18bfe60f 	ldh	r2,-104(r3)
   20788:	10000826 	beq	r2,zero,207ac <__sfp+0x88>
   2078c:	213fffc4 	addi	r4,r4,-1
   20790:	1c3ffd04 	addi	r16,r3,-12
   20794:	18c01a04 	addi	r3,r3,104
   20798:	247ffa1e 	bne	r4,r17,20784 <__alt_data_end+0xfffe1384>
   2079c:	90800017 	ldw	r2,0(r18)
   207a0:	10001d26 	beq	r2,zero,20818 <__sfp+0xf4>
   207a4:	1025883a 	mov	r18,r2
   207a8:	003fee06 	br	20764 <__alt_data_end+0xfffe1364>
   207ac:	00bfffc4 	movi	r2,-1
   207b0:	8080038d 	sth	r2,14(r16)
   207b4:	00800044 	movi	r2,1
   207b8:	8080030d 	sth	r2,12(r16)
   207bc:	80001915 	stw	zero,100(r16)
   207c0:	80000015 	stw	zero,0(r16)
   207c4:	80000215 	stw	zero,8(r16)
   207c8:	80000115 	stw	zero,4(r16)
   207cc:	80000415 	stw	zero,16(r16)
   207d0:	80000515 	stw	zero,20(r16)
   207d4:	80000615 	stw	zero,24(r16)
   207d8:	01800204 	movi	r6,8
   207dc:	000b883a 	mov	r5,zero
   207e0:	81001704 	addi	r4,r16,92
   207e4:	0021a880 	call	21a88 <memset>
   207e8:	8005883a 	mov	r2,r16
   207ec:	80000c15 	stw	zero,48(r16)
   207f0:	80000d15 	stw	zero,52(r16)
   207f4:	80001115 	stw	zero,68(r16)
   207f8:	80001215 	stw	zero,72(r16)
   207fc:	dfc00417 	ldw	ra,16(sp)
   20800:	dcc00317 	ldw	r19,12(sp)
   20804:	dc800217 	ldw	r18,8(sp)
   20808:	dc400117 	ldw	r17,4(sp)
   2080c:	dc000017 	ldw	r16,0(sp)
   20810:	dec00504 	addi	sp,sp,20
   20814:	f800283a 	ret
   20818:	01400104 	movi	r5,4
   2081c:	9809883a 	mov	r4,r19
   20820:	00206ac0 	call	206ac <__sfmoreglue>
   20824:	90800015 	stw	r2,0(r18)
   20828:	103fde1e 	bne	r2,zero,207a4 <__alt_data_end+0xfffe13a4>
   2082c:	00800304 	movi	r2,12
   20830:	98800015 	stw	r2,0(r19)
   20834:	0005883a 	mov	r2,zero
   20838:	003ff006 	br	207fc <__alt_data_end+0xfffe13fc>

0002083c <_cleanup>:
   2083c:	008000f4 	movhi	r2,3
   20840:	10bd9004 	addi	r2,r2,-2496
   20844:	11000017 	ldw	r4,0(r2)
   20848:	014000b4 	movhi	r5,2
   2084c:	29492b04 	addi	r5,r5,9388
   20850:	0020e301 	jmpi	20e30 <_fwalk_reent>

00020854 <__sinit>:
   20854:	20800e17 	ldw	r2,56(r4)
   20858:	10000126 	beq	r2,zero,20860 <__sinit+0xc>
   2085c:	f800283a 	ret
   20860:	00205081 	jmpi	20508 <__sinit.part.1>

00020864 <__sfp_lock_acquire>:
   20864:	f800283a 	ret

00020868 <__sfp_lock_release>:
   20868:	f800283a 	ret

0002086c <__sinit_lock_acquire>:
   2086c:	f800283a 	ret

00020870 <__sinit_lock_release>:
   20870:	f800283a 	ret

00020874 <__fp_lock_all>:
   20874:	008000f4 	movhi	r2,3
   20878:	10bd9104 	addi	r2,r2,-2492
   2087c:	11000017 	ldw	r4,0(r2)
   20880:	014000b4 	movhi	r5,2
   20884:	2941a904 	addi	r5,r5,1700
   20888:	0020d6c1 	jmpi	20d6c <_fwalk>

0002088c <__fp_unlock_all>:
   2088c:	008000f4 	movhi	r2,3
   20890:	10bd9104 	addi	r2,r2,-2492
   20894:	11000017 	ldw	r4,0(r2)
   20898:	014000b4 	movhi	r5,2
   2089c:	29413d04 	addi	r5,r5,1268
   208a0:	0020d6c1 	jmpi	20d6c <_fwalk>

000208a4 <__sfvwrite_r>:
   208a4:	30800217 	ldw	r2,8(r6)
   208a8:	10006726 	beq	r2,zero,20a48 <__sfvwrite_r+0x1a4>
   208ac:	28c0030b 	ldhu	r3,12(r5)
   208b0:	defff404 	addi	sp,sp,-48
   208b4:	dd400715 	stw	r21,28(sp)
   208b8:	dd000615 	stw	r20,24(sp)
   208bc:	dc000215 	stw	r16,8(sp)
   208c0:	dfc00b15 	stw	ra,44(sp)
   208c4:	df000a15 	stw	fp,40(sp)
   208c8:	ddc00915 	stw	r23,36(sp)
   208cc:	dd800815 	stw	r22,32(sp)
   208d0:	dcc00515 	stw	r19,20(sp)
   208d4:	dc800415 	stw	r18,16(sp)
   208d8:	dc400315 	stw	r17,12(sp)
   208dc:	1880020c 	andi	r2,r3,8
   208e0:	2821883a 	mov	r16,r5
   208e4:	202b883a 	mov	r21,r4
   208e8:	3029883a 	mov	r20,r6
   208ec:	10002726 	beq	r2,zero,2098c <__sfvwrite_r+0xe8>
   208f0:	28800417 	ldw	r2,16(r5)
   208f4:	10002526 	beq	r2,zero,2098c <__sfvwrite_r+0xe8>
   208f8:	1880008c 	andi	r2,r3,2
   208fc:	a4400017 	ldw	r17,0(r20)
   20900:	10002a26 	beq	r2,zero,209ac <__sfvwrite_r+0x108>
   20904:	05a00034 	movhi	r22,32768
   20908:	0027883a 	mov	r19,zero
   2090c:	0025883a 	mov	r18,zero
   20910:	b5bf0004 	addi	r22,r22,-1024
   20914:	980d883a 	mov	r6,r19
   20918:	a809883a 	mov	r4,r21
   2091c:	90004626 	beq	r18,zero,20a38 <__sfvwrite_r+0x194>
   20920:	900f883a 	mov	r7,r18
   20924:	b480022e 	bgeu	r22,r18,20930 <__sfvwrite_r+0x8c>
   20928:	01e00034 	movhi	r7,32768
   2092c:	39ff0004 	addi	r7,r7,-1024
   20930:	80800917 	ldw	r2,36(r16)
   20934:	81400717 	ldw	r5,28(r16)
   20938:	103ee83a 	callr	r2
   2093c:	00805a0e 	bge	zero,r2,20aa8 <__sfvwrite_r+0x204>
   20940:	a0c00217 	ldw	r3,8(r20)
   20944:	98a7883a 	add	r19,r19,r2
   20948:	90a5c83a 	sub	r18,r18,r2
   2094c:	1885c83a 	sub	r2,r3,r2
   20950:	a0800215 	stw	r2,8(r20)
   20954:	103fef1e 	bne	r2,zero,20914 <__alt_data_end+0xfffe1514>
   20958:	0005883a 	mov	r2,zero
   2095c:	dfc00b17 	ldw	ra,44(sp)
   20960:	df000a17 	ldw	fp,40(sp)
   20964:	ddc00917 	ldw	r23,36(sp)
   20968:	dd800817 	ldw	r22,32(sp)
   2096c:	dd400717 	ldw	r21,28(sp)
   20970:	dd000617 	ldw	r20,24(sp)
   20974:	dcc00517 	ldw	r19,20(sp)
   20978:	dc800417 	ldw	r18,16(sp)
   2097c:	dc400317 	ldw	r17,12(sp)
   20980:	dc000217 	ldw	r16,8(sp)
   20984:	dec00c04 	addi	sp,sp,48
   20988:	f800283a 	ret
   2098c:	800b883a 	mov	r5,r16
   20990:	a809883a 	mov	r4,r21
   20994:	00223040 	call	22304 <__swsetup_r>
   20998:	1000ee1e 	bne	r2,zero,20d54 <__sfvwrite_r+0x4b0>
   2099c:	80c0030b 	ldhu	r3,12(r16)
   209a0:	a4400017 	ldw	r17,0(r20)
   209a4:	1880008c 	andi	r2,r3,2
   209a8:	103fd61e 	bne	r2,zero,20904 <__alt_data_end+0xfffe1504>
   209ac:	1880004c 	andi	r2,r3,1
   209b0:	1000421e 	bne	r2,zero,20abc <__sfvwrite_r+0x218>
   209b4:	0039883a 	mov	fp,zero
   209b8:	0025883a 	mov	r18,zero
   209bc:	90001a26 	beq	r18,zero,20a28 <__sfvwrite_r+0x184>
   209c0:	1880800c 	andi	r2,r3,512
   209c4:	84c00217 	ldw	r19,8(r16)
   209c8:	10002126 	beq	r2,zero,20a50 <__sfvwrite_r+0x1ac>
   209cc:	982f883a 	mov	r23,r19
   209d0:	94c09636 	bltu	r18,r19,20c2c <__sfvwrite_r+0x388>
   209d4:	1881200c 	andi	r2,r3,1152
   209d8:	1000a11e 	bne	r2,zero,20c60 <__sfvwrite_r+0x3bc>
   209dc:	81000017 	ldw	r4,0(r16)
   209e0:	b80d883a 	mov	r6,r23
   209e4:	e00b883a 	mov	r5,fp
   209e8:	002192c0 	call	2192c <memmove>
   209ec:	80c00217 	ldw	r3,8(r16)
   209f0:	81000017 	ldw	r4,0(r16)
   209f4:	9005883a 	mov	r2,r18
   209f8:	1ce7c83a 	sub	r19,r3,r19
   209fc:	25cf883a 	add	r7,r4,r23
   20a00:	84c00215 	stw	r19,8(r16)
   20a04:	81c00015 	stw	r7,0(r16)
   20a08:	a0c00217 	ldw	r3,8(r20)
   20a0c:	e0b9883a 	add	fp,fp,r2
   20a10:	90a5c83a 	sub	r18,r18,r2
   20a14:	18a7c83a 	sub	r19,r3,r2
   20a18:	a4c00215 	stw	r19,8(r20)
   20a1c:	983fce26 	beq	r19,zero,20958 <__alt_data_end+0xfffe1558>
   20a20:	80c0030b 	ldhu	r3,12(r16)
   20a24:	903fe61e 	bne	r18,zero,209c0 <__alt_data_end+0xfffe15c0>
   20a28:	8f000017 	ldw	fp,0(r17)
   20a2c:	8c800117 	ldw	r18,4(r17)
   20a30:	8c400204 	addi	r17,r17,8
   20a34:	003fe106 	br	209bc <__alt_data_end+0xfffe15bc>
   20a38:	8cc00017 	ldw	r19,0(r17)
   20a3c:	8c800117 	ldw	r18,4(r17)
   20a40:	8c400204 	addi	r17,r17,8
   20a44:	003fb306 	br	20914 <__alt_data_end+0xfffe1514>
   20a48:	0005883a 	mov	r2,zero
   20a4c:	f800283a 	ret
   20a50:	81000017 	ldw	r4,0(r16)
   20a54:	80800417 	ldw	r2,16(r16)
   20a58:	11005a36 	bltu	r2,r4,20bc4 <__sfvwrite_r+0x320>
   20a5c:	85c00517 	ldw	r23,20(r16)
   20a60:	95c05836 	bltu	r18,r23,20bc4 <__sfvwrite_r+0x320>
   20a64:	00a00034 	movhi	r2,32768
   20a68:	10bfffc4 	addi	r2,r2,-1
   20a6c:	9009883a 	mov	r4,r18
   20a70:	1480012e 	bgeu	r2,r18,20a78 <__sfvwrite_r+0x1d4>
   20a74:	1009883a 	mov	r4,r2
   20a78:	b80b883a 	mov	r5,r23
   20a7c:	0022fb80 	call	22fb8 <__divsi3>
   20a80:	b80b883a 	mov	r5,r23
   20a84:	1009883a 	mov	r4,r2
   20a88:	002316c0 	call	2316c <__mulsi3>
   20a8c:	81400717 	ldw	r5,28(r16)
   20a90:	80c00917 	ldw	r3,36(r16)
   20a94:	100f883a 	mov	r7,r2
   20a98:	e00d883a 	mov	r6,fp
   20a9c:	a809883a 	mov	r4,r21
   20aa0:	183ee83a 	callr	r3
   20aa4:	00bfd816 	blt	zero,r2,20a08 <__alt_data_end+0xfffe1608>
   20aa8:	8080030b 	ldhu	r2,12(r16)
   20aac:	10801014 	ori	r2,r2,64
   20ab0:	8080030d 	sth	r2,12(r16)
   20ab4:	00bfffc4 	movi	r2,-1
   20ab8:	003fa806 	br	2095c <__alt_data_end+0xfffe155c>
   20abc:	0027883a 	mov	r19,zero
   20ac0:	0011883a 	mov	r8,zero
   20ac4:	0039883a 	mov	fp,zero
   20ac8:	0025883a 	mov	r18,zero
   20acc:	90001f26 	beq	r18,zero,20b4c <__sfvwrite_r+0x2a8>
   20ad0:	40005a26 	beq	r8,zero,20c3c <__sfvwrite_r+0x398>
   20ad4:	982d883a 	mov	r22,r19
   20ad8:	94c0012e 	bgeu	r18,r19,20ae0 <__sfvwrite_r+0x23c>
   20adc:	902d883a 	mov	r22,r18
   20ae0:	81000017 	ldw	r4,0(r16)
   20ae4:	80800417 	ldw	r2,16(r16)
   20ae8:	b02f883a 	mov	r23,r22
   20aec:	81c00517 	ldw	r7,20(r16)
   20af0:	1100032e 	bgeu	r2,r4,20b00 <__sfvwrite_r+0x25c>
   20af4:	80c00217 	ldw	r3,8(r16)
   20af8:	38c7883a 	add	r3,r7,r3
   20afc:	1d801816 	blt	r3,r22,20b60 <__sfvwrite_r+0x2bc>
   20b00:	b1c03e16 	blt	r22,r7,20bfc <__sfvwrite_r+0x358>
   20b04:	80800917 	ldw	r2,36(r16)
   20b08:	81400717 	ldw	r5,28(r16)
   20b0c:	e00d883a 	mov	r6,fp
   20b10:	da000115 	stw	r8,4(sp)
   20b14:	a809883a 	mov	r4,r21
   20b18:	103ee83a 	callr	r2
   20b1c:	102f883a 	mov	r23,r2
   20b20:	da000117 	ldw	r8,4(sp)
   20b24:	00bfe00e 	bge	zero,r2,20aa8 <__alt_data_end+0xfffe16a8>
   20b28:	9de7c83a 	sub	r19,r19,r23
   20b2c:	98001f26 	beq	r19,zero,20bac <__sfvwrite_r+0x308>
   20b30:	a0800217 	ldw	r2,8(r20)
   20b34:	e5f9883a 	add	fp,fp,r23
   20b38:	95e5c83a 	sub	r18,r18,r23
   20b3c:	15efc83a 	sub	r23,r2,r23
   20b40:	a5c00215 	stw	r23,8(r20)
   20b44:	b83f8426 	beq	r23,zero,20958 <__alt_data_end+0xfffe1558>
   20b48:	903fe11e 	bne	r18,zero,20ad0 <__alt_data_end+0xfffe16d0>
   20b4c:	8f000017 	ldw	fp,0(r17)
   20b50:	8c800117 	ldw	r18,4(r17)
   20b54:	0011883a 	mov	r8,zero
   20b58:	8c400204 	addi	r17,r17,8
   20b5c:	003fdb06 	br	20acc <__alt_data_end+0xfffe16cc>
   20b60:	180d883a 	mov	r6,r3
   20b64:	e00b883a 	mov	r5,fp
   20b68:	da000115 	stw	r8,4(sp)
   20b6c:	d8c00015 	stw	r3,0(sp)
   20b70:	002192c0 	call	2192c <memmove>
   20b74:	d8c00017 	ldw	r3,0(sp)
   20b78:	80800017 	ldw	r2,0(r16)
   20b7c:	800b883a 	mov	r5,r16
   20b80:	a809883a 	mov	r4,r21
   20b84:	10c5883a 	add	r2,r2,r3
   20b88:	80800015 	stw	r2,0(r16)
   20b8c:	d8c00015 	stw	r3,0(sp)
   20b90:	00227cc0 	call	227cc <_fflush_r>
   20b94:	d8c00017 	ldw	r3,0(sp)
   20b98:	da000117 	ldw	r8,4(sp)
   20b9c:	103fc21e 	bne	r2,zero,20aa8 <__alt_data_end+0xfffe16a8>
   20ba0:	182f883a 	mov	r23,r3
   20ba4:	9de7c83a 	sub	r19,r19,r23
   20ba8:	983fe11e 	bne	r19,zero,20b30 <__alt_data_end+0xfffe1730>
   20bac:	800b883a 	mov	r5,r16
   20bb0:	a809883a 	mov	r4,r21
   20bb4:	00227cc0 	call	227cc <_fflush_r>
   20bb8:	103fbb1e 	bne	r2,zero,20aa8 <__alt_data_end+0xfffe16a8>
   20bbc:	0011883a 	mov	r8,zero
   20bc0:	003fdb06 	br	20b30 <__alt_data_end+0xfffe1730>
   20bc4:	94c0012e 	bgeu	r18,r19,20bcc <__sfvwrite_r+0x328>
   20bc8:	9027883a 	mov	r19,r18
   20bcc:	980d883a 	mov	r6,r19
   20bd0:	e00b883a 	mov	r5,fp
   20bd4:	002192c0 	call	2192c <memmove>
   20bd8:	80800217 	ldw	r2,8(r16)
   20bdc:	80c00017 	ldw	r3,0(r16)
   20be0:	14c5c83a 	sub	r2,r2,r19
   20be4:	1cc7883a 	add	r3,r3,r19
   20be8:	80800215 	stw	r2,8(r16)
   20bec:	80c00015 	stw	r3,0(r16)
   20bf0:	10004326 	beq	r2,zero,20d00 <__sfvwrite_r+0x45c>
   20bf4:	9805883a 	mov	r2,r19
   20bf8:	003f8306 	br	20a08 <__alt_data_end+0xfffe1608>
   20bfc:	b00d883a 	mov	r6,r22
   20c00:	e00b883a 	mov	r5,fp
   20c04:	da000115 	stw	r8,4(sp)
   20c08:	002192c0 	call	2192c <memmove>
   20c0c:	80800217 	ldw	r2,8(r16)
   20c10:	80c00017 	ldw	r3,0(r16)
   20c14:	da000117 	ldw	r8,4(sp)
   20c18:	1585c83a 	sub	r2,r2,r22
   20c1c:	1dad883a 	add	r22,r3,r22
   20c20:	80800215 	stw	r2,8(r16)
   20c24:	85800015 	stw	r22,0(r16)
   20c28:	003fbf06 	br	20b28 <__alt_data_end+0xfffe1728>
   20c2c:	81000017 	ldw	r4,0(r16)
   20c30:	9027883a 	mov	r19,r18
   20c34:	902f883a 	mov	r23,r18
   20c38:	003f6906 	br	209e0 <__alt_data_end+0xfffe15e0>
   20c3c:	900d883a 	mov	r6,r18
   20c40:	01400284 	movi	r5,10
   20c44:	e009883a 	mov	r4,fp
   20c48:	00217000 	call	21700 <memchr>
   20c4c:	10003e26 	beq	r2,zero,20d48 <__sfvwrite_r+0x4a4>
   20c50:	10800044 	addi	r2,r2,1
   20c54:	1727c83a 	sub	r19,r2,fp
   20c58:	02000044 	movi	r8,1
   20c5c:	003f9d06 	br	20ad4 <__alt_data_end+0xfffe16d4>
   20c60:	80800517 	ldw	r2,20(r16)
   20c64:	81400417 	ldw	r5,16(r16)
   20c68:	81c00017 	ldw	r7,0(r16)
   20c6c:	10a7883a 	add	r19,r2,r2
   20c70:	9885883a 	add	r2,r19,r2
   20c74:	1026d7fa 	srli	r19,r2,31
   20c78:	396dc83a 	sub	r22,r7,r5
   20c7c:	b1000044 	addi	r4,r22,1
   20c80:	9885883a 	add	r2,r19,r2
   20c84:	1027d07a 	srai	r19,r2,1
   20c88:	2485883a 	add	r2,r4,r18
   20c8c:	980d883a 	mov	r6,r19
   20c90:	9880022e 	bgeu	r19,r2,20c9c <__sfvwrite_r+0x3f8>
   20c94:	1027883a 	mov	r19,r2
   20c98:	100d883a 	mov	r6,r2
   20c9c:	18c1000c 	andi	r3,r3,1024
   20ca0:	18001c26 	beq	r3,zero,20d14 <__sfvwrite_r+0x470>
   20ca4:	300b883a 	mov	r5,r6
   20ca8:	a809883a 	mov	r4,r21
   20cac:	0020ef40 	call	20ef4 <_malloc_r>
   20cb0:	102f883a 	mov	r23,r2
   20cb4:	10002926 	beq	r2,zero,20d5c <__sfvwrite_r+0x4b8>
   20cb8:	81400417 	ldw	r5,16(r16)
   20cbc:	b00d883a 	mov	r6,r22
   20cc0:	1009883a 	mov	r4,r2
   20cc4:	00217e40 	call	217e4 <memcpy>
   20cc8:	8080030b 	ldhu	r2,12(r16)
   20ccc:	00fedfc4 	movi	r3,-1153
   20cd0:	10c4703a 	and	r2,r2,r3
   20cd4:	10802014 	ori	r2,r2,128
   20cd8:	8080030d 	sth	r2,12(r16)
   20cdc:	bd89883a 	add	r4,r23,r22
   20ce0:	9d8fc83a 	sub	r7,r19,r22
   20ce4:	85c00415 	stw	r23,16(r16)
   20ce8:	84c00515 	stw	r19,20(r16)
   20cec:	81000015 	stw	r4,0(r16)
   20cf0:	9027883a 	mov	r19,r18
   20cf4:	81c00215 	stw	r7,8(r16)
   20cf8:	902f883a 	mov	r23,r18
   20cfc:	003f3806 	br	209e0 <__alt_data_end+0xfffe15e0>
   20d00:	800b883a 	mov	r5,r16
   20d04:	a809883a 	mov	r4,r21
   20d08:	00227cc0 	call	227cc <_fflush_r>
   20d0c:	103fb926 	beq	r2,zero,20bf4 <__alt_data_end+0xfffe17f4>
   20d10:	003f6506 	br	20aa8 <__alt_data_end+0xfffe16a8>
   20d14:	a809883a 	mov	r4,r21
   20d18:	0021bb00 	call	21bb0 <_realloc_r>
   20d1c:	102f883a 	mov	r23,r2
   20d20:	103fee1e 	bne	r2,zero,20cdc <__alt_data_end+0xfffe18dc>
   20d24:	81400417 	ldw	r5,16(r16)
   20d28:	a809883a 	mov	r4,r21
   20d2c:	002297c0 	call	2297c <_free_r>
   20d30:	8080030b 	ldhu	r2,12(r16)
   20d34:	00ffdfc4 	movi	r3,-129
   20d38:	1884703a 	and	r2,r3,r2
   20d3c:	00c00304 	movi	r3,12
   20d40:	a8c00015 	stw	r3,0(r21)
   20d44:	003f5906 	br	20aac <__alt_data_end+0xfffe16ac>
   20d48:	94c00044 	addi	r19,r18,1
   20d4c:	02000044 	movi	r8,1
   20d50:	003f6006 	br	20ad4 <__alt_data_end+0xfffe16d4>
   20d54:	00bfffc4 	movi	r2,-1
   20d58:	003f0006 	br	2095c <__alt_data_end+0xfffe155c>
   20d5c:	00800304 	movi	r2,12
   20d60:	a8800015 	stw	r2,0(r21)
   20d64:	8080030b 	ldhu	r2,12(r16)
   20d68:	003f5006 	br	20aac <__alt_data_end+0xfffe16ac>

00020d6c <_fwalk>:
   20d6c:	defff704 	addi	sp,sp,-36
   20d70:	dd000415 	stw	r20,16(sp)
   20d74:	dfc00815 	stw	ra,32(sp)
   20d78:	ddc00715 	stw	r23,28(sp)
   20d7c:	dd800615 	stw	r22,24(sp)
   20d80:	dd400515 	stw	r21,20(sp)
   20d84:	dcc00315 	stw	r19,12(sp)
   20d88:	dc800215 	stw	r18,8(sp)
   20d8c:	dc400115 	stw	r17,4(sp)
   20d90:	dc000015 	stw	r16,0(sp)
   20d94:	2500b804 	addi	r20,r4,736
   20d98:	a0002326 	beq	r20,zero,20e28 <_fwalk+0xbc>
   20d9c:	282b883a 	mov	r21,r5
   20da0:	002f883a 	mov	r23,zero
   20da4:	05800044 	movi	r22,1
   20da8:	04ffffc4 	movi	r19,-1
   20dac:	a4400117 	ldw	r17,4(r20)
   20db0:	a4800217 	ldw	r18,8(r20)
   20db4:	8c7fffc4 	addi	r17,r17,-1
   20db8:	88000d16 	blt	r17,zero,20df0 <_fwalk+0x84>
   20dbc:	94000304 	addi	r16,r18,12
   20dc0:	94800384 	addi	r18,r18,14
   20dc4:	8080000b 	ldhu	r2,0(r16)
   20dc8:	8c7fffc4 	addi	r17,r17,-1
   20dcc:	813ffd04 	addi	r4,r16,-12
   20dd0:	b080042e 	bgeu	r22,r2,20de4 <_fwalk+0x78>
   20dd4:	9080000f 	ldh	r2,0(r18)
   20dd8:	14c00226 	beq	r2,r19,20de4 <_fwalk+0x78>
   20ddc:	a83ee83a 	callr	r21
   20de0:	b8aeb03a 	or	r23,r23,r2
   20de4:	84001a04 	addi	r16,r16,104
   20de8:	94801a04 	addi	r18,r18,104
   20dec:	8cfff51e 	bne	r17,r19,20dc4 <__alt_data_end+0xfffe19c4>
   20df0:	a5000017 	ldw	r20,0(r20)
   20df4:	a03fed1e 	bne	r20,zero,20dac <__alt_data_end+0xfffe19ac>
   20df8:	b805883a 	mov	r2,r23
   20dfc:	dfc00817 	ldw	ra,32(sp)
   20e00:	ddc00717 	ldw	r23,28(sp)
   20e04:	dd800617 	ldw	r22,24(sp)
   20e08:	dd400517 	ldw	r21,20(sp)
   20e0c:	dd000417 	ldw	r20,16(sp)
   20e10:	dcc00317 	ldw	r19,12(sp)
   20e14:	dc800217 	ldw	r18,8(sp)
   20e18:	dc400117 	ldw	r17,4(sp)
   20e1c:	dc000017 	ldw	r16,0(sp)
   20e20:	dec00904 	addi	sp,sp,36
   20e24:	f800283a 	ret
   20e28:	002f883a 	mov	r23,zero
   20e2c:	003ff206 	br	20df8 <__alt_data_end+0xfffe19f8>

00020e30 <_fwalk_reent>:
   20e30:	defff704 	addi	sp,sp,-36
   20e34:	dd000415 	stw	r20,16(sp)
   20e38:	dfc00815 	stw	ra,32(sp)
   20e3c:	ddc00715 	stw	r23,28(sp)
   20e40:	dd800615 	stw	r22,24(sp)
   20e44:	dd400515 	stw	r21,20(sp)
   20e48:	dcc00315 	stw	r19,12(sp)
   20e4c:	dc800215 	stw	r18,8(sp)
   20e50:	dc400115 	stw	r17,4(sp)
   20e54:	dc000015 	stw	r16,0(sp)
   20e58:	2500b804 	addi	r20,r4,736
   20e5c:	a0002326 	beq	r20,zero,20eec <_fwalk_reent+0xbc>
   20e60:	282b883a 	mov	r21,r5
   20e64:	2027883a 	mov	r19,r4
   20e68:	002f883a 	mov	r23,zero
   20e6c:	05800044 	movi	r22,1
   20e70:	04bfffc4 	movi	r18,-1
   20e74:	a4400117 	ldw	r17,4(r20)
   20e78:	a4000217 	ldw	r16,8(r20)
   20e7c:	8c7fffc4 	addi	r17,r17,-1
   20e80:	88000c16 	blt	r17,zero,20eb4 <_fwalk_reent+0x84>
   20e84:	84000304 	addi	r16,r16,12
   20e88:	8080000b 	ldhu	r2,0(r16)
   20e8c:	8c7fffc4 	addi	r17,r17,-1
   20e90:	817ffd04 	addi	r5,r16,-12
   20e94:	b080052e 	bgeu	r22,r2,20eac <_fwalk_reent+0x7c>
   20e98:	8080008f 	ldh	r2,2(r16)
   20e9c:	9809883a 	mov	r4,r19
   20ea0:	14800226 	beq	r2,r18,20eac <_fwalk_reent+0x7c>
   20ea4:	a83ee83a 	callr	r21
   20ea8:	b8aeb03a 	or	r23,r23,r2
   20eac:	84001a04 	addi	r16,r16,104
   20eb0:	8cbff51e 	bne	r17,r18,20e88 <__alt_data_end+0xfffe1a88>
   20eb4:	a5000017 	ldw	r20,0(r20)
   20eb8:	a03fee1e 	bne	r20,zero,20e74 <__alt_data_end+0xfffe1a74>
   20ebc:	b805883a 	mov	r2,r23
   20ec0:	dfc00817 	ldw	ra,32(sp)
   20ec4:	ddc00717 	ldw	r23,28(sp)
   20ec8:	dd800617 	ldw	r22,24(sp)
   20ecc:	dd400517 	ldw	r21,20(sp)
   20ed0:	dd000417 	ldw	r20,16(sp)
   20ed4:	dcc00317 	ldw	r19,12(sp)
   20ed8:	dc800217 	ldw	r18,8(sp)
   20edc:	dc400117 	ldw	r17,4(sp)
   20ee0:	dc000017 	ldw	r16,0(sp)
   20ee4:	dec00904 	addi	sp,sp,36
   20ee8:	f800283a 	ret
   20eec:	002f883a 	mov	r23,zero
   20ef0:	003ff206 	br	20ebc <__alt_data_end+0xfffe1abc>

00020ef4 <_malloc_r>:
   20ef4:	defff504 	addi	sp,sp,-44
   20ef8:	dc800315 	stw	r18,12(sp)
   20efc:	dfc00a15 	stw	ra,40(sp)
   20f00:	df000915 	stw	fp,36(sp)
   20f04:	ddc00815 	stw	r23,32(sp)
   20f08:	dd800715 	stw	r22,28(sp)
   20f0c:	dd400615 	stw	r21,24(sp)
   20f10:	dd000515 	stw	r20,20(sp)
   20f14:	dcc00415 	stw	r19,16(sp)
   20f18:	dc400215 	stw	r17,8(sp)
   20f1c:	dc000115 	stw	r16,4(sp)
   20f20:	288002c4 	addi	r2,r5,11
   20f24:	00c00584 	movi	r3,22
   20f28:	2025883a 	mov	r18,r4
   20f2c:	18807f2e 	bgeu	r3,r2,2112c <_malloc_r+0x238>
   20f30:	047ffe04 	movi	r17,-8
   20f34:	1462703a 	and	r17,r2,r17
   20f38:	8800a316 	blt	r17,zero,211c8 <_malloc_r+0x2d4>
   20f3c:	8940a236 	bltu	r17,r5,211c8 <_malloc_r+0x2d4>
   20f40:	0023c440 	call	23c44 <__malloc_lock>
   20f44:	00807dc4 	movi	r2,503
   20f48:	1441e92e 	bgeu	r2,r17,216f0 <_malloc_r+0x7fc>
   20f4c:	8804d27a 	srli	r2,r17,9
   20f50:	1000a126 	beq	r2,zero,211d8 <_malloc_r+0x2e4>
   20f54:	00c00104 	movi	r3,4
   20f58:	18811e36 	bltu	r3,r2,213d4 <_malloc_r+0x4e0>
   20f5c:	8804d1ba 	srli	r2,r17,6
   20f60:	12000e44 	addi	r8,r2,57
   20f64:	11c00e04 	addi	r7,r2,56
   20f68:	4209883a 	add	r4,r8,r8
   20f6c:	04c000f4 	movhi	r19,3
   20f70:	2109883a 	add	r4,r4,r4
   20f74:	9cf80904 	addi	r19,r19,-8156
   20f78:	2109883a 	add	r4,r4,r4
   20f7c:	9909883a 	add	r4,r19,r4
   20f80:	24000117 	ldw	r16,4(r4)
   20f84:	213ffe04 	addi	r4,r4,-8
   20f88:	24009726 	beq	r4,r16,211e8 <_malloc_r+0x2f4>
   20f8c:	80800117 	ldw	r2,4(r16)
   20f90:	01bfff04 	movi	r6,-4
   20f94:	014003c4 	movi	r5,15
   20f98:	1184703a 	and	r2,r2,r6
   20f9c:	1447c83a 	sub	r3,r2,r17
   20fa0:	28c00716 	blt	r5,r3,20fc0 <_malloc_r+0xcc>
   20fa4:	1800920e 	bge	r3,zero,211f0 <_malloc_r+0x2fc>
   20fa8:	84000317 	ldw	r16,12(r16)
   20fac:	24008e26 	beq	r4,r16,211e8 <_malloc_r+0x2f4>
   20fb0:	80800117 	ldw	r2,4(r16)
   20fb4:	1184703a 	and	r2,r2,r6
   20fb8:	1447c83a 	sub	r3,r2,r17
   20fbc:	28fff90e 	bge	r5,r3,20fa4 <__alt_data_end+0xfffe1ba4>
   20fc0:	3809883a 	mov	r4,r7
   20fc4:	018000f4 	movhi	r6,3
   20fc8:	9c000417 	ldw	r16,16(r19)
   20fcc:	31b80904 	addi	r6,r6,-8156
   20fd0:	32000204 	addi	r8,r6,8
   20fd4:	82013426 	beq	r16,r8,214a8 <_malloc_r+0x5b4>
   20fd8:	80c00117 	ldw	r3,4(r16)
   20fdc:	00bfff04 	movi	r2,-4
   20fe0:	188e703a 	and	r7,r3,r2
   20fe4:	3c45c83a 	sub	r2,r7,r17
   20fe8:	00c003c4 	movi	r3,15
   20fec:	18811f16 	blt	r3,r2,2146c <_malloc_r+0x578>
   20ff0:	32000515 	stw	r8,20(r6)
   20ff4:	32000415 	stw	r8,16(r6)
   20ff8:	10007f0e 	bge	r2,zero,211f8 <_malloc_r+0x304>
   20ffc:	00807fc4 	movi	r2,511
   21000:	11c0fd36 	bltu	r2,r7,213f8 <_malloc_r+0x504>
   21004:	3806d0fa 	srli	r3,r7,3
   21008:	01c00044 	movi	r7,1
   2100c:	30800117 	ldw	r2,4(r6)
   21010:	19400044 	addi	r5,r3,1
   21014:	294b883a 	add	r5,r5,r5
   21018:	1807d0ba 	srai	r3,r3,2
   2101c:	294b883a 	add	r5,r5,r5
   21020:	294b883a 	add	r5,r5,r5
   21024:	298b883a 	add	r5,r5,r6
   21028:	38c6983a 	sll	r3,r7,r3
   2102c:	29c00017 	ldw	r7,0(r5)
   21030:	2a7ffe04 	addi	r9,r5,-8
   21034:	1886b03a 	or	r3,r3,r2
   21038:	82400315 	stw	r9,12(r16)
   2103c:	81c00215 	stw	r7,8(r16)
   21040:	30c00115 	stw	r3,4(r6)
   21044:	2c000015 	stw	r16,0(r5)
   21048:	3c000315 	stw	r16,12(r7)
   2104c:	2005d0ba 	srai	r2,r4,2
   21050:	01400044 	movi	r5,1
   21054:	288a983a 	sll	r5,r5,r2
   21058:	19406f36 	bltu	r3,r5,21218 <_malloc_r+0x324>
   2105c:	28c4703a 	and	r2,r5,r3
   21060:	10000a1e 	bne	r2,zero,2108c <_malloc_r+0x198>
   21064:	00bfff04 	movi	r2,-4
   21068:	294b883a 	add	r5,r5,r5
   2106c:	2088703a 	and	r4,r4,r2
   21070:	28c4703a 	and	r2,r5,r3
   21074:	21000104 	addi	r4,r4,4
   21078:	1000041e 	bne	r2,zero,2108c <_malloc_r+0x198>
   2107c:	294b883a 	add	r5,r5,r5
   21080:	28c4703a 	and	r2,r5,r3
   21084:	21000104 	addi	r4,r4,4
   21088:	103ffc26 	beq	r2,zero,2107c <__alt_data_end+0xfffe1c7c>
   2108c:	02bfff04 	movi	r10,-4
   21090:	024003c4 	movi	r9,15
   21094:	21800044 	addi	r6,r4,1
   21098:	318d883a 	add	r6,r6,r6
   2109c:	318d883a 	add	r6,r6,r6
   210a0:	318d883a 	add	r6,r6,r6
   210a4:	998d883a 	add	r6,r19,r6
   210a8:	333ffe04 	addi	r12,r6,-8
   210ac:	2017883a 	mov	r11,r4
   210b0:	31800104 	addi	r6,r6,4
   210b4:	34000017 	ldw	r16,0(r6)
   210b8:	31fffd04 	addi	r7,r6,-12
   210bc:	81c0041e 	bne	r16,r7,210d0 <_malloc_r+0x1dc>
   210c0:	0000fb06 	br	214b0 <_malloc_r+0x5bc>
   210c4:	1801030e 	bge	r3,zero,214d4 <_malloc_r+0x5e0>
   210c8:	84000317 	ldw	r16,12(r16)
   210cc:	81c0f826 	beq	r16,r7,214b0 <_malloc_r+0x5bc>
   210d0:	80800117 	ldw	r2,4(r16)
   210d4:	1284703a 	and	r2,r2,r10
   210d8:	1447c83a 	sub	r3,r2,r17
   210dc:	48fff90e 	bge	r9,r3,210c4 <__alt_data_end+0xfffe1cc4>
   210e0:	80800317 	ldw	r2,12(r16)
   210e4:	81000217 	ldw	r4,8(r16)
   210e8:	89400054 	ori	r5,r17,1
   210ec:	81400115 	stw	r5,4(r16)
   210f0:	20800315 	stw	r2,12(r4)
   210f4:	11000215 	stw	r4,8(r2)
   210f8:	8463883a 	add	r17,r16,r17
   210fc:	9c400515 	stw	r17,20(r19)
   21100:	9c400415 	stw	r17,16(r19)
   21104:	18800054 	ori	r2,r3,1
   21108:	88800115 	stw	r2,4(r17)
   2110c:	8a000315 	stw	r8,12(r17)
   21110:	8a000215 	stw	r8,8(r17)
   21114:	88e3883a 	add	r17,r17,r3
   21118:	88c00015 	stw	r3,0(r17)
   2111c:	9009883a 	mov	r4,r18
   21120:	0023d640 	call	23d64 <__malloc_unlock>
   21124:	80800204 	addi	r2,r16,8
   21128:	00001b06 	br	21198 <_malloc_r+0x2a4>
   2112c:	04400404 	movi	r17,16
   21130:	89402536 	bltu	r17,r5,211c8 <_malloc_r+0x2d4>
   21134:	0023c440 	call	23c44 <__malloc_lock>
   21138:	00800184 	movi	r2,6
   2113c:	01000084 	movi	r4,2
   21140:	04c000f4 	movhi	r19,3
   21144:	1085883a 	add	r2,r2,r2
   21148:	9cf80904 	addi	r19,r19,-8156
   2114c:	1085883a 	add	r2,r2,r2
   21150:	9885883a 	add	r2,r19,r2
   21154:	14000117 	ldw	r16,4(r2)
   21158:	10fffe04 	addi	r3,r2,-8
   2115c:	80c0d926 	beq	r16,r3,214c4 <_malloc_r+0x5d0>
   21160:	80c00117 	ldw	r3,4(r16)
   21164:	81000317 	ldw	r4,12(r16)
   21168:	00bfff04 	movi	r2,-4
   2116c:	1884703a 	and	r2,r3,r2
   21170:	81400217 	ldw	r5,8(r16)
   21174:	8085883a 	add	r2,r16,r2
   21178:	10c00117 	ldw	r3,4(r2)
   2117c:	29000315 	stw	r4,12(r5)
   21180:	21400215 	stw	r5,8(r4)
   21184:	18c00054 	ori	r3,r3,1
   21188:	10c00115 	stw	r3,4(r2)
   2118c:	9009883a 	mov	r4,r18
   21190:	0023d640 	call	23d64 <__malloc_unlock>
   21194:	80800204 	addi	r2,r16,8
   21198:	dfc00a17 	ldw	ra,40(sp)
   2119c:	df000917 	ldw	fp,36(sp)
   211a0:	ddc00817 	ldw	r23,32(sp)
   211a4:	dd800717 	ldw	r22,28(sp)
   211a8:	dd400617 	ldw	r21,24(sp)
   211ac:	dd000517 	ldw	r20,20(sp)
   211b0:	dcc00417 	ldw	r19,16(sp)
   211b4:	dc800317 	ldw	r18,12(sp)
   211b8:	dc400217 	ldw	r17,8(sp)
   211bc:	dc000117 	ldw	r16,4(sp)
   211c0:	dec00b04 	addi	sp,sp,44
   211c4:	f800283a 	ret
   211c8:	00800304 	movi	r2,12
   211cc:	90800015 	stw	r2,0(r18)
   211d0:	0005883a 	mov	r2,zero
   211d4:	003ff006 	br	21198 <__alt_data_end+0xfffe1d98>
   211d8:	01002004 	movi	r4,128
   211dc:	02001004 	movi	r8,64
   211e0:	01c00fc4 	movi	r7,63
   211e4:	003f6106 	br	20f6c <__alt_data_end+0xfffe1b6c>
   211e8:	4009883a 	mov	r4,r8
   211ec:	003f7506 	br	20fc4 <__alt_data_end+0xfffe1bc4>
   211f0:	81000317 	ldw	r4,12(r16)
   211f4:	003fde06 	br	21170 <__alt_data_end+0xfffe1d70>
   211f8:	81c5883a 	add	r2,r16,r7
   211fc:	11400117 	ldw	r5,4(r2)
   21200:	9009883a 	mov	r4,r18
   21204:	29400054 	ori	r5,r5,1
   21208:	11400115 	stw	r5,4(r2)
   2120c:	0023d640 	call	23d64 <__malloc_unlock>
   21210:	80800204 	addi	r2,r16,8
   21214:	003fe006 	br	21198 <__alt_data_end+0xfffe1d98>
   21218:	9c000217 	ldw	r16,8(r19)
   2121c:	00bfff04 	movi	r2,-4
   21220:	85800117 	ldw	r22,4(r16)
   21224:	b0ac703a 	and	r22,r22,r2
   21228:	b4400336 	bltu	r22,r17,21238 <_malloc_r+0x344>
   2122c:	b445c83a 	sub	r2,r22,r17
   21230:	00c003c4 	movi	r3,15
   21234:	18805d16 	blt	r3,r2,213ac <_malloc_r+0x4b8>
   21238:	05c000f4 	movhi	r23,3
   2123c:	008000f4 	movhi	r2,3
   21240:	10847c04 	addi	r2,r2,4592
   21244:	bdfd9204 	addi	r23,r23,-2488
   21248:	15400017 	ldw	r21,0(r2)
   2124c:	b8c00017 	ldw	r3,0(r23)
   21250:	00bfffc4 	movi	r2,-1
   21254:	858d883a 	add	r6,r16,r22
   21258:	8d6b883a 	add	r21,r17,r21
   2125c:	1880ea26 	beq	r3,r2,21608 <_malloc_r+0x714>
   21260:	ad4403c4 	addi	r21,r21,4111
   21264:	00bc0004 	movi	r2,-4096
   21268:	a8aa703a 	and	r21,r21,r2
   2126c:	a80b883a 	mov	r5,r21
   21270:	9009883a 	mov	r4,r18
   21274:	d9800015 	stw	r6,0(sp)
   21278:	00221140 	call	22114 <_sbrk_r>
   2127c:	1029883a 	mov	r20,r2
   21280:	00bfffc4 	movi	r2,-1
   21284:	d9800017 	ldw	r6,0(sp)
   21288:	a080e826 	beq	r20,r2,2162c <_malloc_r+0x738>
   2128c:	a180a636 	bltu	r20,r6,21528 <_malloc_r+0x634>
   21290:	070000f4 	movhi	fp,3
   21294:	e7049e04 	addi	fp,fp,4728
   21298:	e0800017 	ldw	r2,0(fp)
   2129c:	a887883a 	add	r3,r21,r2
   212a0:	e0c00015 	stw	r3,0(fp)
   212a4:	3500e626 	beq	r6,r20,21640 <_malloc_r+0x74c>
   212a8:	b9000017 	ldw	r4,0(r23)
   212ac:	00bfffc4 	movi	r2,-1
   212b0:	2080ee26 	beq	r4,r2,2166c <_malloc_r+0x778>
   212b4:	a185c83a 	sub	r2,r20,r6
   212b8:	10c5883a 	add	r2,r2,r3
   212bc:	e0800015 	stw	r2,0(fp)
   212c0:	a0c001cc 	andi	r3,r20,7
   212c4:	1800bc26 	beq	r3,zero,215b8 <_malloc_r+0x6c4>
   212c8:	a0e9c83a 	sub	r20,r20,r3
   212cc:	00840204 	movi	r2,4104
   212d0:	a5000204 	addi	r20,r20,8
   212d4:	10c7c83a 	sub	r3,r2,r3
   212d8:	a545883a 	add	r2,r20,r21
   212dc:	1083ffcc 	andi	r2,r2,4095
   212e0:	18abc83a 	sub	r21,r3,r2
   212e4:	a80b883a 	mov	r5,r21
   212e8:	9009883a 	mov	r4,r18
   212ec:	00221140 	call	22114 <_sbrk_r>
   212f0:	00ffffc4 	movi	r3,-1
   212f4:	10c0e126 	beq	r2,r3,2167c <_malloc_r+0x788>
   212f8:	1505c83a 	sub	r2,r2,r20
   212fc:	1545883a 	add	r2,r2,r21
   21300:	10800054 	ori	r2,r2,1
   21304:	e0c00017 	ldw	r3,0(fp)
   21308:	9d000215 	stw	r20,8(r19)
   2130c:	a0800115 	stw	r2,4(r20)
   21310:	a8c7883a 	add	r3,r21,r3
   21314:	e0c00015 	stw	r3,0(fp)
   21318:	84c00e26 	beq	r16,r19,21354 <_malloc_r+0x460>
   2131c:	018003c4 	movi	r6,15
   21320:	3580a72e 	bgeu	r6,r22,215c0 <_malloc_r+0x6cc>
   21324:	81400117 	ldw	r5,4(r16)
   21328:	013ffe04 	movi	r4,-8
   2132c:	b0bffd04 	addi	r2,r22,-12
   21330:	1104703a 	and	r2,r2,r4
   21334:	2900004c 	andi	r4,r5,1
   21338:	2088b03a 	or	r4,r4,r2
   2133c:	81000115 	stw	r4,4(r16)
   21340:	01400144 	movi	r5,5
   21344:	8089883a 	add	r4,r16,r2
   21348:	21400115 	stw	r5,4(r4)
   2134c:	21400215 	stw	r5,8(r4)
   21350:	3080cd36 	bltu	r6,r2,21688 <_malloc_r+0x794>
   21354:	008000f4 	movhi	r2,3
   21358:	10847b04 	addi	r2,r2,4588
   2135c:	11000017 	ldw	r4,0(r2)
   21360:	20c0012e 	bgeu	r4,r3,21368 <_malloc_r+0x474>
   21364:	10c00015 	stw	r3,0(r2)
   21368:	008000f4 	movhi	r2,3
   2136c:	10847a04 	addi	r2,r2,4584
   21370:	11000017 	ldw	r4,0(r2)
   21374:	9c000217 	ldw	r16,8(r19)
   21378:	20c0012e 	bgeu	r4,r3,21380 <_malloc_r+0x48c>
   2137c:	10c00015 	stw	r3,0(r2)
   21380:	80c00117 	ldw	r3,4(r16)
   21384:	00bfff04 	movi	r2,-4
   21388:	1886703a 	and	r3,r3,r2
   2138c:	1c45c83a 	sub	r2,r3,r17
   21390:	1c400236 	bltu	r3,r17,2139c <_malloc_r+0x4a8>
   21394:	00c003c4 	movi	r3,15
   21398:	18800416 	blt	r3,r2,213ac <_malloc_r+0x4b8>
   2139c:	9009883a 	mov	r4,r18
   213a0:	0023d640 	call	23d64 <__malloc_unlock>
   213a4:	0005883a 	mov	r2,zero
   213a8:	003f7b06 	br	21198 <__alt_data_end+0xfffe1d98>
   213ac:	88c00054 	ori	r3,r17,1
   213b0:	80c00115 	stw	r3,4(r16)
   213b4:	8463883a 	add	r17,r16,r17
   213b8:	10800054 	ori	r2,r2,1
   213bc:	9c400215 	stw	r17,8(r19)
   213c0:	88800115 	stw	r2,4(r17)
   213c4:	9009883a 	mov	r4,r18
   213c8:	0023d640 	call	23d64 <__malloc_unlock>
   213cc:	80800204 	addi	r2,r16,8
   213d0:	003f7106 	br	21198 <__alt_data_end+0xfffe1d98>
   213d4:	00c00504 	movi	r3,20
   213d8:	18804a2e 	bgeu	r3,r2,21504 <_malloc_r+0x610>
   213dc:	00c01504 	movi	r3,84
   213e0:	18806e36 	bltu	r3,r2,2159c <_malloc_r+0x6a8>
   213e4:	8804d33a 	srli	r2,r17,12
   213e8:	12001bc4 	addi	r8,r2,111
   213ec:	11c01b84 	addi	r7,r2,110
   213f0:	4209883a 	add	r4,r8,r8
   213f4:	003edd06 	br	20f6c <__alt_data_end+0xfffe1b6c>
   213f8:	3804d27a 	srli	r2,r7,9
   213fc:	00c00104 	movi	r3,4
   21400:	1880442e 	bgeu	r3,r2,21514 <_malloc_r+0x620>
   21404:	00c00504 	movi	r3,20
   21408:	18808136 	bltu	r3,r2,21610 <_malloc_r+0x71c>
   2140c:	11401704 	addi	r5,r2,92
   21410:	10c016c4 	addi	r3,r2,91
   21414:	294b883a 	add	r5,r5,r5
   21418:	294b883a 	add	r5,r5,r5
   2141c:	294b883a 	add	r5,r5,r5
   21420:	994b883a 	add	r5,r19,r5
   21424:	28800017 	ldw	r2,0(r5)
   21428:	018000f4 	movhi	r6,3
   2142c:	297ffe04 	addi	r5,r5,-8
   21430:	31b80904 	addi	r6,r6,-8156
   21434:	28806526 	beq	r5,r2,215cc <_malloc_r+0x6d8>
   21438:	01bfff04 	movi	r6,-4
   2143c:	10c00117 	ldw	r3,4(r2)
   21440:	1986703a 	and	r3,r3,r6
   21444:	38c0022e 	bgeu	r7,r3,21450 <_malloc_r+0x55c>
   21448:	10800217 	ldw	r2,8(r2)
   2144c:	28bffb1e 	bne	r5,r2,2143c <__alt_data_end+0xfffe203c>
   21450:	11400317 	ldw	r5,12(r2)
   21454:	98c00117 	ldw	r3,4(r19)
   21458:	81400315 	stw	r5,12(r16)
   2145c:	80800215 	stw	r2,8(r16)
   21460:	2c000215 	stw	r16,8(r5)
   21464:	14000315 	stw	r16,12(r2)
   21468:	003ef806 	br	2104c <__alt_data_end+0xfffe1c4c>
   2146c:	88c00054 	ori	r3,r17,1
   21470:	80c00115 	stw	r3,4(r16)
   21474:	8463883a 	add	r17,r16,r17
   21478:	34400515 	stw	r17,20(r6)
   2147c:	34400415 	stw	r17,16(r6)
   21480:	10c00054 	ori	r3,r2,1
   21484:	8a000315 	stw	r8,12(r17)
   21488:	8a000215 	stw	r8,8(r17)
   2148c:	88c00115 	stw	r3,4(r17)
   21490:	88a3883a 	add	r17,r17,r2
   21494:	88800015 	stw	r2,0(r17)
   21498:	9009883a 	mov	r4,r18
   2149c:	0023d640 	call	23d64 <__malloc_unlock>
   214a0:	80800204 	addi	r2,r16,8
   214a4:	003f3c06 	br	21198 <__alt_data_end+0xfffe1d98>
   214a8:	30c00117 	ldw	r3,4(r6)
   214ac:	003ee706 	br	2104c <__alt_data_end+0xfffe1c4c>
   214b0:	5ac00044 	addi	r11,r11,1
   214b4:	588000cc 	andi	r2,r11,3
   214b8:	31800204 	addi	r6,r6,8
   214bc:	103efd1e 	bne	r2,zero,210b4 <__alt_data_end+0xfffe1cb4>
   214c0:	00002406 	br	21554 <_malloc_r+0x660>
   214c4:	14000317 	ldw	r16,12(r2)
   214c8:	143f251e 	bne	r2,r16,21160 <__alt_data_end+0xfffe1d60>
   214cc:	21000084 	addi	r4,r4,2
   214d0:	003ebc06 	br	20fc4 <__alt_data_end+0xfffe1bc4>
   214d4:	8085883a 	add	r2,r16,r2
   214d8:	10c00117 	ldw	r3,4(r2)
   214dc:	81000317 	ldw	r4,12(r16)
   214e0:	81400217 	ldw	r5,8(r16)
   214e4:	18c00054 	ori	r3,r3,1
   214e8:	10c00115 	stw	r3,4(r2)
   214ec:	29000315 	stw	r4,12(r5)
   214f0:	21400215 	stw	r5,8(r4)
   214f4:	9009883a 	mov	r4,r18
   214f8:	0023d640 	call	23d64 <__malloc_unlock>
   214fc:	80800204 	addi	r2,r16,8
   21500:	003f2506 	br	21198 <__alt_data_end+0xfffe1d98>
   21504:	12001704 	addi	r8,r2,92
   21508:	11c016c4 	addi	r7,r2,91
   2150c:	4209883a 	add	r4,r8,r8
   21510:	003e9606 	br	20f6c <__alt_data_end+0xfffe1b6c>
   21514:	3804d1ba 	srli	r2,r7,6
   21518:	11400e44 	addi	r5,r2,57
   2151c:	10c00e04 	addi	r3,r2,56
   21520:	294b883a 	add	r5,r5,r5
   21524:	003fbc06 	br	21418 <__alt_data_end+0xfffe2018>
   21528:	84ff5926 	beq	r16,r19,21290 <__alt_data_end+0xfffe1e90>
   2152c:	008000f4 	movhi	r2,3
   21530:	10b80904 	addi	r2,r2,-8156
   21534:	14000217 	ldw	r16,8(r2)
   21538:	00bfff04 	movi	r2,-4
   2153c:	80c00117 	ldw	r3,4(r16)
   21540:	1886703a 	and	r3,r3,r2
   21544:	003f9106 	br	2138c <__alt_data_end+0xfffe1f8c>
   21548:	60800217 	ldw	r2,8(r12)
   2154c:	213fffc4 	addi	r4,r4,-1
   21550:	1300651e 	bne	r2,r12,216e8 <_malloc_r+0x7f4>
   21554:	208000cc 	andi	r2,r4,3
   21558:	633ffe04 	addi	r12,r12,-8
   2155c:	103ffa1e 	bne	r2,zero,21548 <__alt_data_end+0xfffe2148>
   21560:	98800117 	ldw	r2,4(r19)
   21564:	0146303a 	nor	r3,zero,r5
   21568:	1884703a 	and	r2,r3,r2
   2156c:	98800115 	stw	r2,4(r19)
   21570:	294b883a 	add	r5,r5,r5
   21574:	117f2836 	bltu	r2,r5,21218 <__alt_data_end+0xfffe1e18>
   21578:	283f2726 	beq	r5,zero,21218 <__alt_data_end+0xfffe1e18>
   2157c:	2886703a 	and	r3,r5,r2
   21580:	5809883a 	mov	r4,r11
   21584:	183ec31e 	bne	r3,zero,21094 <__alt_data_end+0xfffe1c94>
   21588:	294b883a 	add	r5,r5,r5
   2158c:	2886703a 	and	r3,r5,r2
   21590:	21000104 	addi	r4,r4,4
   21594:	183ffc26 	beq	r3,zero,21588 <__alt_data_end+0xfffe2188>
   21598:	003ebe06 	br	21094 <__alt_data_end+0xfffe1c94>
   2159c:	00c05504 	movi	r3,340
   215a0:	18801236 	bltu	r3,r2,215ec <_malloc_r+0x6f8>
   215a4:	8804d3fa 	srli	r2,r17,15
   215a8:	12001e04 	addi	r8,r2,120
   215ac:	11c01dc4 	addi	r7,r2,119
   215b0:	4209883a 	add	r4,r8,r8
   215b4:	003e6d06 	br	20f6c <__alt_data_end+0xfffe1b6c>
   215b8:	00c40004 	movi	r3,4096
   215bc:	003f4606 	br	212d8 <__alt_data_end+0xfffe1ed8>
   215c0:	00800044 	movi	r2,1
   215c4:	a0800115 	stw	r2,4(r20)
   215c8:	003f7406 	br	2139c <__alt_data_end+0xfffe1f9c>
   215cc:	1805d0ba 	srai	r2,r3,2
   215d0:	01c00044 	movi	r7,1
   215d4:	30c00117 	ldw	r3,4(r6)
   215d8:	388e983a 	sll	r7,r7,r2
   215dc:	2805883a 	mov	r2,r5
   215e0:	38c6b03a 	or	r3,r7,r3
   215e4:	30c00115 	stw	r3,4(r6)
   215e8:	003f9b06 	br	21458 <__alt_data_end+0xfffe2058>
   215ec:	00c15504 	movi	r3,1364
   215f0:	18801a36 	bltu	r3,r2,2165c <_malloc_r+0x768>
   215f4:	8804d4ba 	srli	r2,r17,18
   215f8:	12001f44 	addi	r8,r2,125
   215fc:	11c01f04 	addi	r7,r2,124
   21600:	4209883a 	add	r4,r8,r8
   21604:	003e5906 	br	20f6c <__alt_data_end+0xfffe1b6c>
   21608:	ad400404 	addi	r21,r21,16
   2160c:	003f1706 	br	2126c <__alt_data_end+0xfffe1e6c>
   21610:	00c01504 	movi	r3,84
   21614:	18802336 	bltu	r3,r2,216a4 <_malloc_r+0x7b0>
   21618:	3804d33a 	srli	r2,r7,12
   2161c:	11401bc4 	addi	r5,r2,111
   21620:	10c01b84 	addi	r3,r2,110
   21624:	294b883a 	add	r5,r5,r5
   21628:	003f7b06 	br	21418 <__alt_data_end+0xfffe2018>
   2162c:	9c000217 	ldw	r16,8(r19)
   21630:	00bfff04 	movi	r2,-4
   21634:	80c00117 	ldw	r3,4(r16)
   21638:	1886703a 	and	r3,r3,r2
   2163c:	003f5306 	br	2138c <__alt_data_end+0xfffe1f8c>
   21640:	3083ffcc 	andi	r2,r6,4095
   21644:	103f181e 	bne	r2,zero,212a8 <__alt_data_end+0xfffe1ea8>
   21648:	99000217 	ldw	r4,8(r19)
   2164c:	b545883a 	add	r2,r22,r21
   21650:	10800054 	ori	r2,r2,1
   21654:	20800115 	stw	r2,4(r4)
   21658:	003f3e06 	br	21354 <__alt_data_end+0xfffe1f54>
   2165c:	01003f84 	movi	r4,254
   21660:	02001fc4 	movi	r8,127
   21664:	01c01f84 	movi	r7,126
   21668:	003e4006 	br	20f6c <__alt_data_end+0xfffe1b6c>
   2166c:	008000f4 	movhi	r2,3
   21670:	10bd9204 	addi	r2,r2,-2488
   21674:	15000015 	stw	r20,0(r2)
   21678:	003f1106 	br	212c0 <__alt_data_end+0xfffe1ec0>
   2167c:	00800044 	movi	r2,1
   21680:	002b883a 	mov	r21,zero
   21684:	003f1f06 	br	21304 <__alt_data_end+0xfffe1f04>
   21688:	81400204 	addi	r5,r16,8
   2168c:	9009883a 	mov	r4,r18
   21690:	002297c0 	call	2297c <_free_r>
   21694:	008000f4 	movhi	r2,3
   21698:	10849e04 	addi	r2,r2,4728
   2169c:	10c00017 	ldw	r3,0(r2)
   216a0:	003f2c06 	br	21354 <__alt_data_end+0xfffe1f54>
   216a4:	00c05504 	movi	r3,340
   216a8:	18800536 	bltu	r3,r2,216c0 <_malloc_r+0x7cc>
   216ac:	3804d3fa 	srli	r2,r7,15
   216b0:	11401e04 	addi	r5,r2,120
   216b4:	10c01dc4 	addi	r3,r2,119
   216b8:	294b883a 	add	r5,r5,r5
   216bc:	003f5606 	br	21418 <__alt_data_end+0xfffe2018>
   216c0:	00c15504 	movi	r3,1364
   216c4:	18800536 	bltu	r3,r2,216dc <_malloc_r+0x7e8>
   216c8:	3804d4ba 	srli	r2,r7,18
   216cc:	11401f44 	addi	r5,r2,125
   216d0:	10c01f04 	addi	r3,r2,124
   216d4:	294b883a 	add	r5,r5,r5
   216d8:	003f4f06 	br	21418 <__alt_data_end+0xfffe2018>
   216dc:	01403f84 	movi	r5,254
   216e0:	00c01f84 	movi	r3,126
   216e4:	003f4c06 	br	21418 <__alt_data_end+0xfffe2018>
   216e8:	98800117 	ldw	r2,4(r19)
   216ec:	003fa006 	br	21570 <__alt_data_end+0xfffe2170>
   216f0:	8808d0fa 	srli	r4,r17,3
   216f4:	20800044 	addi	r2,r4,1
   216f8:	1085883a 	add	r2,r2,r2
   216fc:	003e9006 	br	21140 <__alt_data_end+0xfffe1d40>

00021700 <memchr>:
   21700:	208000cc 	andi	r2,r4,3
   21704:	280f883a 	mov	r7,r5
   21708:	10003426 	beq	r2,zero,217dc <memchr+0xdc>
   2170c:	30bfffc4 	addi	r2,r6,-1
   21710:	30001a26 	beq	r6,zero,2177c <memchr+0x7c>
   21714:	20c00003 	ldbu	r3,0(r4)
   21718:	29803fcc 	andi	r6,r5,255
   2171c:	30c0051e 	bne	r6,r3,21734 <memchr+0x34>
   21720:	00001806 	br	21784 <memchr+0x84>
   21724:	10001526 	beq	r2,zero,2177c <memchr+0x7c>
   21728:	20c00003 	ldbu	r3,0(r4)
   2172c:	10bfffc4 	addi	r2,r2,-1
   21730:	30c01426 	beq	r6,r3,21784 <memchr+0x84>
   21734:	21000044 	addi	r4,r4,1
   21738:	20c000cc 	andi	r3,r4,3
   2173c:	183ff91e 	bne	r3,zero,21724 <__alt_data_end+0xfffe2324>
   21740:	020000c4 	movi	r8,3
   21744:	40801136 	bltu	r8,r2,2178c <memchr+0x8c>
   21748:	10000c26 	beq	r2,zero,2177c <memchr+0x7c>
   2174c:	20c00003 	ldbu	r3,0(r4)
   21750:	29403fcc 	andi	r5,r5,255
   21754:	28c00b26 	beq	r5,r3,21784 <memchr+0x84>
   21758:	20c00044 	addi	r3,r4,1
   2175c:	39803fcc 	andi	r6,r7,255
   21760:	2089883a 	add	r4,r4,r2
   21764:	00000306 	br	21774 <memchr+0x74>
   21768:	18c00044 	addi	r3,r3,1
   2176c:	197fffc3 	ldbu	r5,-1(r3)
   21770:	31400526 	beq	r6,r5,21788 <memchr+0x88>
   21774:	1805883a 	mov	r2,r3
   21778:	20fffb1e 	bne	r4,r3,21768 <__alt_data_end+0xfffe2368>
   2177c:	0005883a 	mov	r2,zero
   21780:	f800283a 	ret
   21784:	2005883a 	mov	r2,r4
   21788:	f800283a 	ret
   2178c:	28c03fcc 	andi	r3,r5,255
   21790:	1812923a 	slli	r9,r3,8
   21794:	02ffbff4 	movhi	r11,65279
   21798:	02a02074 	movhi	r10,32897
   2179c:	48d2b03a 	or	r9,r9,r3
   217a0:	4806943a 	slli	r3,r9,16
   217a4:	5affbfc4 	addi	r11,r11,-257
   217a8:	52a02004 	addi	r10,r10,-32640
   217ac:	48d2b03a 	or	r9,r9,r3
   217b0:	20c00017 	ldw	r3,0(r4)
   217b4:	48c6f03a 	xor	r3,r9,r3
   217b8:	1acd883a 	add	r6,r3,r11
   217bc:	00c6303a 	nor	r3,zero,r3
   217c0:	30c6703a 	and	r3,r6,r3
   217c4:	1a86703a 	and	r3,r3,r10
   217c8:	183fe01e 	bne	r3,zero,2174c <__alt_data_end+0xfffe234c>
   217cc:	10bfff04 	addi	r2,r2,-4
   217d0:	21000104 	addi	r4,r4,4
   217d4:	40bff636 	bltu	r8,r2,217b0 <__alt_data_end+0xfffe23b0>
   217d8:	003fdb06 	br	21748 <__alt_data_end+0xfffe2348>
   217dc:	3005883a 	mov	r2,r6
   217e0:	003fd706 	br	21740 <__alt_data_end+0xfffe2340>

000217e4 <memcpy>:
   217e4:	defffd04 	addi	sp,sp,-12
   217e8:	dfc00215 	stw	ra,8(sp)
   217ec:	dc400115 	stw	r17,4(sp)
   217f0:	dc000015 	stw	r16,0(sp)
   217f4:	00c003c4 	movi	r3,15
   217f8:	2005883a 	mov	r2,r4
   217fc:	1980452e 	bgeu	r3,r6,21914 <memcpy+0x130>
   21800:	2906b03a 	or	r3,r5,r4
   21804:	18c000cc 	andi	r3,r3,3
   21808:	1800441e 	bne	r3,zero,2191c <memcpy+0x138>
   2180c:	347ffc04 	addi	r17,r6,-16
   21810:	8822d13a 	srli	r17,r17,4
   21814:	28c00104 	addi	r3,r5,4
   21818:	23400104 	addi	r13,r4,4
   2181c:	8820913a 	slli	r16,r17,4
   21820:	2b000204 	addi	r12,r5,8
   21824:	22c00204 	addi	r11,r4,8
   21828:	84000504 	addi	r16,r16,20
   2182c:	2a800304 	addi	r10,r5,12
   21830:	22400304 	addi	r9,r4,12
   21834:	2c21883a 	add	r16,r5,r16
   21838:	2811883a 	mov	r8,r5
   2183c:	200f883a 	mov	r7,r4
   21840:	41000017 	ldw	r4,0(r8)
   21844:	1fc00017 	ldw	ra,0(r3)
   21848:	63c00017 	ldw	r15,0(r12)
   2184c:	39000015 	stw	r4,0(r7)
   21850:	53800017 	ldw	r14,0(r10)
   21854:	6fc00015 	stw	ra,0(r13)
   21858:	5bc00015 	stw	r15,0(r11)
   2185c:	4b800015 	stw	r14,0(r9)
   21860:	18c00404 	addi	r3,r3,16
   21864:	39c00404 	addi	r7,r7,16
   21868:	42000404 	addi	r8,r8,16
   2186c:	6b400404 	addi	r13,r13,16
   21870:	63000404 	addi	r12,r12,16
   21874:	5ac00404 	addi	r11,r11,16
   21878:	52800404 	addi	r10,r10,16
   2187c:	4a400404 	addi	r9,r9,16
   21880:	1c3fef1e 	bne	r3,r16,21840 <__alt_data_end+0xfffe2440>
   21884:	89c00044 	addi	r7,r17,1
   21888:	380e913a 	slli	r7,r7,4
   2188c:	310003cc 	andi	r4,r6,15
   21890:	02c000c4 	movi	r11,3
   21894:	11c7883a 	add	r3,r2,r7
   21898:	29cb883a 	add	r5,r5,r7
   2189c:	5900212e 	bgeu	r11,r4,21924 <memcpy+0x140>
   218a0:	1813883a 	mov	r9,r3
   218a4:	2811883a 	mov	r8,r5
   218a8:	200f883a 	mov	r7,r4
   218ac:	42800017 	ldw	r10,0(r8)
   218b0:	4a400104 	addi	r9,r9,4
   218b4:	39ffff04 	addi	r7,r7,-4
   218b8:	4abfff15 	stw	r10,-4(r9)
   218bc:	42000104 	addi	r8,r8,4
   218c0:	59fffa36 	bltu	r11,r7,218ac <__alt_data_end+0xfffe24ac>
   218c4:	213fff04 	addi	r4,r4,-4
   218c8:	2008d0ba 	srli	r4,r4,2
   218cc:	318000cc 	andi	r6,r6,3
   218d0:	21000044 	addi	r4,r4,1
   218d4:	2109883a 	add	r4,r4,r4
   218d8:	2109883a 	add	r4,r4,r4
   218dc:	1907883a 	add	r3,r3,r4
   218e0:	290b883a 	add	r5,r5,r4
   218e4:	30000626 	beq	r6,zero,21900 <memcpy+0x11c>
   218e8:	198d883a 	add	r6,r3,r6
   218ec:	29c00003 	ldbu	r7,0(r5)
   218f0:	18c00044 	addi	r3,r3,1
   218f4:	29400044 	addi	r5,r5,1
   218f8:	19ffffc5 	stb	r7,-1(r3)
   218fc:	19bffb1e 	bne	r3,r6,218ec <__alt_data_end+0xfffe24ec>
   21900:	dfc00217 	ldw	ra,8(sp)
   21904:	dc400117 	ldw	r17,4(sp)
   21908:	dc000017 	ldw	r16,0(sp)
   2190c:	dec00304 	addi	sp,sp,12
   21910:	f800283a 	ret
   21914:	2007883a 	mov	r3,r4
   21918:	003ff206 	br	218e4 <__alt_data_end+0xfffe24e4>
   2191c:	2007883a 	mov	r3,r4
   21920:	003ff106 	br	218e8 <__alt_data_end+0xfffe24e8>
   21924:	200d883a 	mov	r6,r4
   21928:	003fee06 	br	218e4 <__alt_data_end+0xfffe24e4>

0002192c <memmove>:
   2192c:	2005883a 	mov	r2,r4
   21930:	29000b2e 	bgeu	r5,r4,21960 <memmove+0x34>
   21934:	298f883a 	add	r7,r5,r6
   21938:	21c0092e 	bgeu	r4,r7,21960 <memmove+0x34>
   2193c:	2187883a 	add	r3,r4,r6
   21940:	198bc83a 	sub	r5,r3,r6
   21944:	30004826 	beq	r6,zero,21a68 <memmove+0x13c>
   21948:	39ffffc4 	addi	r7,r7,-1
   2194c:	39000003 	ldbu	r4,0(r7)
   21950:	18ffffc4 	addi	r3,r3,-1
   21954:	19000005 	stb	r4,0(r3)
   21958:	28fffb1e 	bne	r5,r3,21948 <__alt_data_end+0xfffe2548>
   2195c:	f800283a 	ret
   21960:	00c003c4 	movi	r3,15
   21964:	1980412e 	bgeu	r3,r6,21a6c <memmove+0x140>
   21968:	2886b03a 	or	r3,r5,r2
   2196c:	18c000cc 	andi	r3,r3,3
   21970:	1800401e 	bne	r3,zero,21a74 <memmove+0x148>
   21974:	33fffc04 	addi	r15,r6,-16
   21978:	781ed13a 	srli	r15,r15,4
   2197c:	28c00104 	addi	r3,r5,4
   21980:	13400104 	addi	r13,r2,4
   21984:	781c913a 	slli	r14,r15,4
   21988:	2b000204 	addi	r12,r5,8
   2198c:	12c00204 	addi	r11,r2,8
   21990:	73800504 	addi	r14,r14,20
   21994:	2a800304 	addi	r10,r5,12
   21998:	12400304 	addi	r9,r2,12
   2199c:	2b9d883a 	add	r14,r5,r14
   219a0:	2811883a 	mov	r8,r5
   219a4:	100f883a 	mov	r7,r2
   219a8:	41000017 	ldw	r4,0(r8)
   219ac:	39c00404 	addi	r7,r7,16
   219b0:	18c00404 	addi	r3,r3,16
   219b4:	393ffc15 	stw	r4,-16(r7)
   219b8:	193ffc17 	ldw	r4,-16(r3)
   219bc:	6b400404 	addi	r13,r13,16
   219c0:	5ac00404 	addi	r11,r11,16
   219c4:	693ffc15 	stw	r4,-16(r13)
   219c8:	61000017 	ldw	r4,0(r12)
   219cc:	4a400404 	addi	r9,r9,16
   219d0:	42000404 	addi	r8,r8,16
   219d4:	593ffc15 	stw	r4,-16(r11)
   219d8:	51000017 	ldw	r4,0(r10)
   219dc:	63000404 	addi	r12,r12,16
   219e0:	52800404 	addi	r10,r10,16
   219e4:	493ffc15 	stw	r4,-16(r9)
   219e8:	1bbfef1e 	bne	r3,r14,219a8 <__alt_data_end+0xfffe25a8>
   219ec:	79000044 	addi	r4,r15,1
   219f0:	2008913a 	slli	r4,r4,4
   219f4:	328003cc 	andi	r10,r6,15
   219f8:	02c000c4 	movi	r11,3
   219fc:	1107883a 	add	r3,r2,r4
   21a00:	290b883a 	add	r5,r5,r4
   21a04:	5a801e2e 	bgeu	r11,r10,21a80 <memmove+0x154>
   21a08:	1813883a 	mov	r9,r3
   21a0c:	2811883a 	mov	r8,r5
   21a10:	500f883a 	mov	r7,r10
   21a14:	41000017 	ldw	r4,0(r8)
   21a18:	4a400104 	addi	r9,r9,4
   21a1c:	39ffff04 	addi	r7,r7,-4
   21a20:	493fff15 	stw	r4,-4(r9)
   21a24:	42000104 	addi	r8,r8,4
   21a28:	59fffa36 	bltu	r11,r7,21a14 <__alt_data_end+0xfffe2614>
   21a2c:	513fff04 	addi	r4,r10,-4
   21a30:	2008d0ba 	srli	r4,r4,2
   21a34:	318000cc 	andi	r6,r6,3
   21a38:	21000044 	addi	r4,r4,1
   21a3c:	2109883a 	add	r4,r4,r4
   21a40:	2109883a 	add	r4,r4,r4
   21a44:	1907883a 	add	r3,r3,r4
   21a48:	290b883a 	add	r5,r5,r4
   21a4c:	30000b26 	beq	r6,zero,21a7c <memmove+0x150>
   21a50:	198d883a 	add	r6,r3,r6
   21a54:	29c00003 	ldbu	r7,0(r5)
   21a58:	18c00044 	addi	r3,r3,1
   21a5c:	29400044 	addi	r5,r5,1
   21a60:	19ffffc5 	stb	r7,-1(r3)
   21a64:	19bffb1e 	bne	r3,r6,21a54 <__alt_data_end+0xfffe2654>
   21a68:	f800283a 	ret
   21a6c:	1007883a 	mov	r3,r2
   21a70:	003ff606 	br	21a4c <__alt_data_end+0xfffe264c>
   21a74:	1007883a 	mov	r3,r2
   21a78:	003ff506 	br	21a50 <__alt_data_end+0xfffe2650>
   21a7c:	f800283a 	ret
   21a80:	500d883a 	mov	r6,r10
   21a84:	003ff106 	br	21a4c <__alt_data_end+0xfffe264c>

00021a88 <memset>:
   21a88:	20c000cc 	andi	r3,r4,3
   21a8c:	2005883a 	mov	r2,r4
   21a90:	18004426 	beq	r3,zero,21ba4 <memset+0x11c>
   21a94:	31ffffc4 	addi	r7,r6,-1
   21a98:	30004026 	beq	r6,zero,21b9c <memset+0x114>
   21a9c:	2813883a 	mov	r9,r5
   21aa0:	200d883a 	mov	r6,r4
   21aa4:	2007883a 	mov	r3,r4
   21aa8:	00000406 	br	21abc <memset+0x34>
   21aac:	3a3fffc4 	addi	r8,r7,-1
   21ab0:	31800044 	addi	r6,r6,1
   21ab4:	38003926 	beq	r7,zero,21b9c <memset+0x114>
   21ab8:	400f883a 	mov	r7,r8
   21abc:	18c00044 	addi	r3,r3,1
   21ac0:	32400005 	stb	r9,0(r6)
   21ac4:	1a0000cc 	andi	r8,r3,3
   21ac8:	403ff81e 	bne	r8,zero,21aac <__alt_data_end+0xfffe26ac>
   21acc:	010000c4 	movi	r4,3
   21ad0:	21c02d2e 	bgeu	r4,r7,21b88 <memset+0x100>
   21ad4:	29003fcc 	andi	r4,r5,255
   21ad8:	200c923a 	slli	r6,r4,8
   21adc:	3108b03a 	or	r4,r6,r4
   21ae0:	200c943a 	slli	r6,r4,16
   21ae4:	218cb03a 	or	r6,r4,r6
   21ae8:	010003c4 	movi	r4,15
   21aec:	21c0182e 	bgeu	r4,r7,21b50 <memset+0xc8>
   21af0:	3b3ffc04 	addi	r12,r7,-16
   21af4:	6018d13a 	srli	r12,r12,4
   21af8:	1a000104 	addi	r8,r3,4
   21afc:	1ac00204 	addi	r11,r3,8
   21b00:	6008913a 	slli	r4,r12,4
   21b04:	1a800304 	addi	r10,r3,12
   21b08:	1813883a 	mov	r9,r3
   21b0c:	21000504 	addi	r4,r4,20
   21b10:	1909883a 	add	r4,r3,r4
   21b14:	49800015 	stw	r6,0(r9)
   21b18:	41800015 	stw	r6,0(r8)
   21b1c:	59800015 	stw	r6,0(r11)
   21b20:	51800015 	stw	r6,0(r10)
   21b24:	42000404 	addi	r8,r8,16
   21b28:	4a400404 	addi	r9,r9,16
   21b2c:	5ac00404 	addi	r11,r11,16
   21b30:	52800404 	addi	r10,r10,16
   21b34:	413ff71e 	bne	r8,r4,21b14 <__alt_data_end+0xfffe2714>
   21b38:	63000044 	addi	r12,r12,1
   21b3c:	6018913a 	slli	r12,r12,4
   21b40:	39c003cc 	andi	r7,r7,15
   21b44:	010000c4 	movi	r4,3
   21b48:	1b07883a 	add	r3,r3,r12
   21b4c:	21c00e2e 	bgeu	r4,r7,21b88 <memset+0x100>
   21b50:	1813883a 	mov	r9,r3
   21b54:	3811883a 	mov	r8,r7
   21b58:	010000c4 	movi	r4,3
   21b5c:	49800015 	stw	r6,0(r9)
   21b60:	423fff04 	addi	r8,r8,-4
   21b64:	4a400104 	addi	r9,r9,4
   21b68:	223ffc36 	bltu	r4,r8,21b5c <__alt_data_end+0xfffe275c>
   21b6c:	393fff04 	addi	r4,r7,-4
   21b70:	2008d0ba 	srli	r4,r4,2
   21b74:	39c000cc 	andi	r7,r7,3
   21b78:	21000044 	addi	r4,r4,1
   21b7c:	2109883a 	add	r4,r4,r4
   21b80:	2109883a 	add	r4,r4,r4
   21b84:	1907883a 	add	r3,r3,r4
   21b88:	38000526 	beq	r7,zero,21ba0 <memset+0x118>
   21b8c:	19cf883a 	add	r7,r3,r7
   21b90:	19400005 	stb	r5,0(r3)
   21b94:	18c00044 	addi	r3,r3,1
   21b98:	38fffd1e 	bne	r7,r3,21b90 <__alt_data_end+0xfffe2790>
   21b9c:	f800283a 	ret
   21ba0:	f800283a 	ret
   21ba4:	2007883a 	mov	r3,r4
   21ba8:	300f883a 	mov	r7,r6
   21bac:	003fc706 	br	21acc <__alt_data_end+0xfffe26cc>

00021bb0 <_realloc_r>:
   21bb0:	defff604 	addi	sp,sp,-40
   21bb4:	dc800215 	stw	r18,8(sp)
   21bb8:	dfc00915 	stw	ra,36(sp)
   21bbc:	df000815 	stw	fp,32(sp)
   21bc0:	ddc00715 	stw	r23,28(sp)
   21bc4:	dd800615 	stw	r22,24(sp)
   21bc8:	dd400515 	stw	r21,20(sp)
   21bcc:	dd000415 	stw	r20,16(sp)
   21bd0:	dcc00315 	stw	r19,12(sp)
   21bd4:	dc400115 	stw	r17,4(sp)
   21bd8:	dc000015 	stw	r16,0(sp)
   21bdc:	3025883a 	mov	r18,r6
   21be0:	2800b726 	beq	r5,zero,21ec0 <_realloc_r+0x310>
   21be4:	282b883a 	mov	r21,r5
   21be8:	2029883a 	mov	r20,r4
   21bec:	0023c440 	call	23c44 <__malloc_lock>
   21bf0:	a8bfff17 	ldw	r2,-4(r21)
   21bf4:	043fff04 	movi	r16,-4
   21bf8:	90c002c4 	addi	r3,r18,11
   21bfc:	01000584 	movi	r4,22
   21c00:	acfffe04 	addi	r19,r21,-8
   21c04:	1420703a 	and	r16,r2,r16
   21c08:	20c0332e 	bgeu	r4,r3,21cd8 <_realloc_r+0x128>
   21c0c:	047ffe04 	movi	r17,-8
   21c10:	1c62703a 	and	r17,r3,r17
   21c14:	8807883a 	mov	r3,r17
   21c18:	88005816 	blt	r17,zero,21d7c <_realloc_r+0x1cc>
   21c1c:	8c805736 	bltu	r17,r18,21d7c <_realloc_r+0x1cc>
   21c20:	80c0300e 	bge	r16,r3,21ce4 <_realloc_r+0x134>
   21c24:	070000f4 	movhi	fp,3
   21c28:	e7380904 	addi	fp,fp,-8156
   21c2c:	e1c00217 	ldw	r7,8(fp)
   21c30:	9c09883a 	add	r4,r19,r16
   21c34:	22000117 	ldw	r8,4(r4)
   21c38:	21c06326 	beq	r4,r7,21dc8 <_realloc_r+0x218>
   21c3c:	017fff84 	movi	r5,-2
   21c40:	414a703a 	and	r5,r8,r5
   21c44:	214b883a 	add	r5,r4,r5
   21c48:	29800117 	ldw	r6,4(r5)
   21c4c:	3180004c 	andi	r6,r6,1
   21c50:	30003f26 	beq	r6,zero,21d50 <_realloc_r+0x1a0>
   21c54:	1080004c 	andi	r2,r2,1
   21c58:	10008326 	beq	r2,zero,21e68 <_realloc_r+0x2b8>
   21c5c:	900b883a 	mov	r5,r18
   21c60:	a009883a 	mov	r4,r20
   21c64:	0020ef40 	call	20ef4 <_malloc_r>
   21c68:	1025883a 	mov	r18,r2
   21c6c:	10011e26 	beq	r2,zero,220e8 <_realloc_r+0x538>
   21c70:	a93fff17 	ldw	r4,-4(r21)
   21c74:	10fffe04 	addi	r3,r2,-8
   21c78:	00bfff84 	movi	r2,-2
   21c7c:	2084703a 	and	r2,r4,r2
   21c80:	9885883a 	add	r2,r19,r2
   21c84:	1880ee26 	beq	r3,r2,22040 <_realloc_r+0x490>
   21c88:	81bfff04 	addi	r6,r16,-4
   21c8c:	00800904 	movi	r2,36
   21c90:	1180b836 	bltu	r2,r6,21f74 <_realloc_r+0x3c4>
   21c94:	00c004c4 	movi	r3,19
   21c98:	19809636 	bltu	r3,r6,21ef4 <_realloc_r+0x344>
   21c9c:	9005883a 	mov	r2,r18
   21ca0:	a807883a 	mov	r3,r21
   21ca4:	19000017 	ldw	r4,0(r3)
   21ca8:	11000015 	stw	r4,0(r2)
   21cac:	19000117 	ldw	r4,4(r3)
   21cb0:	11000115 	stw	r4,4(r2)
   21cb4:	18c00217 	ldw	r3,8(r3)
   21cb8:	10c00215 	stw	r3,8(r2)
   21cbc:	a80b883a 	mov	r5,r21
   21cc0:	a009883a 	mov	r4,r20
   21cc4:	002297c0 	call	2297c <_free_r>
   21cc8:	a009883a 	mov	r4,r20
   21ccc:	0023d640 	call	23d64 <__malloc_unlock>
   21cd0:	9005883a 	mov	r2,r18
   21cd4:	00001206 	br	21d20 <_realloc_r+0x170>
   21cd8:	00c00404 	movi	r3,16
   21cdc:	1823883a 	mov	r17,r3
   21ce0:	003fce06 	br	21c1c <__alt_data_end+0xfffe281c>
   21ce4:	a825883a 	mov	r18,r21
   21ce8:	8445c83a 	sub	r2,r16,r17
   21cec:	00c003c4 	movi	r3,15
   21cf0:	18802636 	bltu	r3,r2,21d8c <_realloc_r+0x1dc>
   21cf4:	99800117 	ldw	r6,4(r19)
   21cf8:	9c07883a 	add	r3,r19,r16
   21cfc:	3180004c 	andi	r6,r6,1
   21d00:	3420b03a 	or	r16,r6,r16
   21d04:	9c000115 	stw	r16,4(r19)
   21d08:	18800117 	ldw	r2,4(r3)
   21d0c:	10800054 	ori	r2,r2,1
   21d10:	18800115 	stw	r2,4(r3)
   21d14:	a009883a 	mov	r4,r20
   21d18:	0023d640 	call	23d64 <__malloc_unlock>
   21d1c:	9005883a 	mov	r2,r18
   21d20:	dfc00917 	ldw	ra,36(sp)
   21d24:	df000817 	ldw	fp,32(sp)
   21d28:	ddc00717 	ldw	r23,28(sp)
   21d2c:	dd800617 	ldw	r22,24(sp)
   21d30:	dd400517 	ldw	r21,20(sp)
   21d34:	dd000417 	ldw	r20,16(sp)
   21d38:	dcc00317 	ldw	r19,12(sp)
   21d3c:	dc800217 	ldw	r18,8(sp)
   21d40:	dc400117 	ldw	r17,4(sp)
   21d44:	dc000017 	ldw	r16,0(sp)
   21d48:	dec00a04 	addi	sp,sp,40
   21d4c:	f800283a 	ret
   21d50:	017fff04 	movi	r5,-4
   21d54:	414a703a 	and	r5,r8,r5
   21d58:	814d883a 	add	r6,r16,r5
   21d5c:	30c01f16 	blt	r6,r3,21ddc <_realloc_r+0x22c>
   21d60:	20800317 	ldw	r2,12(r4)
   21d64:	20c00217 	ldw	r3,8(r4)
   21d68:	a825883a 	mov	r18,r21
   21d6c:	3021883a 	mov	r16,r6
   21d70:	18800315 	stw	r2,12(r3)
   21d74:	10c00215 	stw	r3,8(r2)
   21d78:	003fdb06 	br	21ce8 <__alt_data_end+0xfffe28e8>
   21d7c:	00800304 	movi	r2,12
   21d80:	a0800015 	stw	r2,0(r20)
   21d84:	0005883a 	mov	r2,zero
   21d88:	003fe506 	br	21d20 <__alt_data_end+0xfffe2920>
   21d8c:	98c00117 	ldw	r3,4(r19)
   21d90:	9c4b883a 	add	r5,r19,r17
   21d94:	11000054 	ori	r4,r2,1
   21d98:	18c0004c 	andi	r3,r3,1
   21d9c:	1c62b03a 	or	r17,r3,r17
   21da0:	9c400115 	stw	r17,4(r19)
   21da4:	29000115 	stw	r4,4(r5)
   21da8:	2885883a 	add	r2,r5,r2
   21dac:	10c00117 	ldw	r3,4(r2)
   21db0:	29400204 	addi	r5,r5,8
   21db4:	a009883a 	mov	r4,r20
   21db8:	18c00054 	ori	r3,r3,1
   21dbc:	10c00115 	stw	r3,4(r2)
   21dc0:	002297c0 	call	2297c <_free_r>
   21dc4:	003fd306 	br	21d14 <__alt_data_end+0xfffe2914>
   21dc8:	017fff04 	movi	r5,-4
   21dcc:	414a703a 	and	r5,r8,r5
   21dd0:	89800404 	addi	r6,r17,16
   21dd4:	8151883a 	add	r8,r16,r5
   21dd8:	4180590e 	bge	r8,r6,21f40 <_realloc_r+0x390>
   21ddc:	1080004c 	andi	r2,r2,1
   21de0:	103f9e1e 	bne	r2,zero,21c5c <__alt_data_end+0xfffe285c>
   21de4:	adbffe17 	ldw	r22,-8(r21)
   21de8:	00bfff04 	movi	r2,-4
   21dec:	9dadc83a 	sub	r22,r19,r22
   21df0:	b1800117 	ldw	r6,4(r22)
   21df4:	3084703a 	and	r2,r6,r2
   21df8:	20002026 	beq	r4,zero,21e7c <_realloc_r+0x2cc>
   21dfc:	80af883a 	add	r23,r16,r2
   21e00:	b96f883a 	add	r23,r23,r5
   21e04:	21c05f26 	beq	r4,r7,21f84 <_realloc_r+0x3d4>
   21e08:	b8c01c16 	blt	r23,r3,21e7c <_realloc_r+0x2cc>
   21e0c:	20800317 	ldw	r2,12(r4)
   21e10:	20c00217 	ldw	r3,8(r4)
   21e14:	81bfff04 	addi	r6,r16,-4
   21e18:	01000904 	movi	r4,36
   21e1c:	18800315 	stw	r2,12(r3)
   21e20:	10c00215 	stw	r3,8(r2)
   21e24:	b0c00217 	ldw	r3,8(r22)
   21e28:	b0800317 	ldw	r2,12(r22)
   21e2c:	b4800204 	addi	r18,r22,8
   21e30:	18800315 	stw	r2,12(r3)
   21e34:	10c00215 	stw	r3,8(r2)
   21e38:	21801b36 	bltu	r4,r6,21ea8 <_realloc_r+0x2f8>
   21e3c:	008004c4 	movi	r2,19
   21e40:	1180352e 	bgeu	r2,r6,21f18 <_realloc_r+0x368>
   21e44:	a8800017 	ldw	r2,0(r21)
   21e48:	b0800215 	stw	r2,8(r22)
   21e4c:	a8800117 	ldw	r2,4(r21)
   21e50:	b0800315 	stw	r2,12(r22)
   21e54:	008006c4 	movi	r2,27
   21e58:	11807f36 	bltu	r2,r6,22058 <_realloc_r+0x4a8>
   21e5c:	b0800404 	addi	r2,r22,16
   21e60:	ad400204 	addi	r21,r21,8
   21e64:	00002d06 	br	21f1c <_realloc_r+0x36c>
   21e68:	adbffe17 	ldw	r22,-8(r21)
   21e6c:	00bfff04 	movi	r2,-4
   21e70:	9dadc83a 	sub	r22,r19,r22
   21e74:	b1000117 	ldw	r4,4(r22)
   21e78:	2084703a 	and	r2,r4,r2
   21e7c:	b03f7726 	beq	r22,zero,21c5c <__alt_data_end+0xfffe285c>
   21e80:	80af883a 	add	r23,r16,r2
   21e84:	b8ff7516 	blt	r23,r3,21c5c <__alt_data_end+0xfffe285c>
   21e88:	b0800317 	ldw	r2,12(r22)
   21e8c:	b0c00217 	ldw	r3,8(r22)
   21e90:	81bfff04 	addi	r6,r16,-4
   21e94:	01000904 	movi	r4,36
   21e98:	18800315 	stw	r2,12(r3)
   21e9c:	10c00215 	stw	r3,8(r2)
   21ea0:	b4800204 	addi	r18,r22,8
   21ea4:	21bfe52e 	bgeu	r4,r6,21e3c <__alt_data_end+0xfffe2a3c>
   21ea8:	a80b883a 	mov	r5,r21
   21eac:	9009883a 	mov	r4,r18
   21eb0:	002192c0 	call	2192c <memmove>
   21eb4:	b821883a 	mov	r16,r23
   21eb8:	b027883a 	mov	r19,r22
   21ebc:	003f8a06 	br	21ce8 <__alt_data_end+0xfffe28e8>
   21ec0:	300b883a 	mov	r5,r6
   21ec4:	dfc00917 	ldw	ra,36(sp)
   21ec8:	df000817 	ldw	fp,32(sp)
   21ecc:	ddc00717 	ldw	r23,28(sp)
   21ed0:	dd800617 	ldw	r22,24(sp)
   21ed4:	dd400517 	ldw	r21,20(sp)
   21ed8:	dd000417 	ldw	r20,16(sp)
   21edc:	dcc00317 	ldw	r19,12(sp)
   21ee0:	dc800217 	ldw	r18,8(sp)
   21ee4:	dc400117 	ldw	r17,4(sp)
   21ee8:	dc000017 	ldw	r16,0(sp)
   21eec:	dec00a04 	addi	sp,sp,40
   21ef0:	0020ef41 	jmpi	20ef4 <_malloc_r>
   21ef4:	a8c00017 	ldw	r3,0(r21)
   21ef8:	90c00015 	stw	r3,0(r18)
   21efc:	a8c00117 	ldw	r3,4(r21)
   21f00:	90c00115 	stw	r3,4(r18)
   21f04:	00c006c4 	movi	r3,27
   21f08:	19804536 	bltu	r3,r6,22020 <_realloc_r+0x470>
   21f0c:	90800204 	addi	r2,r18,8
   21f10:	a8c00204 	addi	r3,r21,8
   21f14:	003f6306 	br	21ca4 <__alt_data_end+0xfffe28a4>
   21f18:	9005883a 	mov	r2,r18
   21f1c:	a8c00017 	ldw	r3,0(r21)
   21f20:	b821883a 	mov	r16,r23
   21f24:	b027883a 	mov	r19,r22
   21f28:	10c00015 	stw	r3,0(r2)
   21f2c:	a8c00117 	ldw	r3,4(r21)
   21f30:	10c00115 	stw	r3,4(r2)
   21f34:	a8c00217 	ldw	r3,8(r21)
   21f38:	10c00215 	stw	r3,8(r2)
   21f3c:	003f6a06 	br	21ce8 <__alt_data_end+0xfffe28e8>
   21f40:	9c67883a 	add	r19,r19,r17
   21f44:	4445c83a 	sub	r2,r8,r17
   21f48:	e4c00215 	stw	r19,8(fp)
   21f4c:	10800054 	ori	r2,r2,1
   21f50:	98800115 	stw	r2,4(r19)
   21f54:	a8bfff17 	ldw	r2,-4(r21)
   21f58:	a009883a 	mov	r4,r20
   21f5c:	1080004c 	andi	r2,r2,1
   21f60:	1462b03a 	or	r17,r2,r17
   21f64:	ac7fff15 	stw	r17,-4(r21)
   21f68:	0023d640 	call	23d64 <__malloc_unlock>
   21f6c:	a805883a 	mov	r2,r21
   21f70:	003f6b06 	br	21d20 <__alt_data_end+0xfffe2920>
   21f74:	a80b883a 	mov	r5,r21
   21f78:	9009883a 	mov	r4,r18
   21f7c:	002192c0 	call	2192c <memmove>
   21f80:	003f4e06 	br	21cbc <__alt_data_end+0xfffe28bc>
   21f84:	89000404 	addi	r4,r17,16
   21f88:	b93fbc16 	blt	r23,r4,21e7c <__alt_data_end+0xfffe2a7c>
   21f8c:	b0800317 	ldw	r2,12(r22)
   21f90:	b0c00217 	ldw	r3,8(r22)
   21f94:	81bfff04 	addi	r6,r16,-4
   21f98:	01000904 	movi	r4,36
   21f9c:	18800315 	stw	r2,12(r3)
   21fa0:	10c00215 	stw	r3,8(r2)
   21fa4:	b4800204 	addi	r18,r22,8
   21fa8:	21804336 	bltu	r4,r6,220b8 <_realloc_r+0x508>
   21fac:	008004c4 	movi	r2,19
   21fb0:	11803f2e 	bgeu	r2,r6,220b0 <_realloc_r+0x500>
   21fb4:	a8800017 	ldw	r2,0(r21)
   21fb8:	b0800215 	stw	r2,8(r22)
   21fbc:	a8800117 	ldw	r2,4(r21)
   21fc0:	b0800315 	stw	r2,12(r22)
   21fc4:	008006c4 	movi	r2,27
   21fc8:	11803f36 	bltu	r2,r6,220c8 <_realloc_r+0x518>
   21fcc:	b0800404 	addi	r2,r22,16
   21fd0:	ad400204 	addi	r21,r21,8
   21fd4:	a8c00017 	ldw	r3,0(r21)
   21fd8:	10c00015 	stw	r3,0(r2)
   21fdc:	a8c00117 	ldw	r3,4(r21)
   21fe0:	10c00115 	stw	r3,4(r2)
   21fe4:	a8c00217 	ldw	r3,8(r21)
   21fe8:	10c00215 	stw	r3,8(r2)
   21fec:	b447883a 	add	r3,r22,r17
   21ff0:	bc45c83a 	sub	r2,r23,r17
   21ff4:	e0c00215 	stw	r3,8(fp)
   21ff8:	10800054 	ori	r2,r2,1
   21ffc:	18800115 	stw	r2,4(r3)
   22000:	b0800117 	ldw	r2,4(r22)
   22004:	a009883a 	mov	r4,r20
   22008:	1080004c 	andi	r2,r2,1
   2200c:	1462b03a 	or	r17,r2,r17
   22010:	b4400115 	stw	r17,4(r22)
   22014:	0023d640 	call	23d64 <__malloc_unlock>
   22018:	9005883a 	mov	r2,r18
   2201c:	003f4006 	br	21d20 <__alt_data_end+0xfffe2920>
   22020:	a8c00217 	ldw	r3,8(r21)
   22024:	90c00215 	stw	r3,8(r18)
   22028:	a8c00317 	ldw	r3,12(r21)
   2202c:	90c00315 	stw	r3,12(r18)
   22030:	30801126 	beq	r6,r2,22078 <_realloc_r+0x4c8>
   22034:	90800404 	addi	r2,r18,16
   22038:	a8c00404 	addi	r3,r21,16
   2203c:	003f1906 	br	21ca4 <__alt_data_end+0xfffe28a4>
   22040:	90ffff17 	ldw	r3,-4(r18)
   22044:	00bfff04 	movi	r2,-4
   22048:	a825883a 	mov	r18,r21
   2204c:	1884703a 	and	r2,r3,r2
   22050:	80a1883a 	add	r16,r16,r2
   22054:	003f2406 	br	21ce8 <__alt_data_end+0xfffe28e8>
   22058:	a8800217 	ldw	r2,8(r21)
   2205c:	b0800415 	stw	r2,16(r22)
   22060:	a8800317 	ldw	r2,12(r21)
   22064:	b0800515 	stw	r2,20(r22)
   22068:	31000a26 	beq	r6,r4,22094 <_realloc_r+0x4e4>
   2206c:	b0800604 	addi	r2,r22,24
   22070:	ad400404 	addi	r21,r21,16
   22074:	003fa906 	br	21f1c <__alt_data_end+0xfffe2b1c>
   22078:	a9000417 	ldw	r4,16(r21)
   2207c:	90800604 	addi	r2,r18,24
   22080:	a8c00604 	addi	r3,r21,24
   22084:	91000415 	stw	r4,16(r18)
   22088:	a9000517 	ldw	r4,20(r21)
   2208c:	91000515 	stw	r4,20(r18)
   22090:	003f0406 	br	21ca4 <__alt_data_end+0xfffe28a4>
   22094:	a8c00417 	ldw	r3,16(r21)
   22098:	ad400604 	addi	r21,r21,24
   2209c:	b0800804 	addi	r2,r22,32
   220a0:	b0c00615 	stw	r3,24(r22)
   220a4:	a8ffff17 	ldw	r3,-4(r21)
   220a8:	b0c00715 	stw	r3,28(r22)
   220ac:	003f9b06 	br	21f1c <__alt_data_end+0xfffe2b1c>
   220b0:	9005883a 	mov	r2,r18
   220b4:	003fc706 	br	21fd4 <__alt_data_end+0xfffe2bd4>
   220b8:	a80b883a 	mov	r5,r21
   220bc:	9009883a 	mov	r4,r18
   220c0:	002192c0 	call	2192c <memmove>
   220c4:	003fc906 	br	21fec <__alt_data_end+0xfffe2bec>
   220c8:	a8800217 	ldw	r2,8(r21)
   220cc:	b0800415 	stw	r2,16(r22)
   220d0:	a8800317 	ldw	r2,12(r21)
   220d4:	b0800515 	stw	r2,20(r22)
   220d8:	31000726 	beq	r6,r4,220f8 <_realloc_r+0x548>
   220dc:	b0800604 	addi	r2,r22,24
   220e0:	ad400404 	addi	r21,r21,16
   220e4:	003fbb06 	br	21fd4 <__alt_data_end+0xfffe2bd4>
   220e8:	a009883a 	mov	r4,r20
   220ec:	0023d640 	call	23d64 <__malloc_unlock>
   220f0:	0005883a 	mov	r2,zero
   220f4:	003f0a06 	br	21d20 <__alt_data_end+0xfffe2920>
   220f8:	a8c00417 	ldw	r3,16(r21)
   220fc:	ad400604 	addi	r21,r21,24
   22100:	b0800804 	addi	r2,r22,32
   22104:	b0c00615 	stw	r3,24(r22)
   22108:	a8ffff17 	ldw	r3,-4(r21)
   2210c:	b0c00715 	stw	r3,28(r22)
   22110:	003fb006 	br	21fd4 <__alt_data_end+0xfffe2bd4>

00022114 <_sbrk_r>:
   22114:	defffd04 	addi	sp,sp,-12
   22118:	dc000015 	stw	r16,0(sp)
   2211c:	040000f4 	movhi	r16,3
   22120:	dc400115 	stw	r17,4(sp)
   22124:	84047d04 	addi	r16,r16,4596
   22128:	2023883a 	mov	r17,r4
   2212c:	2809883a 	mov	r4,r5
   22130:	dfc00215 	stw	ra,8(sp)
   22134:	80000015 	stw	zero,0(r16)
   22138:	00239340 	call	23934 <sbrk>
   2213c:	00ffffc4 	movi	r3,-1
   22140:	10c00526 	beq	r2,r3,22158 <_sbrk_r+0x44>
   22144:	dfc00217 	ldw	ra,8(sp)
   22148:	dc400117 	ldw	r17,4(sp)
   2214c:	dc000017 	ldw	r16,0(sp)
   22150:	dec00304 	addi	sp,sp,12
   22154:	f800283a 	ret
   22158:	80c00017 	ldw	r3,0(r16)
   2215c:	183ff926 	beq	r3,zero,22144 <__alt_data_end+0xfffe2d44>
   22160:	88c00015 	stw	r3,0(r17)
   22164:	003ff706 	br	22144 <__alt_data_end+0xfffe2d44>

00022168 <__sread>:
   22168:	defffe04 	addi	sp,sp,-8
   2216c:	dc000015 	stw	r16,0(sp)
   22170:	2821883a 	mov	r16,r5
   22174:	2940038f 	ldh	r5,14(r5)
   22178:	dfc00115 	stw	ra,4(sp)
   2217c:	0022ea80 	call	22ea8 <_read_r>
   22180:	10000716 	blt	r2,zero,221a0 <__sread+0x38>
   22184:	80c01417 	ldw	r3,80(r16)
   22188:	1887883a 	add	r3,r3,r2
   2218c:	80c01415 	stw	r3,80(r16)
   22190:	dfc00117 	ldw	ra,4(sp)
   22194:	dc000017 	ldw	r16,0(sp)
   22198:	dec00204 	addi	sp,sp,8
   2219c:	f800283a 	ret
   221a0:	80c0030b 	ldhu	r3,12(r16)
   221a4:	18fbffcc 	andi	r3,r3,61439
   221a8:	80c0030d 	sth	r3,12(r16)
   221ac:	dfc00117 	ldw	ra,4(sp)
   221b0:	dc000017 	ldw	r16,0(sp)
   221b4:	dec00204 	addi	sp,sp,8
   221b8:	f800283a 	ret

000221bc <__seofread>:
   221bc:	0005883a 	mov	r2,zero
   221c0:	f800283a 	ret

000221c4 <__swrite>:
   221c4:	2880030b 	ldhu	r2,12(r5)
   221c8:	defffb04 	addi	sp,sp,-20
   221cc:	dcc00315 	stw	r19,12(sp)
   221d0:	dc800215 	stw	r18,8(sp)
   221d4:	dc400115 	stw	r17,4(sp)
   221d8:	dc000015 	stw	r16,0(sp)
   221dc:	dfc00415 	stw	ra,16(sp)
   221e0:	10c0400c 	andi	r3,r2,256
   221e4:	2821883a 	mov	r16,r5
   221e8:	2023883a 	mov	r17,r4
   221ec:	3025883a 	mov	r18,r6
   221f0:	3827883a 	mov	r19,r7
   221f4:	18000526 	beq	r3,zero,2220c <__swrite+0x48>
   221f8:	2940038f 	ldh	r5,14(r5)
   221fc:	01c00084 	movi	r7,2
   22200:	000d883a 	mov	r6,zero
   22204:	0022c8c0 	call	22c8c <_lseek_r>
   22208:	8080030b 	ldhu	r2,12(r16)
   2220c:	8140038f 	ldh	r5,14(r16)
   22210:	10bbffcc 	andi	r2,r2,61439
   22214:	980f883a 	mov	r7,r19
   22218:	900d883a 	mov	r6,r18
   2221c:	8809883a 	mov	r4,r17
   22220:	8080030d 	sth	r2,12(r16)
   22224:	dfc00417 	ldw	ra,16(sp)
   22228:	dcc00317 	ldw	r19,12(sp)
   2222c:	dc800217 	ldw	r18,8(sp)
   22230:	dc400117 	ldw	r17,4(sp)
   22234:	dc000017 	ldw	r16,0(sp)
   22238:	dec00504 	addi	sp,sp,20
   2223c:	00222a41 	jmpi	222a4 <_write_r>

00022240 <__sseek>:
   22240:	defffe04 	addi	sp,sp,-8
   22244:	dc000015 	stw	r16,0(sp)
   22248:	2821883a 	mov	r16,r5
   2224c:	2940038f 	ldh	r5,14(r5)
   22250:	dfc00115 	stw	ra,4(sp)
   22254:	0022c8c0 	call	22c8c <_lseek_r>
   22258:	00ffffc4 	movi	r3,-1
   2225c:	10c00826 	beq	r2,r3,22280 <__sseek+0x40>
   22260:	80c0030b 	ldhu	r3,12(r16)
   22264:	80801415 	stw	r2,80(r16)
   22268:	18c40014 	ori	r3,r3,4096
   2226c:	80c0030d 	sth	r3,12(r16)
   22270:	dfc00117 	ldw	ra,4(sp)
   22274:	dc000017 	ldw	r16,0(sp)
   22278:	dec00204 	addi	sp,sp,8
   2227c:	f800283a 	ret
   22280:	80c0030b 	ldhu	r3,12(r16)
   22284:	18fbffcc 	andi	r3,r3,61439
   22288:	80c0030d 	sth	r3,12(r16)
   2228c:	dfc00117 	ldw	ra,4(sp)
   22290:	dc000017 	ldw	r16,0(sp)
   22294:	dec00204 	addi	sp,sp,8
   22298:	f800283a 	ret

0002229c <__sclose>:
   2229c:	2940038f 	ldh	r5,14(r5)
   222a0:	00224581 	jmpi	22458 <_close_r>

000222a4 <_write_r>:
   222a4:	defffd04 	addi	sp,sp,-12
   222a8:	2805883a 	mov	r2,r5
   222ac:	dc000015 	stw	r16,0(sp)
   222b0:	040000f4 	movhi	r16,3
   222b4:	dc400115 	stw	r17,4(sp)
   222b8:	300b883a 	mov	r5,r6
   222bc:	84047d04 	addi	r16,r16,4596
   222c0:	2023883a 	mov	r17,r4
   222c4:	380d883a 	mov	r6,r7
   222c8:	1009883a 	mov	r4,r2
   222cc:	dfc00215 	stw	ra,8(sp)
   222d0:	80000015 	stw	zero,0(r16)
   222d4:	0023a200 	call	23a20 <write>
   222d8:	00ffffc4 	movi	r3,-1
   222dc:	10c00526 	beq	r2,r3,222f4 <_write_r+0x50>
   222e0:	dfc00217 	ldw	ra,8(sp)
   222e4:	dc400117 	ldw	r17,4(sp)
   222e8:	dc000017 	ldw	r16,0(sp)
   222ec:	dec00304 	addi	sp,sp,12
   222f0:	f800283a 	ret
   222f4:	80c00017 	ldw	r3,0(r16)
   222f8:	183ff926 	beq	r3,zero,222e0 <__alt_data_end+0xfffe2ee0>
   222fc:	88c00015 	stw	r3,0(r17)
   22300:	003ff706 	br	222e0 <__alt_data_end+0xfffe2ee0>

00022304 <__swsetup_r>:
   22304:	008000f4 	movhi	r2,3
   22308:	defffd04 	addi	sp,sp,-12
   2230c:	10bd9104 	addi	r2,r2,-2492
   22310:	dc400115 	stw	r17,4(sp)
   22314:	2023883a 	mov	r17,r4
   22318:	11000017 	ldw	r4,0(r2)
   2231c:	dc000015 	stw	r16,0(sp)
   22320:	dfc00215 	stw	ra,8(sp)
   22324:	2821883a 	mov	r16,r5
   22328:	20000226 	beq	r4,zero,22334 <__swsetup_r+0x30>
   2232c:	20800e17 	ldw	r2,56(r4)
   22330:	10003126 	beq	r2,zero,223f8 <__swsetup_r+0xf4>
   22334:	8080030b 	ldhu	r2,12(r16)
   22338:	10c0020c 	andi	r3,r2,8
   2233c:	1009883a 	mov	r4,r2
   22340:	18000f26 	beq	r3,zero,22380 <__swsetup_r+0x7c>
   22344:	80c00417 	ldw	r3,16(r16)
   22348:	18001526 	beq	r3,zero,223a0 <__swsetup_r+0x9c>
   2234c:	1100004c 	andi	r4,r2,1
   22350:	20001c1e 	bne	r4,zero,223c4 <__swsetup_r+0xc0>
   22354:	1080008c 	andi	r2,r2,2
   22358:	1000291e 	bne	r2,zero,22400 <__swsetup_r+0xfc>
   2235c:	80800517 	ldw	r2,20(r16)
   22360:	80800215 	stw	r2,8(r16)
   22364:	18001c26 	beq	r3,zero,223d8 <__swsetup_r+0xd4>
   22368:	0005883a 	mov	r2,zero
   2236c:	dfc00217 	ldw	ra,8(sp)
   22370:	dc400117 	ldw	r17,4(sp)
   22374:	dc000017 	ldw	r16,0(sp)
   22378:	dec00304 	addi	sp,sp,12
   2237c:	f800283a 	ret
   22380:	2080040c 	andi	r2,r4,16
   22384:	10002e26 	beq	r2,zero,22440 <__swsetup_r+0x13c>
   22388:	2080010c 	andi	r2,r4,4
   2238c:	10001e1e 	bne	r2,zero,22408 <__swsetup_r+0x104>
   22390:	80c00417 	ldw	r3,16(r16)
   22394:	20800214 	ori	r2,r4,8
   22398:	8080030d 	sth	r2,12(r16)
   2239c:	183feb1e 	bne	r3,zero,2234c <__alt_data_end+0xfffe2f4c>
   223a0:	1100a00c 	andi	r4,r2,640
   223a4:	01408004 	movi	r5,512
   223a8:	217fe826 	beq	r4,r5,2234c <__alt_data_end+0xfffe2f4c>
   223ac:	800b883a 	mov	r5,r16
   223b0:	8809883a 	mov	r4,r17
   223b4:	0022cec0 	call	22cec <__smakebuf_r>
   223b8:	8080030b 	ldhu	r2,12(r16)
   223bc:	80c00417 	ldw	r3,16(r16)
   223c0:	003fe206 	br	2234c <__alt_data_end+0xfffe2f4c>
   223c4:	80800517 	ldw	r2,20(r16)
   223c8:	80000215 	stw	zero,8(r16)
   223cc:	0085c83a 	sub	r2,zero,r2
   223d0:	80800615 	stw	r2,24(r16)
   223d4:	183fe41e 	bne	r3,zero,22368 <__alt_data_end+0xfffe2f68>
   223d8:	80c0030b 	ldhu	r3,12(r16)
   223dc:	0005883a 	mov	r2,zero
   223e0:	1900200c 	andi	r4,r3,128
   223e4:	203fe126 	beq	r4,zero,2236c <__alt_data_end+0xfffe2f6c>
   223e8:	18c01014 	ori	r3,r3,64
   223ec:	80c0030d 	sth	r3,12(r16)
   223f0:	00bfffc4 	movi	r2,-1
   223f4:	003fdd06 	br	2236c <__alt_data_end+0xfffe2f6c>
   223f8:	00208540 	call	20854 <__sinit>
   223fc:	003fcd06 	br	22334 <__alt_data_end+0xfffe2f34>
   22400:	0005883a 	mov	r2,zero
   22404:	003fd606 	br	22360 <__alt_data_end+0xfffe2f60>
   22408:	81400c17 	ldw	r5,48(r16)
   2240c:	28000626 	beq	r5,zero,22428 <__swsetup_r+0x124>
   22410:	80801004 	addi	r2,r16,64
   22414:	28800326 	beq	r5,r2,22424 <__swsetup_r+0x120>
   22418:	8809883a 	mov	r4,r17
   2241c:	002297c0 	call	2297c <_free_r>
   22420:	8100030b 	ldhu	r4,12(r16)
   22424:	80000c15 	stw	zero,48(r16)
   22428:	80c00417 	ldw	r3,16(r16)
   2242c:	00bff6c4 	movi	r2,-37
   22430:	1108703a 	and	r4,r2,r4
   22434:	80000115 	stw	zero,4(r16)
   22438:	80c00015 	stw	r3,0(r16)
   2243c:	003fd506 	br	22394 <__alt_data_end+0xfffe2f94>
   22440:	00800244 	movi	r2,9
   22444:	88800015 	stw	r2,0(r17)
   22448:	20801014 	ori	r2,r4,64
   2244c:	8080030d 	sth	r2,12(r16)
   22450:	00bfffc4 	movi	r2,-1
   22454:	003fc506 	br	2236c <__alt_data_end+0xfffe2f6c>

00022458 <_close_r>:
   22458:	defffd04 	addi	sp,sp,-12
   2245c:	dc000015 	stw	r16,0(sp)
   22460:	040000f4 	movhi	r16,3
   22464:	dc400115 	stw	r17,4(sp)
   22468:	84047d04 	addi	r16,r16,4596
   2246c:	2023883a 	mov	r17,r4
   22470:	2809883a 	mov	r4,r5
   22474:	dfc00215 	stw	ra,8(sp)
   22478:	80000015 	stw	zero,0(r16)
   2247c:	00231d00 	call	231d0 <close>
   22480:	00ffffc4 	movi	r3,-1
   22484:	10c00526 	beq	r2,r3,2249c <_close_r+0x44>
   22488:	dfc00217 	ldw	ra,8(sp)
   2248c:	dc400117 	ldw	r17,4(sp)
   22490:	dc000017 	ldw	r16,0(sp)
   22494:	dec00304 	addi	sp,sp,12
   22498:	f800283a 	ret
   2249c:	80c00017 	ldw	r3,0(r16)
   224a0:	183ff926 	beq	r3,zero,22488 <__alt_data_end+0xfffe3088>
   224a4:	88c00015 	stw	r3,0(r17)
   224a8:	003ff706 	br	22488 <__alt_data_end+0xfffe3088>

000224ac <_fclose_r>:
   224ac:	28003926 	beq	r5,zero,22594 <_fclose_r+0xe8>
   224b0:	defffc04 	addi	sp,sp,-16
   224b4:	dc400115 	stw	r17,4(sp)
   224b8:	dc000015 	stw	r16,0(sp)
   224bc:	dfc00315 	stw	ra,12(sp)
   224c0:	dc800215 	stw	r18,8(sp)
   224c4:	2023883a 	mov	r17,r4
   224c8:	2821883a 	mov	r16,r5
   224cc:	20000226 	beq	r4,zero,224d8 <_fclose_r+0x2c>
   224d0:	20800e17 	ldw	r2,56(r4)
   224d4:	10002726 	beq	r2,zero,22574 <_fclose_r+0xc8>
   224d8:	8080030f 	ldh	r2,12(r16)
   224dc:	1000071e 	bne	r2,zero,224fc <_fclose_r+0x50>
   224e0:	0005883a 	mov	r2,zero
   224e4:	dfc00317 	ldw	ra,12(sp)
   224e8:	dc800217 	ldw	r18,8(sp)
   224ec:	dc400117 	ldw	r17,4(sp)
   224f0:	dc000017 	ldw	r16,0(sp)
   224f4:	dec00404 	addi	sp,sp,16
   224f8:	f800283a 	ret
   224fc:	800b883a 	mov	r5,r16
   22500:	8809883a 	mov	r4,r17
   22504:	00225b00 	call	225b0 <__sflush_r>
   22508:	1025883a 	mov	r18,r2
   2250c:	80800b17 	ldw	r2,44(r16)
   22510:	10000426 	beq	r2,zero,22524 <_fclose_r+0x78>
   22514:	81400717 	ldw	r5,28(r16)
   22518:	8809883a 	mov	r4,r17
   2251c:	103ee83a 	callr	r2
   22520:	10001616 	blt	r2,zero,2257c <_fclose_r+0xd0>
   22524:	8080030b 	ldhu	r2,12(r16)
   22528:	1080200c 	andi	r2,r2,128
   2252c:	1000151e 	bne	r2,zero,22584 <_fclose_r+0xd8>
   22530:	81400c17 	ldw	r5,48(r16)
   22534:	28000526 	beq	r5,zero,2254c <_fclose_r+0xa0>
   22538:	80801004 	addi	r2,r16,64
   2253c:	28800226 	beq	r5,r2,22548 <_fclose_r+0x9c>
   22540:	8809883a 	mov	r4,r17
   22544:	002297c0 	call	2297c <_free_r>
   22548:	80000c15 	stw	zero,48(r16)
   2254c:	81401117 	ldw	r5,68(r16)
   22550:	28000326 	beq	r5,zero,22560 <_fclose_r+0xb4>
   22554:	8809883a 	mov	r4,r17
   22558:	002297c0 	call	2297c <_free_r>
   2255c:	80001115 	stw	zero,68(r16)
   22560:	00208640 	call	20864 <__sfp_lock_acquire>
   22564:	8000030d 	sth	zero,12(r16)
   22568:	00208680 	call	20868 <__sfp_lock_release>
   2256c:	9005883a 	mov	r2,r18
   22570:	003fdc06 	br	224e4 <__alt_data_end+0xfffe30e4>
   22574:	00208540 	call	20854 <__sinit>
   22578:	003fd706 	br	224d8 <__alt_data_end+0xfffe30d8>
   2257c:	04bfffc4 	movi	r18,-1
   22580:	003fe806 	br	22524 <__alt_data_end+0xfffe3124>
   22584:	81400417 	ldw	r5,16(r16)
   22588:	8809883a 	mov	r4,r17
   2258c:	002297c0 	call	2297c <_free_r>
   22590:	003fe706 	br	22530 <__alt_data_end+0xfffe3130>
   22594:	0005883a 	mov	r2,zero
   22598:	f800283a 	ret

0002259c <fclose>:
   2259c:	008000f4 	movhi	r2,3
   225a0:	10bd9104 	addi	r2,r2,-2492
   225a4:	200b883a 	mov	r5,r4
   225a8:	11000017 	ldw	r4,0(r2)
   225ac:	00224ac1 	jmpi	224ac <_fclose_r>

000225b0 <__sflush_r>:
   225b0:	2880030b 	ldhu	r2,12(r5)
   225b4:	defffb04 	addi	sp,sp,-20
   225b8:	dcc00315 	stw	r19,12(sp)
   225bc:	dc400115 	stw	r17,4(sp)
   225c0:	dfc00415 	stw	ra,16(sp)
   225c4:	dc800215 	stw	r18,8(sp)
   225c8:	dc000015 	stw	r16,0(sp)
   225cc:	10c0020c 	andi	r3,r2,8
   225d0:	2823883a 	mov	r17,r5
   225d4:	2027883a 	mov	r19,r4
   225d8:	1800311e 	bne	r3,zero,226a0 <__sflush_r+0xf0>
   225dc:	28c00117 	ldw	r3,4(r5)
   225e0:	10820014 	ori	r2,r2,2048
   225e4:	2880030d 	sth	r2,12(r5)
   225e8:	00c04b0e 	bge	zero,r3,22718 <__sflush_r+0x168>
   225ec:	8a000a17 	ldw	r8,40(r17)
   225f0:	40002326 	beq	r8,zero,22680 <__sflush_r+0xd0>
   225f4:	9c000017 	ldw	r16,0(r19)
   225f8:	10c4000c 	andi	r3,r2,4096
   225fc:	98000015 	stw	zero,0(r19)
   22600:	18004826 	beq	r3,zero,22724 <__sflush_r+0x174>
   22604:	89801417 	ldw	r6,80(r17)
   22608:	10c0010c 	andi	r3,r2,4
   2260c:	18000626 	beq	r3,zero,22628 <__sflush_r+0x78>
   22610:	88c00117 	ldw	r3,4(r17)
   22614:	88800c17 	ldw	r2,48(r17)
   22618:	30cdc83a 	sub	r6,r6,r3
   2261c:	10000226 	beq	r2,zero,22628 <__sflush_r+0x78>
   22620:	88800f17 	ldw	r2,60(r17)
   22624:	308dc83a 	sub	r6,r6,r2
   22628:	89400717 	ldw	r5,28(r17)
   2262c:	000f883a 	mov	r7,zero
   22630:	9809883a 	mov	r4,r19
   22634:	403ee83a 	callr	r8
   22638:	00ffffc4 	movi	r3,-1
   2263c:	10c04426 	beq	r2,r3,22750 <__sflush_r+0x1a0>
   22640:	88c0030b 	ldhu	r3,12(r17)
   22644:	89000417 	ldw	r4,16(r17)
   22648:	88000115 	stw	zero,4(r17)
   2264c:	197dffcc 	andi	r5,r3,63487
   22650:	8940030d 	sth	r5,12(r17)
   22654:	89000015 	stw	r4,0(r17)
   22658:	18c4000c 	andi	r3,r3,4096
   2265c:	18002c1e 	bne	r3,zero,22710 <__sflush_r+0x160>
   22660:	89400c17 	ldw	r5,48(r17)
   22664:	9c000015 	stw	r16,0(r19)
   22668:	28000526 	beq	r5,zero,22680 <__sflush_r+0xd0>
   2266c:	88801004 	addi	r2,r17,64
   22670:	28800226 	beq	r5,r2,2267c <__sflush_r+0xcc>
   22674:	9809883a 	mov	r4,r19
   22678:	002297c0 	call	2297c <_free_r>
   2267c:	88000c15 	stw	zero,48(r17)
   22680:	0005883a 	mov	r2,zero
   22684:	dfc00417 	ldw	ra,16(sp)
   22688:	dcc00317 	ldw	r19,12(sp)
   2268c:	dc800217 	ldw	r18,8(sp)
   22690:	dc400117 	ldw	r17,4(sp)
   22694:	dc000017 	ldw	r16,0(sp)
   22698:	dec00504 	addi	sp,sp,20
   2269c:	f800283a 	ret
   226a0:	2c800417 	ldw	r18,16(r5)
   226a4:	903ff626 	beq	r18,zero,22680 <__alt_data_end+0xfffe3280>
   226a8:	2c000017 	ldw	r16,0(r5)
   226ac:	108000cc 	andi	r2,r2,3
   226b0:	2c800015 	stw	r18,0(r5)
   226b4:	84a1c83a 	sub	r16,r16,r18
   226b8:	1000131e 	bne	r2,zero,22708 <__sflush_r+0x158>
   226bc:	28800517 	ldw	r2,20(r5)
   226c0:	88800215 	stw	r2,8(r17)
   226c4:	04000316 	blt	zero,r16,226d4 <__sflush_r+0x124>
   226c8:	003fed06 	br	22680 <__alt_data_end+0xfffe3280>
   226cc:	90a5883a 	add	r18,r18,r2
   226d0:	043feb0e 	bge	zero,r16,22680 <__alt_data_end+0xfffe3280>
   226d4:	88800917 	ldw	r2,36(r17)
   226d8:	89400717 	ldw	r5,28(r17)
   226dc:	800f883a 	mov	r7,r16
   226e0:	900d883a 	mov	r6,r18
   226e4:	9809883a 	mov	r4,r19
   226e8:	103ee83a 	callr	r2
   226ec:	80a1c83a 	sub	r16,r16,r2
   226f0:	00bff616 	blt	zero,r2,226cc <__alt_data_end+0xfffe32cc>
   226f4:	88c0030b 	ldhu	r3,12(r17)
   226f8:	00bfffc4 	movi	r2,-1
   226fc:	18c01014 	ori	r3,r3,64
   22700:	88c0030d 	sth	r3,12(r17)
   22704:	003fdf06 	br	22684 <__alt_data_end+0xfffe3284>
   22708:	0005883a 	mov	r2,zero
   2270c:	003fec06 	br	226c0 <__alt_data_end+0xfffe32c0>
   22710:	88801415 	stw	r2,80(r17)
   22714:	003fd206 	br	22660 <__alt_data_end+0xfffe3260>
   22718:	28c00f17 	ldw	r3,60(r5)
   2271c:	00ffb316 	blt	zero,r3,225ec <__alt_data_end+0xfffe31ec>
   22720:	003fd706 	br	22680 <__alt_data_end+0xfffe3280>
   22724:	89400717 	ldw	r5,28(r17)
   22728:	000d883a 	mov	r6,zero
   2272c:	01c00044 	movi	r7,1
   22730:	9809883a 	mov	r4,r19
   22734:	403ee83a 	callr	r8
   22738:	100d883a 	mov	r6,r2
   2273c:	00bfffc4 	movi	r2,-1
   22740:	30801426 	beq	r6,r2,22794 <__sflush_r+0x1e4>
   22744:	8880030b 	ldhu	r2,12(r17)
   22748:	8a000a17 	ldw	r8,40(r17)
   2274c:	003fae06 	br	22608 <__alt_data_end+0xfffe3208>
   22750:	98c00017 	ldw	r3,0(r19)
   22754:	183fba26 	beq	r3,zero,22640 <__alt_data_end+0xfffe3240>
   22758:	01000744 	movi	r4,29
   2275c:	19000626 	beq	r3,r4,22778 <__sflush_r+0x1c8>
   22760:	01000584 	movi	r4,22
   22764:	19000426 	beq	r3,r4,22778 <__sflush_r+0x1c8>
   22768:	88c0030b 	ldhu	r3,12(r17)
   2276c:	18c01014 	ori	r3,r3,64
   22770:	88c0030d 	sth	r3,12(r17)
   22774:	003fc306 	br	22684 <__alt_data_end+0xfffe3284>
   22778:	8880030b 	ldhu	r2,12(r17)
   2277c:	88c00417 	ldw	r3,16(r17)
   22780:	88000115 	stw	zero,4(r17)
   22784:	10bdffcc 	andi	r2,r2,63487
   22788:	8880030d 	sth	r2,12(r17)
   2278c:	88c00015 	stw	r3,0(r17)
   22790:	003fb306 	br	22660 <__alt_data_end+0xfffe3260>
   22794:	98800017 	ldw	r2,0(r19)
   22798:	103fea26 	beq	r2,zero,22744 <__alt_data_end+0xfffe3344>
   2279c:	00c00744 	movi	r3,29
   227a0:	10c00226 	beq	r2,r3,227ac <__sflush_r+0x1fc>
   227a4:	00c00584 	movi	r3,22
   227a8:	10c0031e 	bne	r2,r3,227b8 <__sflush_r+0x208>
   227ac:	9c000015 	stw	r16,0(r19)
   227b0:	0005883a 	mov	r2,zero
   227b4:	003fb306 	br	22684 <__alt_data_end+0xfffe3284>
   227b8:	88c0030b 	ldhu	r3,12(r17)
   227bc:	3005883a 	mov	r2,r6
   227c0:	18c01014 	ori	r3,r3,64
   227c4:	88c0030d 	sth	r3,12(r17)
   227c8:	003fae06 	br	22684 <__alt_data_end+0xfffe3284>

000227cc <_fflush_r>:
   227cc:	defffd04 	addi	sp,sp,-12
   227d0:	dc000115 	stw	r16,4(sp)
   227d4:	dfc00215 	stw	ra,8(sp)
   227d8:	2021883a 	mov	r16,r4
   227dc:	20000226 	beq	r4,zero,227e8 <_fflush_r+0x1c>
   227e0:	20800e17 	ldw	r2,56(r4)
   227e4:	10000c26 	beq	r2,zero,22818 <_fflush_r+0x4c>
   227e8:	2880030f 	ldh	r2,12(r5)
   227ec:	1000051e 	bne	r2,zero,22804 <_fflush_r+0x38>
   227f0:	0005883a 	mov	r2,zero
   227f4:	dfc00217 	ldw	ra,8(sp)
   227f8:	dc000117 	ldw	r16,4(sp)
   227fc:	dec00304 	addi	sp,sp,12
   22800:	f800283a 	ret
   22804:	8009883a 	mov	r4,r16
   22808:	dfc00217 	ldw	ra,8(sp)
   2280c:	dc000117 	ldw	r16,4(sp)
   22810:	dec00304 	addi	sp,sp,12
   22814:	00225b01 	jmpi	225b0 <__sflush_r>
   22818:	d9400015 	stw	r5,0(sp)
   2281c:	00208540 	call	20854 <__sinit>
   22820:	d9400017 	ldw	r5,0(sp)
   22824:	003ff006 	br	227e8 <__alt_data_end+0xfffe33e8>

00022828 <fflush>:
   22828:	20000526 	beq	r4,zero,22840 <fflush+0x18>
   2282c:	008000f4 	movhi	r2,3
   22830:	10bd9104 	addi	r2,r2,-2492
   22834:	200b883a 	mov	r5,r4
   22838:	11000017 	ldw	r4,0(r2)
   2283c:	00227cc1 	jmpi	227cc <_fflush_r>
   22840:	008000f4 	movhi	r2,3
   22844:	10bd9004 	addi	r2,r2,-2496
   22848:	11000017 	ldw	r4,0(r2)
   2284c:	014000b4 	movhi	r5,2
   22850:	2949f304 	addi	r5,r5,10188
   22854:	0020e301 	jmpi	20e30 <_fwalk_reent>

00022858 <_malloc_trim_r>:
   22858:	defffb04 	addi	sp,sp,-20
   2285c:	dcc00315 	stw	r19,12(sp)
   22860:	04c000f4 	movhi	r19,3
   22864:	dc800215 	stw	r18,8(sp)
   22868:	dc400115 	stw	r17,4(sp)
   2286c:	dc000015 	stw	r16,0(sp)
   22870:	dfc00415 	stw	ra,16(sp)
   22874:	2821883a 	mov	r16,r5
   22878:	9cf80904 	addi	r19,r19,-8156
   2287c:	2025883a 	mov	r18,r4
   22880:	0023c440 	call	23c44 <__malloc_lock>
   22884:	98800217 	ldw	r2,8(r19)
   22888:	14400117 	ldw	r17,4(r2)
   2288c:	00bfff04 	movi	r2,-4
   22890:	88a2703a 	and	r17,r17,r2
   22894:	8c21c83a 	sub	r16,r17,r16
   22898:	8403fbc4 	addi	r16,r16,4079
   2289c:	8020d33a 	srli	r16,r16,12
   228a0:	0083ffc4 	movi	r2,4095
   228a4:	843fffc4 	addi	r16,r16,-1
   228a8:	8020933a 	slli	r16,r16,12
   228ac:	1400060e 	bge	r2,r16,228c8 <_malloc_trim_r+0x70>
   228b0:	000b883a 	mov	r5,zero
   228b4:	9009883a 	mov	r4,r18
   228b8:	00221140 	call	22114 <_sbrk_r>
   228bc:	98c00217 	ldw	r3,8(r19)
   228c0:	1c47883a 	add	r3,r3,r17
   228c4:	10c00a26 	beq	r2,r3,228f0 <_malloc_trim_r+0x98>
   228c8:	9009883a 	mov	r4,r18
   228cc:	0023d640 	call	23d64 <__malloc_unlock>
   228d0:	0005883a 	mov	r2,zero
   228d4:	dfc00417 	ldw	ra,16(sp)
   228d8:	dcc00317 	ldw	r19,12(sp)
   228dc:	dc800217 	ldw	r18,8(sp)
   228e0:	dc400117 	ldw	r17,4(sp)
   228e4:	dc000017 	ldw	r16,0(sp)
   228e8:	dec00504 	addi	sp,sp,20
   228ec:	f800283a 	ret
   228f0:	040bc83a 	sub	r5,zero,r16
   228f4:	9009883a 	mov	r4,r18
   228f8:	00221140 	call	22114 <_sbrk_r>
   228fc:	00ffffc4 	movi	r3,-1
   22900:	10c00d26 	beq	r2,r3,22938 <_malloc_trim_r+0xe0>
   22904:	00c000f4 	movhi	r3,3
   22908:	18c49e04 	addi	r3,r3,4728
   2290c:	18800017 	ldw	r2,0(r3)
   22910:	99000217 	ldw	r4,8(r19)
   22914:	8c23c83a 	sub	r17,r17,r16
   22918:	8c400054 	ori	r17,r17,1
   2291c:	1421c83a 	sub	r16,r2,r16
   22920:	24400115 	stw	r17,4(r4)
   22924:	9009883a 	mov	r4,r18
   22928:	1c000015 	stw	r16,0(r3)
   2292c:	0023d640 	call	23d64 <__malloc_unlock>
   22930:	00800044 	movi	r2,1
   22934:	003fe706 	br	228d4 <__alt_data_end+0xfffe34d4>
   22938:	000b883a 	mov	r5,zero
   2293c:	9009883a 	mov	r4,r18
   22940:	00221140 	call	22114 <_sbrk_r>
   22944:	99000217 	ldw	r4,8(r19)
   22948:	014003c4 	movi	r5,15
   2294c:	1107c83a 	sub	r3,r2,r4
   22950:	28ffdd0e 	bge	r5,r3,228c8 <__alt_data_end+0xfffe34c8>
   22954:	014000f4 	movhi	r5,3
   22958:	297d9204 	addi	r5,r5,-2488
   2295c:	29400017 	ldw	r5,0(r5)
   22960:	18c00054 	ori	r3,r3,1
   22964:	20c00115 	stw	r3,4(r4)
   22968:	00c000f4 	movhi	r3,3
   2296c:	1145c83a 	sub	r2,r2,r5
   22970:	18c49e04 	addi	r3,r3,4728
   22974:	18800015 	stw	r2,0(r3)
   22978:	003fd306 	br	228c8 <__alt_data_end+0xfffe34c8>

0002297c <_free_r>:
   2297c:	28004126 	beq	r5,zero,22a84 <_free_r+0x108>
   22980:	defffd04 	addi	sp,sp,-12
   22984:	dc400115 	stw	r17,4(sp)
   22988:	dc000015 	stw	r16,0(sp)
   2298c:	2023883a 	mov	r17,r4
   22990:	2821883a 	mov	r16,r5
   22994:	dfc00215 	stw	ra,8(sp)
   22998:	0023c440 	call	23c44 <__malloc_lock>
   2299c:	81ffff17 	ldw	r7,-4(r16)
   229a0:	00bfff84 	movi	r2,-2
   229a4:	010000f4 	movhi	r4,3
   229a8:	81bffe04 	addi	r6,r16,-8
   229ac:	3884703a 	and	r2,r7,r2
   229b0:	21380904 	addi	r4,r4,-8156
   229b4:	308b883a 	add	r5,r6,r2
   229b8:	2a400117 	ldw	r9,4(r5)
   229bc:	22000217 	ldw	r8,8(r4)
   229c0:	00ffff04 	movi	r3,-4
   229c4:	48c6703a 	and	r3,r9,r3
   229c8:	2a005726 	beq	r5,r8,22b28 <_free_r+0x1ac>
   229cc:	28c00115 	stw	r3,4(r5)
   229d0:	39c0004c 	andi	r7,r7,1
   229d4:	3800091e 	bne	r7,zero,229fc <_free_r+0x80>
   229d8:	823ffe17 	ldw	r8,-8(r16)
   229dc:	22400204 	addi	r9,r4,8
   229e0:	320dc83a 	sub	r6,r6,r8
   229e4:	31c00217 	ldw	r7,8(r6)
   229e8:	1205883a 	add	r2,r2,r8
   229ec:	3a406526 	beq	r7,r9,22b84 <_free_r+0x208>
   229f0:	32000317 	ldw	r8,12(r6)
   229f4:	3a000315 	stw	r8,12(r7)
   229f8:	41c00215 	stw	r7,8(r8)
   229fc:	28cf883a 	add	r7,r5,r3
   22a00:	39c00117 	ldw	r7,4(r7)
   22a04:	39c0004c 	andi	r7,r7,1
   22a08:	38003a26 	beq	r7,zero,22af4 <_free_r+0x178>
   22a0c:	10c00054 	ori	r3,r2,1
   22a10:	30c00115 	stw	r3,4(r6)
   22a14:	3087883a 	add	r3,r6,r2
   22a18:	18800015 	stw	r2,0(r3)
   22a1c:	00c07fc4 	movi	r3,511
   22a20:	18801936 	bltu	r3,r2,22a88 <_free_r+0x10c>
   22a24:	1004d0fa 	srli	r2,r2,3
   22a28:	01c00044 	movi	r7,1
   22a2c:	21400117 	ldw	r5,4(r4)
   22a30:	10c00044 	addi	r3,r2,1
   22a34:	18c7883a 	add	r3,r3,r3
   22a38:	1005d0ba 	srai	r2,r2,2
   22a3c:	18c7883a 	add	r3,r3,r3
   22a40:	18c7883a 	add	r3,r3,r3
   22a44:	1907883a 	add	r3,r3,r4
   22a48:	3884983a 	sll	r2,r7,r2
   22a4c:	19c00017 	ldw	r7,0(r3)
   22a50:	1a3ffe04 	addi	r8,r3,-8
   22a54:	1144b03a 	or	r2,r2,r5
   22a58:	32000315 	stw	r8,12(r6)
   22a5c:	31c00215 	stw	r7,8(r6)
   22a60:	20800115 	stw	r2,4(r4)
   22a64:	19800015 	stw	r6,0(r3)
   22a68:	39800315 	stw	r6,12(r7)
   22a6c:	8809883a 	mov	r4,r17
   22a70:	dfc00217 	ldw	ra,8(sp)
   22a74:	dc400117 	ldw	r17,4(sp)
   22a78:	dc000017 	ldw	r16,0(sp)
   22a7c:	dec00304 	addi	sp,sp,12
   22a80:	0023d641 	jmpi	23d64 <__malloc_unlock>
   22a84:	f800283a 	ret
   22a88:	100ad27a 	srli	r5,r2,9
   22a8c:	00c00104 	movi	r3,4
   22a90:	19404a36 	bltu	r3,r5,22bbc <_free_r+0x240>
   22a94:	100ad1ba 	srli	r5,r2,6
   22a98:	28c00e44 	addi	r3,r5,57
   22a9c:	18c7883a 	add	r3,r3,r3
   22aa0:	29400e04 	addi	r5,r5,56
   22aa4:	18c7883a 	add	r3,r3,r3
   22aa8:	18c7883a 	add	r3,r3,r3
   22aac:	1909883a 	add	r4,r3,r4
   22ab0:	20c00017 	ldw	r3,0(r4)
   22ab4:	01c000f4 	movhi	r7,3
   22ab8:	213ffe04 	addi	r4,r4,-8
   22abc:	39f80904 	addi	r7,r7,-8156
   22ac0:	20c04426 	beq	r4,r3,22bd4 <_free_r+0x258>
   22ac4:	01ffff04 	movi	r7,-4
   22ac8:	19400117 	ldw	r5,4(r3)
   22acc:	29ca703a 	and	r5,r5,r7
   22ad0:	1140022e 	bgeu	r2,r5,22adc <_free_r+0x160>
   22ad4:	18c00217 	ldw	r3,8(r3)
   22ad8:	20fffb1e 	bne	r4,r3,22ac8 <__alt_data_end+0xfffe36c8>
   22adc:	19000317 	ldw	r4,12(r3)
   22ae0:	31000315 	stw	r4,12(r6)
   22ae4:	30c00215 	stw	r3,8(r6)
   22ae8:	21800215 	stw	r6,8(r4)
   22aec:	19800315 	stw	r6,12(r3)
   22af0:	003fde06 	br	22a6c <__alt_data_end+0xfffe366c>
   22af4:	29c00217 	ldw	r7,8(r5)
   22af8:	10c5883a 	add	r2,r2,r3
   22afc:	00c000f4 	movhi	r3,3
   22b00:	18f80b04 	addi	r3,r3,-8148
   22b04:	38c03b26 	beq	r7,r3,22bf4 <_free_r+0x278>
   22b08:	2a000317 	ldw	r8,12(r5)
   22b0c:	11400054 	ori	r5,r2,1
   22b10:	3087883a 	add	r3,r6,r2
   22b14:	3a000315 	stw	r8,12(r7)
   22b18:	41c00215 	stw	r7,8(r8)
   22b1c:	31400115 	stw	r5,4(r6)
   22b20:	18800015 	stw	r2,0(r3)
   22b24:	003fbd06 	br	22a1c <__alt_data_end+0xfffe361c>
   22b28:	39c0004c 	andi	r7,r7,1
   22b2c:	10c5883a 	add	r2,r2,r3
   22b30:	3800071e 	bne	r7,zero,22b50 <_free_r+0x1d4>
   22b34:	81fffe17 	ldw	r7,-8(r16)
   22b38:	31cdc83a 	sub	r6,r6,r7
   22b3c:	30c00317 	ldw	r3,12(r6)
   22b40:	31400217 	ldw	r5,8(r6)
   22b44:	11c5883a 	add	r2,r2,r7
   22b48:	28c00315 	stw	r3,12(r5)
   22b4c:	19400215 	stw	r5,8(r3)
   22b50:	10c00054 	ori	r3,r2,1
   22b54:	30c00115 	stw	r3,4(r6)
   22b58:	00c000f4 	movhi	r3,3
   22b5c:	18fd9304 	addi	r3,r3,-2484
   22b60:	18c00017 	ldw	r3,0(r3)
   22b64:	21800215 	stw	r6,8(r4)
   22b68:	10ffc036 	bltu	r2,r3,22a6c <__alt_data_end+0xfffe366c>
   22b6c:	008000f4 	movhi	r2,3
   22b70:	10847c04 	addi	r2,r2,4592
   22b74:	11400017 	ldw	r5,0(r2)
   22b78:	8809883a 	mov	r4,r17
   22b7c:	00228580 	call	22858 <_malloc_trim_r>
   22b80:	003fba06 	br	22a6c <__alt_data_end+0xfffe366c>
   22b84:	28c9883a 	add	r4,r5,r3
   22b88:	21000117 	ldw	r4,4(r4)
   22b8c:	2100004c 	andi	r4,r4,1
   22b90:	2000391e 	bne	r4,zero,22c78 <_free_r+0x2fc>
   22b94:	29c00217 	ldw	r7,8(r5)
   22b98:	29000317 	ldw	r4,12(r5)
   22b9c:	1885883a 	add	r2,r3,r2
   22ba0:	10c00054 	ori	r3,r2,1
   22ba4:	39000315 	stw	r4,12(r7)
   22ba8:	21c00215 	stw	r7,8(r4)
   22bac:	30c00115 	stw	r3,4(r6)
   22bb0:	308d883a 	add	r6,r6,r2
   22bb4:	30800015 	stw	r2,0(r6)
   22bb8:	003fac06 	br	22a6c <__alt_data_end+0xfffe366c>
   22bbc:	00c00504 	movi	r3,20
   22bc0:	19401536 	bltu	r3,r5,22c18 <_free_r+0x29c>
   22bc4:	28c01704 	addi	r3,r5,92
   22bc8:	18c7883a 	add	r3,r3,r3
   22bcc:	294016c4 	addi	r5,r5,91
   22bd0:	003fb406 	br	22aa4 <__alt_data_end+0xfffe36a4>
   22bd4:	280bd0ba 	srai	r5,r5,2
   22bd8:	00c00044 	movi	r3,1
   22bdc:	38800117 	ldw	r2,4(r7)
   22be0:	194a983a 	sll	r5,r3,r5
   22be4:	2007883a 	mov	r3,r4
   22be8:	2884b03a 	or	r2,r5,r2
   22bec:	38800115 	stw	r2,4(r7)
   22bf0:	003fbb06 	br	22ae0 <__alt_data_end+0xfffe36e0>
   22bf4:	21800515 	stw	r6,20(r4)
   22bf8:	21800415 	stw	r6,16(r4)
   22bfc:	10c00054 	ori	r3,r2,1
   22c00:	31c00315 	stw	r7,12(r6)
   22c04:	31c00215 	stw	r7,8(r6)
   22c08:	30c00115 	stw	r3,4(r6)
   22c0c:	308d883a 	add	r6,r6,r2
   22c10:	30800015 	stw	r2,0(r6)
   22c14:	003f9506 	br	22a6c <__alt_data_end+0xfffe366c>
   22c18:	00c01504 	movi	r3,84
   22c1c:	19400536 	bltu	r3,r5,22c34 <_free_r+0x2b8>
   22c20:	100ad33a 	srli	r5,r2,12
   22c24:	28c01bc4 	addi	r3,r5,111
   22c28:	18c7883a 	add	r3,r3,r3
   22c2c:	29401b84 	addi	r5,r5,110
   22c30:	003f9c06 	br	22aa4 <__alt_data_end+0xfffe36a4>
   22c34:	00c05504 	movi	r3,340
   22c38:	19400536 	bltu	r3,r5,22c50 <_free_r+0x2d4>
   22c3c:	100ad3fa 	srli	r5,r2,15
   22c40:	28c01e04 	addi	r3,r5,120
   22c44:	18c7883a 	add	r3,r3,r3
   22c48:	29401dc4 	addi	r5,r5,119
   22c4c:	003f9506 	br	22aa4 <__alt_data_end+0xfffe36a4>
   22c50:	00c15504 	movi	r3,1364
   22c54:	19400536 	bltu	r3,r5,22c6c <_free_r+0x2f0>
   22c58:	100ad4ba 	srli	r5,r2,18
   22c5c:	28c01f44 	addi	r3,r5,125
   22c60:	18c7883a 	add	r3,r3,r3
   22c64:	29401f04 	addi	r5,r5,124
   22c68:	003f8e06 	br	22aa4 <__alt_data_end+0xfffe36a4>
   22c6c:	00c03f84 	movi	r3,254
   22c70:	01401f84 	movi	r5,126
   22c74:	003f8b06 	br	22aa4 <__alt_data_end+0xfffe36a4>
   22c78:	10c00054 	ori	r3,r2,1
   22c7c:	30c00115 	stw	r3,4(r6)
   22c80:	308d883a 	add	r6,r6,r2
   22c84:	30800015 	stw	r2,0(r6)
   22c88:	003f7806 	br	22a6c <__alt_data_end+0xfffe366c>

00022c8c <_lseek_r>:
   22c8c:	defffd04 	addi	sp,sp,-12
   22c90:	2805883a 	mov	r2,r5
   22c94:	dc000015 	stw	r16,0(sp)
   22c98:	040000f4 	movhi	r16,3
   22c9c:	dc400115 	stw	r17,4(sp)
   22ca0:	300b883a 	mov	r5,r6
   22ca4:	84047d04 	addi	r16,r16,4596
   22ca8:	2023883a 	mov	r17,r4
   22cac:	380d883a 	mov	r6,r7
   22cb0:	1009883a 	mov	r4,r2
   22cb4:	dfc00215 	stw	ra,8(sp)
   22cb8:	80000015 	stw	zero,0(r16)
   22cbc:	00235d80 	call	235d8 <lseek>
   22cc0:	00ffffc4 	movi	r3,-1
   22cc4:	10c00526 	beq	r2,r3,22cdc <_lseek_r+0x50>
   22cc8:	dfc00217 	ldw	ra,8(sp)
   22ccc:	dc400117 	ldw	r17,4(sp)
   22cd0:	dc000017 	ldw	r16,0(sp)
   22cd4:	dec00304 	addi	sp,sp,12
   22cd8:	f800283a 	ret
   22cdc:	80c00017 	ldw	r3,0(r16)
   22ce0:	183ff926 	beq	r3,zero,22cc8 <__alt_data_end+0xfffe38c8>
   22ce4:	88c00015 	stw	r3,0(r17)
   22ce8:	003ff706 	br	22cc8 <__alt_data_end+0xfffe38c8>

00022cec <__smakebuf_r>:
   22cec:	2880030b 	ldhu	r2,12(r5)
   22cf0:	10c0008c 	andi	r3,r2,2
   22cf4:	1800411e 	bne	r3,zero,22dfc <__smakebuf_r+0x110>
   22cf8:	deffec04 	addi	sp,sp,-80
   22cfc:	dc000f15 	stw	r16,60(sp)
   22d00:	2821883a 	mov	r16,r5
   22d04:	2940038f 	ldh	r5,14(r5)
   22d08:	dc401015 	stw	r17,64(sp)
   22d0c:	dfc01315 	stw	ra,76(sp)
   22d10:	dcc01215 	stw	r19,72(sp)
   22d14:	dc801115 	stw	r18,68(sp)
   22d18:	2023883a 	mov	r17,r4
   22d1c:	28001c16 	blt	r5,zero,22d90 <__smakebuf_r+0xa4>
   22d20:	d80d883a 	mov	r6,sp
   22d24:	0022f080 	call	22f08 <_fstat_r>
   22d28:	10001816 	blt	r2,zero,22d8c <__smakebuf_r+0xa0>
   22d2c:	d8800117 	ldw	r2,4(sp)
   22d30:	00e00014 	movui	r3,32768
   22d34:	10bc000c 	andi	r2,r2,61440
   22d38:	14c80020 	cmpeqi	r19,r2,8192
   22d3c:	10c03726 	beq	r2,r3,22e1c <__smakebuf_r+0x130>
   22d40:	80c0030b 	ldhu	r3,12(r16)
   22d44:	18c20014 	ori	r3,r3,2048
   22d48:	80c0030d 	sth	r3,12(r16)
   22d4c:	00c80004 	movi	r3,8192
   22d50:	10c0521e 	bne	r2,r3,22e9c <__smakebuf_r+0x1b0>
   22d54:	8140038f 	ldh	r5,14(r16)
   22d58:	8809883a 	mov	r4,r17
   22d5c:	0022f640 	call	22f64 <_isatty_r>
   22d60:	10004c26 	beq	r2,zero,22e94 <__smakebuf_r+0x1a8>
   22d64:	8080030b 	ldhu	r2,12(r16)
   22d68:	80c010c4 	addi	r3,r16,67
   22d6c:	80c00015 	stw	r3,0(r16)
   22d70:	10800054 	ori	r2,r2,1
   22d74:	8080030d 	sth	r2,12(r16)
   22d78:	00800044 	movi	r2,1
   22d7c:	80c00415 	stw	r3,16(r16)
   22d80:	80800515 	stw	r2,20(r16)
   22d84:	04810004 	movi	r18,1024
   22d88:	00000706 	br	22da8 <__smakebuf_r+0xbc>
   22d8c:	8080030b 	ldhu	r2,12(r16)
   22d90:	10c0200c 	andi	r3,r2,128
   22d94:	18001f1e 	bne	r3,zero,22e14 <__smakebuf_r+0x128>
   22d98:	04810004 	movi	r18,1024
   22d9c:	10820014 	ori	r2,r2,2048
   22da0:	8080030d 	sth	r2,12(r16)
   22da4:	0027883a 	mov	r19,zero
   22da8:	900b883a 	mov	r5,r18
   22dac:	8809883a 	mov	r4,r17
   22db0:	0020ef40 	call	20ef4 <_malloc_r>
   22db4:	10002c26 	beq	r2,zero,22e68 <__smakebuf_r+0x17c>
   22db8:	80c0030b 	ldhu	r3,12(r16)
   22dbc:	010000b4 	movhi	r4,2
   22dc0:	21013f04 	addi	r4,r4,1276
   22dc4:	89000f15 	stw	r4,60(r17)
   22dc8:	18c02014 	ori	r3,r3,128
   22dcc:	80c0030d 	sth	r3,12(r16)
   22dd0:	80800015 	stw	r2,0(r16)
   22dd4:	80800415 	stw	r2,16(r16)
   22dd8:	84800515 	stw	r18,20(r16)
   22ddc:	98001a1e 	bne	r19,zero,22e48 <__smakebuf_r+0x15c>
   22de0:	dfc01317 	ldw	ra,76(sp)
   22de4:	dcc01217 	ldw	r19,72(sp)
   22de8:	dc801117 	ldw	r18,68(sp)
   22dec:	dc401017 	ldw	r17,64(sp)
   22df0:	dc000f17 	ldw	r16,60(sp)
   22df4:	dec01404 	addi	sp,sp,80
   22df8:	f800283a 	ret
   22dfc:	288010c4 	addi	r2,r5,67
   22e00:	28800015 	stw	r2,0(r5)
   22e04:	28800415 	stw	r2,16(r5)
   22e08:	00800044 	movi	r2,1
   22e0c:	28800515 	stw	r2,20(r5)
   22e10:	f800283a 	ret
   22e14:	04801004 	movi	r18,64
   22e18:	003fe006 	br	22d9c <__alt_data_end+0xfffe399c>
   22e1c:	81000a17 	ldw	r4,40(r16)
   22e20:	00c000b4 	movhi	r3,2
   22e24:	18c89004 	addi	r3,r3,8768
   22e28:	20ffc51e 	bne	r4,r3,22d40 <__alt_data_end+0xfffe3940>
   22e2c:	8080030b 	ldhu	r2,12(r16)
   22e30:	04810004 	movi	r18,1024
   22e34:	84801315 	stw	r18,76(r16)
   22e38:	1484b03a 	or	r2,r2,r18
   22e3c:	8080030d 	sth	r2,12(r16)
   22e40:	0027883a 	mov	r19,zero
   22e44:	003fd806 	br	22da8 <__alt_data_end+0xfffe39a8>
   22e48:	8140038f 	ldh	r5,14(r16)
   22e4c:	8809883a 	mov	r4,r17
   22e50:	0022f640 	call	22f64 <_isatty_r>
   22e54:	103fe226 	beq	r2,zero,22de0 <__alt_data_end+0xfffe39e0>
   22e58:	8080030b 	ldhu	r2,12(r16)
   22e5c:	10800054 	ori	r2,r2,1
   22e60:	8080030d 	sth	r2,12(r16)
   22e64:	003fde06 	br	22de0 <__alt_data_end+0xfffe39e0>
   22e68:	8080030b 	ldhu	r2,12(r16)
   22e6c:	10c0800c 	andi	r3,r2,512
   22e70:	183fdb1e 	bne	r3,zero,22de0 <__alt_data_end+0xfffe39e0>
   22e74:	10800094 	ori	r2,r2,2
   22e78:	80c010c4 	addi	r3,r16,67
   22e7c:	8080030d 	sth	r2,12(r16)
   22e80:	00800044 	movi	r2,1
   22e84:	80c00015 	stw	r3,0(r16)
   22e88:	80c00415 	stw	r3,16(r16)
   22e8c:	80800515 	stw	r2,20(r16)
   22e90:	003fd306 	br	22de0 <__alt_data_end+0xfffe39e0>
   22e94:	04810004 	movi	r18,1024
   22e98:	003fc306 	br	22da8 <__alt_data_end+0xfffe39a8>
   22e9c:	0027883a 	mov	r19,zero
   22ea0:	04810004 	movi	r18,1024
   22ea4:	003fc006 	br	22da8 <__alt_data_end+0xfffe39a8>

00022ea8 <_read_r>:
   22ea8:	defffd04 	addi	sp,sp,-12
   22eac:	2805883a 	mov	r2,r5
   22eb0:	dc000015 	stw	r16,0(sp)
   22eb4:	040000f4 	movhi	r16,3
   22eb8:	dc400115 	stw	r17,4(sp)
   22ebc:	300b883a 	mov	r5,r6
   22ec0:	84047d04 	addi	r16,r16,4596
   22ec4:	2023883a 	mov	r17,r4
   22ec8:	380d883a 	mov	r6,r7
   22ecc:	1009883a 	mov	r4,r2
   22ed0:	dfc00215 	stw	ra,8(sp)
   22ed4:	80000015 	stw	zero,0(r16)
   22ed8:	00237ac0 	call	237ac <read>
   22edc:	00ffffc4 	movi	r3,-1
   22ee0:	10c00526 	beq	r2,r3,22ef8 <_read_r+0x50>
   22ee4:	dfc00217 	ldw	ra,8(sp)
   22ee8:	dc400117 	ldw	r17,4(sp)
   22eec:	dc000017 	ldw	r16,0(sp)
   22ef0:	dec00304 	addi	sp,sp,12
   22ef4:	f800283a 	ret
   22ef8:	80c00017 	ldw	r3,0(r16)
   22efc:	183ff926 	beq	r3,zero,22ee4 <__alt_data_end+0xfffe3ae4>
   22f00:	88c00015 	stw	r3,0(r17)
   22f04:	003ff706 	br	22ee4 <__alt_data_end+0xfffe3ae4>

00022f08 <_fstat_r>:
   22f08:	defffd04 	addi	sp,sp,-12
   22f0c:	2805883a 	mov	r2,r5
   22f10:	dc000015 	stw	r16,0(sp)
   22f14:	040000f4 	movhi	r16,3
   22f18:	dc400115 	stw	r17,4(sp)
   22f1c:	84047d04 	addi	r16,r16,4596
   22f20:	2023883a 	mov	r17,r4
   22f24:	300b883a 	mov	r5,r6
   22f28:	1009883a 	mov	r4,r2
   22f2c:	dfc00215 	stw	ra,8(sp)
   22f30:	80000015 	stw	zero,0(r16)
   22f34:	00233100 	call	23310 <fstat>
   22f38:	00ffffc4 	movi	r3,-1
   22f3c:	10c00526 	beq	r2,r3,22f54 <_fstat_r+0x4c>
   22f40:	dfc00217 	ldw	ra,8(sp)
   22f44:	dc400117 	ldw	r17,4(sp)
   22f48:	dc000017 	ldw	r16,0(sp)
   22f4c:	dec00304 	addi	sp,sp,12
   22f50:	f800283a 	ret
   22f54:	80c00017 	ldw	r3,0(r16)
   22f58:	183ff926 	beq	r3,zero,22f40 <__alt_data_end+0xfffe3b40>
   22f5c:	88c00015 	stw	r3,0(r17)
   22f60:	003ff706 	br	22f40 <__alt_data_end+0xfffe3b40>

00022f64 <_isatty_r>:
   22f64:	defffd04 	addi	sp,sp,-12
   22f68:	dc000015 	stw	r16,0(sp)
   22f6c:	040000f4 	movhi	r16,3
   22f70:	dc400115 	stw	r17,4(sp)
   22f74:	84047d04 	addi	r16,r16,4596
   22f78:	2023883a 	mov	r17,r4
   22f7c:	2809883a 	mov	r4,r5
   22f80:	dfc00215 	stw	ra,8(sp)
   22f84:	80000015 	stw	zero,0(r16)
   22f88:	00234040 	call	23404 <isatty>
   22f8c:	00ffffc4 	movi	r3,-1
   22f90:	10c00526 	beq	r2,r3,22fa8 <_isatty_r+0x44>
   22f94:	dfc00217 	ldw	ra,8(sp)
   22f98:	dc400117 	ldw	r17,4(sp)
   22f9c:	dc000017 	ldw	r16,0(sp)
   22fa0:	dec00304 	addi	sp,sp,12
   22fa4:	f800283a 	ret
   22fa8:	80c00017 	ldw	r3,0(r16)
   22fac:	183ff926 	beq	r3,zero,22f94 <__alt_data_end+0xfffe3b94>
   22fb0:	88c00015 	stw	r3,0(r17)
   22fb4:	003ff706 	br	22f94 <__alt_data_end+0xfffe3b94>

00022fb8 <__divsi3>:
   22fb8:	20001b16 	blt	r4,zero,23028 <__divsi3+0x70>
   22fbc:	000f883a 	mov	r7,zero
   22fc0:	28001616 	blt	r5,zero,2301c <__divsi3+0x64>
   22fc4:	200d883a 	mov	r6,r4
   22fc8:	29001a2e 	bgeu	r5,r4,23034 <__divsi3+0x7c>
   22fcc:	00800804 	movi	r2,32
   22fd0:	00c00044 	movi	r3,1
   22fd4:	00000106 	br	22fdc <__divsi3+0x24>
   22fd8:	10000d26 	beq	r2,zero,23010 <__divsi3+0x58>
   22fdc:	294b883a 	add	r5,r5,r5
   22fe0:	10bfffc4 	addi	r2,r2,-1
   22fe4:	18c7883a 	add	r3,r3,r3
   22fe8:	293ffb36 	bltu	r5,r4,22fd8 <__alt_data_end+0xfffe3bd8>
   22fec:	0005883a 	mov	r2,zero
   22ff0:	18000726 	beq	r3,zero,23010 <__divsi3+0x58>
   22ff4:	0005883a 	mov	r2,zero
   22ff8:	31400236 	bltu	r6,r5,23004 <__divsi3+0x4c>
   22ffc:	314dc83a 	sub	r6,r6,r5
   23000:	10c4b03a 	or	r2,r2,r3
   23004:	1806d07a 	srli	r3,r3,1
   23008:	280ad07a 	srli	r5,r5,1
   2300c:	183ffa1e 	bne	r3,zero,22ff8 <__alt_data_end+0xfffe3bf8>
   23010:	38000126 	beq	r7,zero,23018 <__divsi3+0x60>
   23014:	0085c83a 	sub	r2,zero,r2
   23018:	f800283a 	ret
   2301c:	014bc83a 	sub	r5,zero,r5
   23020:	39c0005c 	xori	r7,r7,1
   23024:	003fe706 	br	22fc4 <__alt_data_end+0xfffe3bc4>
   23028:	0109c83a 	sub	r4,zero,r4
   2302c:	01c00044 	movi	r7,1
   23030:	003fe306 	br	22fc0 <__alt_data_end+0xfffe3bc0>
   23034:	00c00044 	movi	r3,1
   23038:	003fee06 	br	22ff4 <__alt_data_end+0xfffe3bf4>

0002303c <__modsi3>:
   2303c:	20001716 	blt	r4,zero,2309c <__modsi3+0x60>
   23040:	000f883a 	mov	r7,zero
   23044:	2005883a 	mov	r2,r4
   23048:	28001216 	blt	r5,zero,23094 <__modsi3+0x58>
   2304c:	2900162e 	bgeu	r5,r4,230a8 <__modsi3+0x6c>
   23050:	01800804 	movi	r6,32
   23054:	00c00044 	movi	r3,1
   23058:	00000106 	br	23060 <__modsi3+0x24>
   2305c:	30000a26 	beq	r6,zero,23088 <__modsi3+0x4c>
   23060:	294b883a 	add	r5,r5,r5
   23064:	31bfffc4 	addi	r6,r6,-1
   23068:	18c7883a 	add	r3,r3,r3
   2306c:	293ffb36 	bltu	r5,r4,2305c <__alt_data_end+0xfffe3c5c>
   23070:	18000526 	beq	r3,zero,23088 <__modsi3+0x4c>
   23074:	1806d07a 	srli	r3,r3,1
   23078:	11400136 	bltu	r2,r5,23080 <__modsi3+0x44>
   2307c:	1145c83a 	sub	r2,r2,r5
   23080:	280ad07a 	srli	r5,r5,1
   23084:	183ffb1e 	bne	r3,zero,23074 <__alt_data_end+0xfffe3c74>
   23088:	38000126 	beq	r7,zero,23090 <__modsi3+0x54>
   2308c:	0085c83a 	sub	r2,zero,r2
   23090:	f800283a 	ret
   23094:	014bc83a 	sub	r5,zero,r5
   23098:	003fec06 	br	2304c <__alt_data_end+0xfffe3c4c>
   2309c:	0109c83a 	sub	r4,zero,r4
   230a0:	01c00044 	movi	r7,1
   230a4:	003fe706 	br	23044 <__alt_data_end+0xfffe3c44>
   230a8:	00c00044 	movi	r3,1
   230ac:	003ff106 	br	23074 <__alt_data_end+0xfffe3c74>

000230b0 <__udivsi3>:
   230b0:	200d883a 	mov	r6,r4
   230b4:	2900152e 	bgeu	r5,r4,2310c <__udivsi3+0x5c>
   230b8:	28001416 	blt	r5,zero,2310c <__udivsi3+0x5c>
   230bc:	00800804 	movi	r2,32
   230c0:	00c00044 	movi	r3,1
   230c4:	00000206 	br	230d0 <__udivsi3+0x20>
   230c8:	10000e26 	beq	r2,zero,23104 <__udivsi3+0x54>
   230cc:	28000516 	blt	r5,zero,230e4 <__udivsi3+0x34>
   230d0:	294b883a 	add	r5,r5,r5
   230d4:	10bfffc4 	addi	r2,r2,-1
   230d8:	18c7883a 	add	r3,r3,r3
   230dc:	293ffa36 	bltu	r5,r4,230c8 <__alt_data_end+0xfffe3cc8>
   230e0:	18000826 	beq	r3,zero,23104 <__udivsi3+0x54>
   230e4:	0005883a 	mov	r2,zero
   230e8:	31400236 	bltu	r6,r5,230f4 <__udivsi3+0x44>
   230ec:	314dc83a 	sub	r6,r6,r5
   230f0:	10c4b03a 	or	r2,r2,r3
   230f4:	1806d07a 	srli	r3,r3,1
   230f8:	280ad07a 	srli	r5,r5,1
   230fc:	183ffa1e 	bne	r3,zero,230e8 <__alt_data_end+0xfffe3ce8>
   23100:	f800283a 	ret
   23104:	0005883a 	mov	r2,zero
   23108:	f800283a 	ret
   2310c:	00c00044 	movi	r3,1
   23110:	003ff406 	br	230e4 <__alt_data_end+0xfffe3ce4>

00023114 <__umodsi3>:
   23114:	2005883a 	mov	r2,r4
   23118:	2900122e 	bgeu	r5,r4,23164 <__umodsi3+0x50>
   2311c:	28001116 	blt	r5,zero,23164 <__umodsi3+0x50>
   23120:	01800804 	movi	r6,32
   23124:	00c00044 	movi	r3,1
   23128:	00000206 	br	23134 <__umodsi3+0x20>
   2312c:	30000c26 	beq	r6,zero,23160 <__umodsi3+0x4c>
   23130:	28000516 	blt	r5,zero,23148 <__umodsi3+0x34>
   23134:	294b883a 	add	r5,r5,r5
   23138:	31bfffc4 	addi	r6,r6,-1
   2313c:	18c7883a 	add	r3,r3,r3
   23140:	293ffa36 	bltu	r5,r4,2312c <__alt_data_end+0xfffe3d2c>
   23144:	18000626 	beq	r3,zero,23160 <__umodsi3+0x4c>
   23148:	1806d07a 	srli	r3,r3,1
   2314c:	11400136 	bltu	r2,r5,23154 <__umodsi3+0x40>
   23150:	1145c83a 	sub	r2,r2,r5
   23154:	280ad07a 	srli	r5,r5,1
   23158:	183ffb1e 	bne	r3,zero,23148 <__alt_data_end+0xfffe3d48>
   2315c:	f800283a 	ret
   23160:	f800283a 	ret
   23164:	00c00044 	movi	r3,1
   23168:	003ff706 	br	23148 <__alt_data_end+0xfffe3d48>

0002316c <__mulsi3>:
   2316c:	0005883a 	mov	r2,zero
   23170:	20000726 	beq	r4,zero,23190 <__mulsi3+0x24>
   23174:	20c0004c 	andi	r3,r4,1
   23178:	2008d07a 	srli	r4,r4,1
   2317c:	18000126 	beq	r3,zero,23184 <__mulsi3+0x18>
   23180:	1145883a 	add	r2,r2,r5
   23184:	294b883a 	add	r5,r5,r5
   23188:	203ffa1e 	bne	r4,zero,23174 <__alt_data_end+0xfffe3d74>
   2318c:	f800283a 	ret
   23190:	f800283a 	ret

00023194 <alt_get_errno>:
#undef errno

extern int errno;

static ALT_INLINE int* alt_get_errno(void)
{
   23194:	defffe04 	addi	sp,sp,-8
   23198:	dfc00115 	stw	ra,4(sp)
   2319c:	df000015 	stw	fp,0(sp)
   231a0:	d839883a 	mov	fp,sp
  return ((alt_errno) ? alt_errno() : &errno);
   231a4:	d0a00917 	ldw	r2,-32732(gp)
   231a8:	10000326 	beq	r2,zero,231b8 <alt_get_errno+0x24>
   231ac:	d0a00917 	ldw	r2,-32732(gp)
   231b0:	103ee83a 	callr	r2
   231b4:	00000106 	br	231bc <alt_get_errno+0x28>
   231b8:	d0a6ed04 	addi	r2,gp,-25676
}
   231bc:	e037883a 	mov	sp,fp
   231c0:	dfc00117 	ldw	ra,4(sp)
   231c4:	df000017 	ldw	fp,0(sp)
   231c8:	dec00204 	addi	sp,sp,8
   231cc:	f800283a 	ret

000231d0 <close>:
 *
 * ALT_CLOSE is mapped onto the close() system call in alt_syscall.h
 */
 
int ALT_CLOSE (int fildes)
{
   231d0:	defffb04 	addi	sp,sp,-20
   231d4:	dfc00415 	stw	ra,16(sp)
   231d8:	df000315 	stw	fp,12(sp)
   231dc:	df000304 	addi	fp,sp,12
   231e0:	e13fff15 	stw	r4,-4(fp)
   * A common error case is that when the file descriptor was created, the call
   * to open() failed resulting in a negative file descriptor. This is trapped
   * below so that we don't try and process an invalid file descriptor.
   */

  fd = (fildes < 0) ? NULL : &alt_fd_list[fildes];
   231e4:	e0bfff17 	ldw	r2,-4(fp)
   231e8:	10000816 	blt	r2,zero,2320c <close+0x3c>
   231ec:	01400304 	movi	r5,12
   231f0:	e13fff17 	ldw	r4,-4(fp)
   231f4:	002316c0 	call	2316c <__mulsi3>
   231f8:	1007883a 	mov	r3,r2
   231fc:	008000f4 	movhi	r2,3
   23200:	10b91504 	addi	r2,r2,-7084
   23204:	1885883a 	add	r2,r3,r2
   23208:	00000106 	br	23210 <close+0x40>
   2320c:	0005883a 	mov	r2,zero
   23210:	e0bffd15 	stw	r2,-12(fp)

  if (fd)
   23214:	e0bffd17 	ldw	r2,-12(fp)
   23218:	10001926 	beq	r2,zero,23280 <close+0xb0>
    /*
     * If the associated file system/device has a close function, call it so 
     * that any necessary cleanup code can run.
     */

    rval = (fd->dev->close) ? fd->dev->close(fd) : 0;
   2321c:	e0bffd17 	ldw	r2,-12(fp)
   23220:	10800017 	ldw	r2,0(r2)
   23224:	10800417 	ldw	r2,16(r2)
   23228:	10000626 	beq	r2,zero,23244 <close+0x74>
   2322c:	e0bffd17 	ldw	r2,-12(fp)
   23230:	10800017 	ldw	r2,0(r2)
   23234:	10800417 	ldw	r2,16(r2)
   23238:	e13ffd17 	ldw	r4,-12(fp)
   2323c:	103ee83a 	callr	r2
   23240:	00000106 	br	23248 <close+0x78>
   23244:	0005883a 	mov	r2,zero
   23248:	e0bffe15 	stw	r2,-8(fp)

    /* Free the file descriptor structure and return. */

    alt_release_fd (fildes);
   2324c:	e13fff17 	ldw	r4,-4(fp)
   23250:	00238b00 	call	238b0 <alt_release_fd>
    if (rval < 0)
   23254:	e0bffe17 	ldw	r2,-8(fp)
   23258:	1000070e 	bge	r2,zero,23278 <close+0xa8>
    {
      ALT_ERRNO = -rval;
   2325c:	00231940 	call	23194 <alt_get_errno>
   23260:	1007883a 	mov	r3,r2
   23264:	e0bffe17 	ldw	r2,-8(fp)
   23268:	0085c83a 	sub	r2,zero,r2
   2326c:	18800015 	stw	r2,0(r3)
      return -1;
   23270:	00bfffc4 	movi	r2,-1
   23274:	00000706 	br	23294 <close+0xc4>
    }
    return 0;
   23278:	0005883a 	mov	r2,zero
   2327c:	00000506 	br	23294 <close+0xc4>
  }
  else
  {
    ALT_ERRNO = EBADFD;
   23280:	00231940 	call	23194 <alt_get_errno>
   23284:	1007883a 	mov	r3,r2
   23288:	00801444 	movi	r2,81
   2328c:	18800015 	stw	r2,0(r3)
    return -1;
   23290:	00bfffc4 	movi	r2,-1
  }
}
   23294:	e037883a 	mov	sp,fp
   23298:	dfc00117 	ldw	ra,4(sp)
   2329c:	df000017 	ldw	fp,0(sp)
   232a0:	dec00204 	addi	sp,sp,8
   232a4:	f800283a 	ret

000232a8 <alt_dev_null_write>:
 * by the alt_dev_null device. It simple discards all data passed to it, and
 * indicates that the data has been successfully transmitted.
 */

static int alt_dev_null_write (alt_fd* fd, const char* ptr, int len)
{
   232a8:	defffc04 	addi	sp,sp,-16
   232ac:	df000315 	stw	fp,12(sp)
   232b0:	df000304 	addi	fp,sp,12
   232b4:	e13ffd15 	stw	r4,-12(fp)
   232b8:	e17ffe15 	stw	r5,-8(fp)
   232bc:	e1bfff15 	stw	r6,-4(fp)
  return len;
   232c0:	e0bfff17 	ldw	r2,-4(fp)
}
   232c4:	e037883a 	mov	sp,fp
   232c8:	df000017 	ldw	fp,0(sp)
   232cc:	dec00104 	addi	sp,sp,4
   232d0:	f800283a 	ret

000232d4 <alt_get_errno>:
#undef errno

extern int errno;

static ALT_INLINE int* alt_get_errno(void)
{
   232d4:	defffe04 	addi	sp,sp,-8
   232d8:	dfc00115 	stw	ra,4(sp)
   232dc:	df000015 	stw	fp,0(sp)
   232e0:	d839883a 	mov	fp,sp
  return ((alt_errno) ? alt_errno() : &errno);
   232e4:	d0a00917 	ldw	r2,-32732(gp)
   232e8:	10000326 	beq	r2,zero,232f8 <alt_get_errno+0x24>
   232ec:	d0a00917 	ldw	r2,-32732(gp)
   232f0:	103ee83a 	callr	r2
   232f4:	00000106 	br	232fc <alt_get_errno+0x28>
   232f8:	d0a6ed04 	addi	r2,gp,-25676
}
   232fc:	e037883a 	mov	sp,fp
   23300:	dfc00117 	ldw	ra,4(sp)
   23304:	df000017 	ldw	fp,0(sp)
   23308:	dec00204 	addi	sp,sp,8
   2330c:	f800283a 	ret

00023310 <fstat>:
}

#else /* !ALT_USE_DIRECT_DRIVERS */

int ALT_FSTAT (int file, struct stat *st)
{
   23310:	defffb04 	addi	sp,sp,-20
   23314:	dfc00415 	stw	ra,16(sp)
   23318:	df000315 	stw	fp,12(sp)
   2331c:	df000304 	addi	fp,sp,12
   23320:	e13ffe15 	stw	r4,-8(fp)
   23324:	e17fff15 	stw	r5,-4(fp)
   * A common error case is that when the file descriptor was created, the call
   * to open() failed resulting in a negative file descriptor. This is trapped
   * below so that we don't try and process an invalid file descriptor.
   */

  fd = (file < 0) ? NULL : &alt_fd_list[file];
   23328:	e0bffe17 	ldw	r2,-8(fp)
   2332c:	10000816 	blt	r2,zero,23350 <fstat+0x40>
   23330:	01400304 	movi	r5,12
   23334:	e13ffe17 	ldw	r4,-8(fp)
   23338:	002316c0 	call	2316c <__mulsi3>
   2333c:	1007883a 	mov	r3,r2
   23340:	008000f4 	movhi	r2,3
   23344:	10b91504 	addi	r2,r2,-7084
   23348:	1885883a 	add	r2,r3,r2
   2334c:	00000106 	br	23354 <fstat+0x44>
   23350:	0005883a 	mov	r2,zero
   23354:	e0bffd15 	stw	r2,-12(fp)
  
  if (fd)
   23358:	e0bffd17 	ldw	r2,-12(fp)
   2335c:	10001026 	beq	r2,zero,233a0 <fstat+0x90>
  {
    /* Call the drivers fstat() function to fill out the "st" structure. */

    if (fd->dev->fstat)
   23360:	e0bffd17 	ldw	r2,-12(fp)
   23364:	10800017 	ldw	r2,0(r2)
   23368:	10800817 	ldw	r2,32(r2)
   2336c:	10000726 	beq	r2,zero,2338c <fstat+0x7c>
    {
      return fd->dev->fstat(fd, st);
   23370:	e0bffd17 	ldw	r2,-12(fp)
   23374:	10800017 	ldw	r2,0(r2)
   23378:	10800817 	ldw	r2,32(r2)
   2337c:	e17fff17 	ldw	r5,-4(fp)
   23380:	e13ffd17 	ldw	r4,-12(fp)
   23384:	103ee83a 	callr	r2
   23388:	00000a06 	br	233b4 <fstat+0xa4>
     * device.
     */
 
    else
    {
      st->st_mode = _IFCHR;
   2338c:	e0bfff17 	ldw	r2,-4(fp)
   23390:	00c80004 	movi	r3,8192
   23394:	10c00115 	stw	r3,4(r2)
      return 0;
   23398:	0005883a 	mov	r2,zero
   2339c:	00000506 	br	233b4 <fstat+0xa4>
    }
  }
  else
  {
    ALT_ERRNO = EBADFD;
   233a0:	00232d40 	call	232d4 <alt_get_errno>
   233a4:	1007883a 	mov	r3,r2
   233a8:	00801444 	movi	r2,81
   233ac:	18800015 	stw	r2,0(r3)
    return -1;
   233b0:	00bfffc4 	movi	r2,-1
  }
}
   233b4:	e037883a 	mov	sp,fp
   233b8:	dfc00117 	ldw	ra,4(sp)
   233bc:	df000017 	ldw	fp,0(sp)
   233c0:	dec00204 	addi	sp,sp,8
   233c4:	f800283a 	ret

000233c8 <alt_get_errno>:
#undef errno

extern int errno;

static ALT_INLINE int* alt_get_errno(void)
{
   233c8:	defffe04 	addi	sp,sp,-8
   233cc:	dfc00115 	stw	ra,4(sp)
   233d0:	df000015 	stw	fp,0(sp)
   233d4:	d839883a 	mov	fp,sp
  return ((alt_errno) ? alt_errno() : &errno);
   233d8:	d0a00917 	ldw	r2,-32732(gp)
   233dc:	10000326 	beq	r2,zero,233ec <alt_get_errno+0x24>
   233e0:	d0a00917 	ldw	r2,-32732(gp)
   233e4:	103ee83a 	callr	r2
   233e8:	00000106 	br	233f0 <alt_get_errno+0x28>
   233ec:	d0a6ed04 	addi	r2,gp,-25676
}
   233f0:	e037883a 	mov	sp,fp
   233f4:	dfc00117 	ldw	ra,4(sp)
   233f8:	df000017 	ldw	fp,0(sp)
   233fc:	dec00204 	addi	sp,sp,8
   23400:	f800283a 	ret

00023404 <isatty>:
 *
 * ALT_ISATTY is mapped onto the isatty() system call in alt_syscall.h
 */
 
int ALT_ISATTY (int file)
{
   23404:	deffed04 	addi	sp,sp,-76
   23408:	dfc01215 	stw	ra,72(sp)
   2340c:	df001115 	stw	fp,68(sp)
   23410:	df001104 	addi	fp,sp,68
   23414:	e13fff15 	stw	r4,-4(fp)
   * A common error case is that when the file descriptor was created, the call
   * to open() failed resulting in a negative file descriptor. This is trapped
   * below so that we don't try and process an invalid file descriptor.
   */

  fd = (file < 0) ? NULL : &alt_fd_list[file];
   23418:	e0bfff17 	ldw	r2,-4(fp)
   2341c:	10000816 	blt	r2,zero,23440 <isatty+0x3c>
   23420:	01400304 	movi	r5,12
   23424:	e13fff17 	ldw	r4,-4(fp)
   23428:	002316c0 	call	2316c <__mulsi3>
   2342c:	1007883a 	mov	r3,r2
   23430:	008000f4 	movhi	r2,3
   23434:	10b91504 	addi	r2,r2,-7084
   23438:	1885883a 	add	r2,r3,r2
   2343c:	00000106 	br	23444 <isatty+0x40>
   23440:	0005883a 	mov	r2,zero
   23444:	e0bfef15 	stw	r2,-68(fp)
  
  if (fd)
   23448:	e0bfef17 	ldw	r2,-68(fp)
   2344c:	10000e26 	beq	r2,zero,23488 <isatty+0x84>
    /*
     * If a device driver does not provide an fstat() function, then it is 
     * treated as a terminal device by default.
     */

    if (!fd->dev->fstat)
   23450:	e0bfef17 	ldw	r2,-68(fp)
   23454:	10800017 	ldw	r2,0(r2)
   23458:	10800817 	ldw	r2,32(r2)
   2345c:	1000021e 	bne	r2,zero,23468 <isatty+0x64>
    {
      return 1;
   23460:	00800044 	movi	r2,1
   23464:	00000d06 	br	2349c <isatty+0x98>
     * this is called so that the device can identify itself.
     */ 

    else
    {
      fstat (file, &stat);
   23468:	e0bff004 	addi	r2,fp,-64
   2346c:	100b883a 	mov	r5,r2
   23470:	e13fff17 	ldw	r4,-4(fp)
   23474:	00233100 	call	23310 <fstat>
      return (stat.st_mode == _IFCHR) ? 1 : 0;
   23478:	e0bff117 	ldw	r2,-60(fp)
   2347c:	10880020 	cmpeqi	r2,r2,8192
   23480:	10803fcc 	andi	r2,r2,255
   23484:	00000506 	br	2349c <isatty+0x98>
    }
  }
  else
  {
    ALT_ERRNO = EBADFD;
   23488:	00233c80 	call	233c8 <alt_get_errno>
   2348c:	1007883a 	mov	r3,r2
   23490:	00801444 	movi	r2,81
   23494:	18800015 	stw	r2,0(r3)
    return 0;
   23498:	0005883a 	mov	r2,zero
  }
}
   2349c:	e037883a 	mov	sp,fp
   234a0:	dfc00117 	ldw	ra,4(sp)
   234a4:	df000017 	ldw	fp,0(sp)
   234a8:	dec00204 	addi	sp,sp,8
   234ac:	f800283a 	ret

000234b0 <alt_load_section>:
 */

static void ALT_INLINE alt_load_section (alt_u32* from, 
                                         alt_u32* to, 
                                         alt_u32* end)
{
   234b0:	defffc04 	addi	sp,sp,-16
   234b4:	df000315 	stw	fp,12(sp)
   234b8:	df000304 	addi	fp,sp,12
   234bc:	e13ffd15 	stw	r4,-12(fp)
   234c0:	e17ffe15 	stw	r5,-8(fp)
   234c4:	e1bfff15 	stw	r6,-4(fp)
  if (to != from)
   234c8:	e0fffe17 	ldw	r3,-8(fp)
   234cc:	e0bffd17 	ldw	r2,-12(fp)
   234d0:	18800c26 	beq	r3,r2,23504 <alt_load_section+0x54>
  {
    while( to != end )
   234d4:	00000806 	br	234f8 <alt_load_section+0x48>
    {
      *to++ = *from++;
   234d8:	e0bffe17 	ldw	r2,-8(fp)
   234dc:	10c00104 	addi	r3,r2,4
   234e0:	e0fffe15 	stw	r3,-8(fp)
   234e4:	e0fffd17 	ldw	r3,-12(fp)
   234e8:	19000104 	addi	r4,r3,4
   234ec:	e13ffd15 	stw	r4,-12(fp)
   234f0:	18c00017 	ldw	r3,0(r3)
   234f4:	10c00015 	stw	r3,0(r2)
                                         alt_u32* to, 
                                         alt_u32* end)
{
  if (to != from)
  {
    while( to != end )
   234f8:	e0fffe17 	ldw	r3,-8(fp)
   234fc:	e0bfff17 	ldw	r2,-4(fp)
   23500:	18bff51e 	bne	r3,r2,234d8 <__alt_data_end+0xfffe40d8>
    {
      *to++ = *from++;
    }
  }
}
   23504:	0001883a 	nop
   23508:	e037883a 	mov	sp,fp
   2350c:	df000017 	ldw	fp,0(sp)
   23510:	dec00104 	addi	sp,sp,4
   23514:	f800283a 	ret

00023518 <alt_load>:
 * there is no bootloader, so this application is responsible for loading to
 * RAM any sections that are required.
 */  

void alt_load (void)
{
   23518:	defffe04 	addi	sp,sp,-8
   2351c:	dfc00115 	stw	ra,4(sp)
   23520:	df000015 	stw	fp,0(sp)
   23524:	d839883a 	mov	fp,sp
  /* 
   * Copy the .rwdata section. 
   */

  alt_load_section (&__flash_rwdata_start, 
   23528:	018000f4 	movhi	r6,3
   2352c:	31bdbd04 	addi	r6,r6,-2316
   23530:	014000f4 	movhi	r5,3
   23534:	29770004 	addi	r5,r5,-9216
   23538:	010000f4 	movhi	r4,3
   2353c:	213dbd04 	addi	r4,r4,-2316
   23540:	00234b00 	call	234b0 <alt_load_section>

  /*
   * Copy the exception handler.
   */

  alt_load_section (&__flash_exceptions_start, 
   23544:	018000b4 	movhi	r6,2
   23548:	31808c04 	addi	r6,r6,560
   2354c:	014000b4 	movhi	r5,2
   23550:	29400804 	addi	r5,r5,32
   23554:	010000b4 	movhi	r4,2
   23558:	21000804 	addi	r4,r4,32
   2355c:	00234b00 	call	234b0 <alt_load_section>

  /*
   * Copy the .rodata section.
   */

  alt_load_section (&__flash_rodata_start, 
   23560:	018000f4 	movhi	r6,3
   23564:	31b70004 	addi	r6,r6,-9216
   23568:	014000f4 	movhi	r5,3
   2356c:	2976a004 	addi	r5,r5,-9600
   23570:	010000f4 	movhi	r4,3
   23574:	2136a004 	addi	r4,r4,-9600
   23578:	00234b00 	call	234b0 <alt_load_section>
  
  /*
   * Now ensure that the caches are in synch.
   */
  
  alt_dcache_flush_all();
   2357c:	002c6400 	call	2c640 <alt_dcache_flush_all>
  alt_icache_flush_all();
   23580:	002c8000 	call	2c800 <alt_icache_flush_all>
}
   23584:	0001883a 	nop
   23588:	e037883a 	mov	sp,fp
   2358c:	dfc00117 	ldw	ra,4(sp)
   23590:	df000017 	ldw	fp,0(sp)
   23594:	dec00204 	addi	sp,sp,8
   23598:	f800283a 	ret

0002359c <alt_get_errno>:
#undef errno

extern int errno;

static ALT_INLINE int* alt_get_errno(void)
{
   2359c:	defffe04 	addi	sp,sp,-8
   235a0:	dfc00115 	stw	ra,4(sp)
   235a4:	df000015 	stw	fp,0(sp)
   235a8:	d839883a 	mov	fp,sp
  return ((alt_errno) ? alt_errno() : &errno);
   235ac:	d0a00917 	ldw	r2,-32732(gp)
   235b0:	10000326 	beq	r2,zero,235c0 <alt_get_errno+0x24>
   235b4:	d0a00917 	ldw	r2,-32732(gp)
   235b8:	103ee83a 	callr	r2
   235bc:	00000106 	br	235c4 <alt_get_errno+0x28>
   235c0:	d0a6ed04 	addi	r2,gp,-25676
}
   235c4:	e037883a 	mov	sp,fp
   235c8:	dfc00117 	ldw	ra,4(sp)
   235cc:	df000017 	ldw	fp,0(sp)
   235d0:	dec00204 	addi	sp,sp,8
   235d4:	f800283a 	ret

000235d8 <lseek>:
 * ALT_LSEEK is mapped onto the lseek() system call in alt_syscall.h
 *
 */

off_t ALT_LSEEK (int file, off_t ptr, int dir)
{
   235d8:	defff904 	addi	sp,sp,-28
   235dc:	dfc00615 	stw	ra,24(sp)
   235e0:	df000515 	stw	fp,20(sp)
   235e4:	df000504 	addi	fp,sp,20
   235e8:	e13ffd15 	stw	r4,-12(fp)
   235ec:	e17ffe15 	stw	r5,-8(fp)
   235f0:	e1bfff15 	stw	r6,-4(fp)
  alt_fd* fd;
  off_t   rc = 0; 
   235f4:	e03ffb15 	stw	zero,-20(fp)
   * A common error case is that when the file descriptor was created, the call
   * to open() failed resulting in a negative file descriptor. This is trapped
   * below so that we don't try and process an invalid file descriptor.
   */

  fd = (file < 0) ? NULL : &alt_fd_list[file];
   235f8:	e0bffd17 	ldw	r2,-12(fp)
   235fc:	10000816 	blt	r2,zero,23620 <lseek+0x48>
   23600:	01400304 	movi	r5,12
   23604:	e13ffd17 	ldw	r4,-12(fp)
   23608:	002316c0 	call	2316c <__mulsi3>
   2360c:	1007883a 	mov	r3,r2
   23610:	008000f4 	movhi	r2,3
   23614:	10b91504 	addi	r2,r2,-7084
   23618:	1885883a 	add	r2,r3,r2
   2361c:	00000106 	br	23624 <lseek+0x4c>
   23620:	0005883a 	mov	r2,zero
   23624:	e0bffc15 	stw	r2,-16(fp)
  
  if (fd) 
   23628:	e0bffc17 	ldw	r2,-16(fp)
   2362c:	10001026 	beq	r2,zero,23670 <lseek+0x98>
    /*
     * If the device driver provides an implementation of the lseek() function,
     * then call that to process the request.
     */
 
    if (fd->dev->lseek)
   23630:	e0bffc17 	ldw	r2,-16(fp)
   23634:	10800017 	ldw	r2,0(r2)
   23638:	10800717 	ldw	r2,28(r2)
   2363c:	10000926 	beq	r2,zero,23664 <lseek+0x8c>
    {
      rc = fd->dev->lseek(fd, ptr, dir);
   23640:	e0bffc17 	ldw	r2,-16(fp)
   23644:	10800017 	ldw	r2,0(r2)
   23648:	10800717 	ldw	r2,28(r2)
   2364c:	e1bfff17 	ldw	r6,-4(fp)
   23650:	e17ffe17 	ldw	r5,-8(fp)
   23654:	e13ffc17 	ldw	r4,-16(fp)
   23658:	103ee83a 	callr	r2
   2365c:	e0bffb15 	stw	r2,-20(fp)
   23660:	00000506 	br	23678 <lseek+0xa0>
     * Otherwise return an error.
     */

    else
    {
      rc = -ENOTSUP;
   23664:	00bfde84 	movi	r2,-134
   23668:	e0bffb15 	stw	r2,-20(fp)
   2366c:	00000206 	br	23678 <lseek+0xa0>
    }
  }
  else  
  {
    rc = -EBADFD;
   23670:	00bfebc4 	movi	r2,-81
   23674:	e0bffb15 	stw	r2,-20(fp)
  }

  if (rc < 0)
   23678:	e0bffb17 	ldw	r2,-20(fp)
   2367c:	1000070e 	bge	r2,zero,2369c <lseek+0xc4>
  {
    ALT_ERRNO = -rc;
   23680:	002359c0 	call	2359c <alt_get_errno>
   23684:	1007883a 	mov	r3,r2
   23688:	e0bffb17 	ldw	r2,-20(fp)
   2368c:	0085c83a 	sub	r2,zero,r2
   23690:	18800015 	stw	r2,0(r3)
    rc = -1;
   23694:	00bfffc4 	movi	r2,-1
   23698:	e0bffb15 	stw	r2,-20(fp)
  }

  return rc;
   2369c:	e0bffb17 	ldw	r2,-20(fp)
}
   236a0:	e037883a 	mov	sp,fp
   236a4:	dfc00117 	ldw	ra,4(sp)
   236a8:	df000017 	ldw	fp,0(sp)
   236ac:	dec00204 	addi	sp,sp,8
   236b0:	f800283a 	ret

000236b4 <alt_main>:
 * devices/filesystems/components in the system; and call the entry point for
 * the users application, i.e. main().
 */

void alt_main (void)
{
   236b4:	defff904 	addi	sp,sp,-28
   236b8:	dfc00615 	stw	ra,24(sp)
   236bc:	df000515 	stw	fp,20(sp)
   236c0:	df000504 	addi	fp,sp,20
#endif

  /* ALT LOG - please see HAL/sys/alt_log_printf.h for details */
  ALT_LOG_PRINT_BOOT("[alt_main.c] Entering alt_main, calling alt_irq_init.\r\n");
  /* Initialize the interrupt controller. */
  alt_irq_init (NULL);
   236c4:	0009883a 	mov	r4,zero
   236c8:	002b65c0 	call	2b65c <alt_irq_init>

  /* Initialize the operating system */
  ALT_LOG_PRINT_BOOT("[alt_main.c] Done alt_irq_init, calling alt_os_init.\r\n");
  ALT_OS_INIT();
   236cc:	00246a00 	call	246a0 <OSInit>
   236d0:	01000044 	movi	r4,1
   236d4:	0028ffc0 	call	28ffc <OSSemCreate>
   236d8:	d0a6f315 	stw	r2,-25652(gp)
   236dc:	01000044 	movi	r4,1
   236e0:	0028ffc0 	call	28ffc <OSSemCreate>
   236e4:	d0a6f515 	stw	r2,-25644(gp)
   236e8:	d0a6ee04 	addi	r2,gp,-25672
   236ec:	e0bffc15 	stw	r2,-16(fp)
   236f0:	00800044 	movi	r2,1
   236f4:	e0bffd0d 	sth	r2,-12(fp)
 */

static ALT_INLINE int ALT_ALWAYS_INLINE alt_sem_create (OS_EVENT** sem, 
              INT16U value)
{
  *sem = OSSemCreate (value);
   236f8:	e0bffd0b 	ldhu	r2,-12(fp)
   236fc:	1009883a 	mov	r4,r2
   23700:	0028ffc0 	call	28ffc <OSSemCreate>
   23704:	1007883a 	mov	r3,r2
   23708:	e0bffc17 	ldw	r2,-16(fp)
   2370c:	10c00015 	stw	r3,0(r2)
  ALT_LOG_PRINT_BOOT("[alt_main.c] Done OS Init, calling alt_sem_create.\r\n");
  ALT_SEM_CREATE (&alt_fd_list_lock, 1);

  /* Initialize the device drivers/software components. */
  ALT_LOG_PRINT_BOOT("[alt_main.c] Calling alt_sys_init.\r\n");
  alt_sys_init();
   23710:	002b6940 	call	2b694 <alt_sys_init>
   * devices be present (not equal to /dev/null) and if direct drivers
   * aren't being used.
   */

    ALT_LOG_PRINT_BOOT("[alt_main.c] Redirecting IO.\r\n");
    alt_io_redirect(ALT_STDOUT, ALT_STDIN, ALT_STDERR);
   23714:	018000f4 	movhi	r6,3
   23718:	31b6af04 	addi	r6,r6,-9540
   2371c:	014000f4 	movhi	r5,3
   23720:	2976af04 	addi	r5,r5,-9540
   23724:	010000f4 	movhi	r4,3
   23728:	2136af04 	addi	r4,r4,-9540
   2372c:	002cba40 	call	2cba4 <alt_io_redirect>
  /* 
   * Call the C++ constructors 
   */

  ALT_LOG_PRINT_BOOT("[alt_main.c] Calling C++ constructors.\r\n");
  _do_ctors ();
   23730:	002c7400 	call	2c740 <_do_ctors>
   * redefined as _exit()). This is in the interest of reducing code footprint,
   * in that the atexit() overhead is removed when it's not needed.
   */

  ALT_LOG_PRINT_BOOT("[alt_main.c] Calling atexit.\r\n");
  atexit (_do_dtors);
   23734:	010000f4 	movhi	r4,3
   23738:	2131e804 	addi	r4,r4,-14432
   2373c:	002d6ec0 	call	2d6ec <atexit>
  ALT_LOG_PRINT_BOOT("[alt_main.c] Calling main.\r\n");

#ifdef ALT_NO_EXIT
  main (alt_argc, alt_argv, alt_envp);
#else
  result = main (alt_argc, alt_argv, alt_envp);
   23740:	d0a6ef17 	ldw	r2,-25668(gp)
   23744:	d0e6f017 	ldw	r3,-25664(gp)
   23748:	d126f117 	ldw	r4,-25660(gp)
   2374c:	200d883a 	mov	r6,r4
   23750:	180b883a 	mov	r5,r3
   23754:	1009883a 	mov	r4,r2
   23758:	00202dc0 	call	202dc <main>
   2375c:	e0bffb15 	stw	r2,-20(fp)
  close(STDOUT_FILENO);
   23760:	01000044 	movi	r4,1
   23764:	00231d00 	call	231d0 <close>
  exit (result);
   23768:	e13ffb17 	ldw	r4,-20(fp)
   2376c:	002d7000 	call	2d700 <exit>

00023770 <alt_get_errno>:
#undef errno

extern int errno;

static ALT_INLINE int* alt_get_errno(void)
{
   23770:	defffe04 	addi	sp,sp,-8
   23774:	dfc00115 	stw	ra,4(sp)
   23778:	df000015 	stw	fp,0(sp)
   2377c:	d839883a 	mov	fp,sp
  return ((alt_errno) ? alt_errno() : &errno);
   23780:	d0a00917 	ldw	r2,-32732(gp)
   23784:	10000326 	beq	r2,zero,23794 <alt_get_errno+0x24>
   23788:	d0a00917 	ldw	r2,-32732(gp)
   2378c:	103ee83a 	callr	r2
   23790:	00000106 	br	23798 <alt_get_errno+0x28>
   23794:	d0a6ed04 	addi	r2,gp,-25676
}
   23798:	e037883a 	mov	sp,fp
   2379c:	dfc00117 	ldw	ra,4(sp)
   237a0:	df000017 	ldw	fp,0(sp)
   237a4:	dec00204 	addi	sp,sp,8
   237a8:	f800283a 	ret

000237ac <read>:
}

#else /* !ALT_USE_DIRECT_DRIVERS */

int ALT_READ (int file, void *ptr, size_t len)
{
   237ac:	defff904 	addi	sp,sp,-28
   237b0:	dfc00615 	stw	ra,24(sp)
   237b4:	df000515 	stw	fp,20(sp)
   237b8:	df000504 	addi	fp,sp,20
   237bc:	e13ffd15 	stw	r4,-12(fp)
   237c0:	e17ffe15 	stw	r5,-8(fp)
   237c4:	e1bfff15 	stw	r6,-4(fp)
   * A common error case is that when the file descriptor was created, the call
   * to open() failed resulting in a negative file descriptor. This is trapped
   * below so that we don't try and process an invalid file descriptor.
   */

  fd = (file < 0) ? NULL : &alt_fd_list[file];
   237c8:	e0bffd17 	ldw	r2,-12(fp)
   237cc:	10000816 	blt	r2,zero,237f0 <read+0x44>
   237d0:	01400304 	movi	r5,12
   237d4:	e13ffd17 	ldw	r4,-12(fp)
   237d8:	002316c0 	call	2316c <__mulsi3>
   237dc:	1007883a 	mov	r3,r2
   237e0:	008000f4 	movhi	r2,3
   237e4:	10b91504 	addi	r2,r2,-7084
   237e8:	1885883a 	add	r2,r3,r2
   237ec:	00000106 	br	237f4 <read+0x48>
   237f0:	0005883a 	mov	r2,zero
   237f4:	e0bffb15 	stw	r2,-20(fp)
  
  if (fd)
   237f8:	e0bffb17 	ldw	r2,-20(fp)
   237fc:	10002226 	beq	r2,zero,23888 <read+0xdc>
     * If the file has not been opened with read access, or if the driver does
     * not provide an implementation of read(), generate an error. Otherwise
     * call the drivers read() function to process the request.
     */

    if (((fd->fd_flags & O_ACCMODE) != O_WRONLY) && 
   23800:	e0bffb17 	ldw	r2,-20(fp)
   23804:	10800217 	ldw	r2,8(r2)
   23808:	108000cc 	andi	r2,r2,3
   2380c:	10800060 	cmpeqi	r2,r2,1
   23810:	1000181e 	bne	r2,zero,23874 <read+0xc8>
        (fd->dev->read))
   23814:	e0bffb17 	ldw	r2,-20(fp)
   23818:	10800017 	ldw	r2,0(r2)
   2381c:	10800517 	ldw	r2,20(r2)
     * If the file has not been opened with read access, or if the driver does
     * not provide an implementation of read(), generate an error. Otherwise
     * call the drivers read() function to process the request.
     */

    if (((fd->fd_flags & O_ACCMODE) != O_WRONLY) && 
   23820:	10001426 	beq	r2,zero,23874 <read+0xc8>
        (fd->dev->read))
      {
        if ((rval = fd->dev->read(fd, ptr, len)) < 0)
   23824:	e0bffb17 	ldw	r2,-20(fp)
   23828:	10800017 	ldw	r2,0(r2)
   2382c:	10800517 	ldw	r2,20(r2)
   23830:	e0ffff17 	ldw	r3,-4(fp)
   23834:	180d883a 	mov	r6,r3
   23838:	e17ffe17 	ldw	r5,-8(fp)
   2383c:	e13ffb17 	ldw	r4,-20(fp)
   23840:	103ee83a 	callr	r2
   23844:	e0bffc15 	stw	r2,-16(fp)
   23848:	e0bffc17 	ldw	r2,-16(fp)
   2384c:	1000070e 	bge	r2,zero,2386c <read+0xc0>
        {
          ALT_ERRNO = -rval;
   23850:	00237700 	call	23770 <alt_get_errno>
   23854:	1007883a 	mov	r3,r2
   23858:	e0bffc17 	ldw	r2,-16(fp)
   2385c:	0085c83a 	sub	r2,zero,r2
   23860:	18800015 	stw	r2,0(r3)
          return -1;
   23864:	00bfffc4 	movi	r2,-1
   23868:	00000c06 	br	2389c <read+0xf0>
        }
        return rval;
   2386c:	e0bffc17 	ldw	r2,-16(fp)
   23870:	00000a06 	br	2389c <read+0xf0>
      }
      else
      {
        ALT_ERRNO = EACCES;
   23874:	00237700 	call	23770 <alt_get_errno>
   23878:	1007883a 	mov	r3,r2
   2387c:	00800344 	movi	r2,13
   23880:	18800015 	stw	r2,0(r3)
   23884:	00000406 	br	23898 <read+0xec>
      }
    }
  else
  {
    ALT_ERRNO = EBADFD;
   23888:	00237700 	call	23770 <alt_get_errno>
   2388c:	1007883a 	mov	r3,r2
   23890:	00801444 	movi	r2,81
   23894:	18800015 	stw	r2,0(r3)
  }
  return -1;
   23898:	00bfffc4 	movi	r2,-1
}
   2389c:	e037883a 	mov	sp,fp
   238a0:	dfc00117 	ldw	ra,4(sp)
   238a4:	df000017 	ldw	fp,0(sp)
   238a8:	dec00204 	addi	sp,sp,8
   238ac:	f800283a 	ret

000238b0 <alt_release_fd>:
 * File descriptors correcponding to standard in, standard out and standard 
 * error cannont be released backed to the pool. They are always reserved.
 */

void alt_release_fd (int fd)
{
   238b0:	defffc04 	addi	sp,sp,-16
   238b4:	dfc00315 	stw	ra,12(sp)
   238b8:	df000215 	stw	fp,8(sp)
   238bc:	dc000115 	stw	r16,4(sp)
   238c0:	df000204 	addi	fp,sp,8
   238c4:	e13ffe15 	stw	r4,-8(fp)
  if (fd > 2)
   238c8:	e0bffe17 	ldw	r2,-8(fp)
   238cc:	108000d0 	cmplti	r2,r2,3
   238d0:	1000111e 	bne	r2,zero,23918 <alt_release_fd+0x68>
  {
    alt_fd_list[fd].fd_flags = 0;
   238d4:	040000f4 	movhi	r16,3
   238d8:	84391504 	addi	r16,r16,-7084
   238dc:	e0bffe17 	ldw	r2,-8(fp)
   238e0:	01400304 	movi	r5,12
   238e4:	1009883a 	mov	r4,r2
   238e8:	002316c0 	call	2316c <__mulsi3>
   238ec:	8085883a 	add	r2,r16,r2
   238f0:	10800204 	addi	r2,r2,8
   238f4:	10000015 	stw	zero,0(r2)
    alt_fd_list[fd].dev      = 0;
   238f8:	040000f4 	movhi	r16,3
   238fc:	84391504 	addi	r16,r16,-7084
   23900:	e0bffe17 	ldw	r2,-8(fp)
   23904:	01400304 	movi	r5,12
   23908:	1009883a 	mov	r4,r2
   2390c:	002316c0 	call	2316c <__mulsi3>
   23910:	8085883a 	add	r2,r16,r2
   23914:	10000015 	stw	zero,0(r2)
  }
}
   23918:	0001883a 	nop
   2391c:	e6ffff04 	addi	sp,fp,-4
   23920:	dfc00217 	ldw	ra,8(sp)
   23924:	df000117 	ldw	fp,4(sp)
   23928:	dc000017 	ldw	r16,0(sp)
   2392c:	dec00304 	addi	sp,sp,12
   23930:	f800283a 	ret

00023934 <sbrk>:
#endif
 
caddr_t ALT_SBRK (int incr) __attribute__ ((no_instrument_function ));

caddr_t ALT_SBRK (int incr)
{ 
   23934:	defff904 	addi	sp,sp,-28
   23938:	df000615 	stw	fp,24(sp)
   2393c:	df000604 	addi	fp,sp,24
   23940:	e13fff15 	stw	r4,-4(fp)
static ALT_INLINE alt_irq_context ALT_ALWAYS_INLINE 
       alt_irq_disable_all (void)
{
  alt_irq_context context;

  NIOS2_READ_STATUS (context);
   23944:	0005303a 	rdctl	r2,status
   23948:	e0bffe15 	stw	r2,-8(fp)

  NIOS2_WRITE_STATUS (context & ~NIOS2_STATUS_PIE_MSK);
   2394c:	e0fffe17 	ldw	r3,-8(fp)
   23950:	00bfff84 	movi	r2,-2
   23954:	1884703a 	and	r2,r3,r2
   23958:	1001703a 	wrctl	status,r2
  
  return context;
   2395c:	e0bffe17 	ldw	r2,-8(fp)
  alt_irq_context context;
  char *prev_heap_end; 

  context = alt_irq_disable_all();
   23960:	e0bffb15 	stw	r2,-20(fp)

  /* Always return data aligned on a word boundary */
  heap_end = (char *)(((unsigned int)heap_end + 3) & ~3);
   23964:	d0a00a17 	ldw	r2,-32728(gp)
   23968:	10c000c4 	addi	r3,r2,3
   2396c:	00bfff04 	movi	r2,-4
   23970:	1884703a 	and	r2,r3,r2
   23974:	d0a00a15 	stw	r2,-32728(gp)
  if (((heap_end + incr) - __alt_heap_start) > ALT_MAX_HEAP_BYTES) {
    alt_irq_enable_all(context);
    return (caddr_t)-1;
  }
#else
  if ((heap_end + incr) > __alt_heap_limit) {
   23978:	d0e00a17 	ldw	r3,-32728(gp)
   2397c:	e0bfff17 	ldw	r2,-4(fp)
   23980:	1887883a 	add	r3,r3,r2
   23984:	00800134 	movhi	r2,4
   23988:	10bd0004 	addi	r2,r2,-3072
   2398c:	10c0062e 	bgeu	r2,r3,239a8 <sbrk+0x74>
   23990:	e0bffb17 	ldw	r2,-20(fp)
   23994:	e0bffa15 	stw	r2,-24(fp)
  status &= ~NIOS2_STATUS_PIE_MSK;
  status |= (context & NIOS2_STATUS_PIE_MSK);
  
  NIOS2_WRITE_STATUS (status);
#else
  NIOS2_WRITE_STATUS (context);
   23998:	e0bffa17 	ldw	r2,-24(fp)
   2399c:	1001703a 	wrctl	status,r2
    alt_irq_enable_all(context);
    return (caddr_t)-1;
   239a0:	00bfffc4 	movi	r2,-1
   239a4:	00000b06 	br	239d4 <sbrk+0xa0>
  }
#endif

  prev_heap_end = heap_end; 
   239a8:	d0a00a17 	ldw	r2,-32728(gp)
   239ac:	e0bffd15 	stw	r2,-12(fp)
  heap_end += incr; 
   239b0:	d0e00a17 	ldw	r3,-32728(gp)
   239b4:	e0bfff17 	ldw	r2,-4(fp)
   239b8:	1885883a 	add	r2,r3,r2
   239bc:	d0a00a15 	stw	r2,-32728(gp)
   239c0:	e0bffb17 	ldw	r2,-20(fp)
   239c4:	e0bffc15 	stw	r2,-16(fp)
   239c8:	e0bffc17 	ldw	r2,-16(fp)
   239cc:	1001703a 	wrctl	status,r2

#endif

  alt_irq_enable_all(context);

  return (caddr_t) prev_heap_end; 
   239d0:	e0bffd17 	ldw	r2,-12(fp)
} 
   239d4:	e037883a 	mov	sp,fp
   239d8:	df000017 	ldw	fp,0(sp)
   239dc:	dec00104 	addi	sp,sp,4
   239e0:	f800283a 	ret

000239e4 <alt_get_errno>:
#undef errno

extern int errno;

static ALT_INLINE int* alt_get_errno(void)
{
   239e4:	defffe04 	addi	sp,sp,-8
   239e8:	dfc00115 	stw	ra,4(sp)
   239ec:	df000015 	stw	fp,0(sp)
   239f0:	d839883a 	mov	fp,sp
  return ((alt_errno) ? alt_errno() : &errno);
   239f4:	d0a00917 	ldw	r2,-32732(gp)
   239f8:	10000326 	beq	r2,zero,23a08 <alt_get_errno+0x24>
   239fc:	d0a00917 	ldw	r2,-32732(gp)
   23a00:	103ee83a 	callr	r2
   23a04:	00000106 	br	23a0c <alt_get_errno+0x28>
   23a08:	d0a6ed04 	addi	r2,gp,-25676
}
   23a0c:	e037883a 	mov	sp,fp
   23a10:	dfc00117 	ldw	ra,4(sp)
   23a14:	df000017 	ldw	fp,0(sp)
   23a18:	dec00204 	addi	sp,sp,8
   23a1c:	f800283a 	ret

00023a20 <write>:
}

#else /* !ALT_USE_DIRECT_DRIVERS */

int ALT_WRITE (int file, const void *ptr, size_t len)
{
   23a20:	defff904 	addi	sp,sp,-28
   23a24:	dfc00615 	stw	ra,24(sp)
   23a28:	df000515 	stw	fp,20(sp)
   23a2c:	df000504 	addi	fp,sp,20
   23a30:	e13ffd15 	stw	r4,-12(fp)
   23a34:	e17ffe15 	stw	r5,-8(fp)
   23a38:	e1bfff15 	stw	r6,-4(fp)
   * A common error case is that when the file descriptor was created, the call
   * to open() failed resulting in a negative file descriptor. This is trapped
   * below so that we don't try and process an invalid file descriptor.
   */

  fd = (file < 0) ? NULL : &alt_fd_list[file];
   23a3c:	e0bffd17 	ldw	r2,-12(fp)
   23a40:	10000816 	blt	r2,zero,23a64 <write+0x44>
   23a44:	01400304 	movi	r5,12
   23a48:	e13ffd17 	ldw	r4,-12(fp)
   23a4c:	002316c0 	call	2316c <__mulsi3>
   23a50:	1007883a 	mov	r3,r2
   23a54:	008000f4 	movhi	r2,3
   23a58:	10b91504 	addi	r2,r2,-7084
   23a5c:	1885883a 	add	r2,r3,r2
   23a60:	00000106 	br	23a68 <write+0x48>
   23a64:	0005883a 	mov	r2,zero
   23a68:	e0bffb15 	stw	r2,-20(fp)
  
  if (fd)
   23a6c:	e0bffb17 	ldw	r2,-20(fp)
   23a70:	10002126 	beq	r2,zero,23af8 <write+0xd8>
     * If the file has not been opened with write access, or if the driver does
     * not provide an implementation of write(), generate an error. Otherwise
     * call the drivers write() function to process the request.
     */

    if (((fd->fd_flags & O_ACCMODE) != O_RDONLY) && fd->dev->write)
   23a74:	e0bffb17 	ldw	r2,-20(fp)
   23a78:	10800217 	ldw	r2,8(r2)
   23a7c:	108000cc 	andi	r2,r2,3
   23a80:	10001826 	beq	r2,zero,23ae4 <write+0xc4>
   23a84:	e0bffb17 	ldw	r2,-20(fp)
   23a88:	10800017 	ldw	r2,0(r2)
   23a8c:	10800617 	ldw	r2,24(r2)
   23a90:	10001426 	beq	r2,zero,23ae4 <write+0xc4>
    {
      
      /* ALT_LOG - see altera_hal/HAL/inc/sys/alt_log_printf.h */
      ALT_LOG_WRITE_FUNCTION(ptr,len);

      if ((rval = fd->dev->write(fd, ptr, len)) < 0)
   23a94:	e0bffb17 	ldw	r2,-20(fp)
   23a98:	10800017 	ldw	r2,0(r2)
   23a9c:	10800617 	ldw	r2,24(r2)
   23aa0:	e0ffff17 	ldw	r3,-4(fp)
   23aa4:	180d883a 	mov	r6,r3
   23aa8:	e17ffe17 	ldw	r5,-8(fp)
   23aac:	e13ffb17 	ldw	r4,-20(fp)
   23ab0:	103ee83a 	callr	r2
   23ab4:	e0bffc15 	stw	r2,-16(fp)
   23ab8:	e0bffc17 	ldw	r2,-16(fp)
   23abc:	1000070e 	bge	r2,zero,23adc <write+0xbc>
      {
        ALT_ERRNO = -rval;
   23ac0:	00239e40 	call	239e4 <alt_get_errno>
   23ac4:	1007883a 	mov	r3,r2
   23ac8:	e0bffc17 	ldw	r2,-16(fp)
   23acc:	0085c83a 	sub	r2,zero,r2
   23ad0:	18800015 	stw	r2,0(r3)
        return -1;
   23ad4:	00bfffc4 	movi	r2,-1
   23ad8:	00000c06 	br	23b0c <write+0xec>
      }
      return rval;
   23adc:	e0bffc17 	ldw	r2,-16(fp)
   23ae0:	00000a06 	br	23b0c <write+0xec>
    }
    else
    {
      ALT_ERRNO = EACCES;
   23ae4:	00239e40 	call	239e4 <alt_get_errno>
   23ae8:	1007883a 	mov	r3,r2
   23aec:	00800344 	movi	r2,13
   23af0:	18800015 	stw	r2,0(r3)
   23af4:	00000406 	br	23b08 <write+0xe8>
    }
  }
  else  
  {
    ALT_ERRNO = EBADFD;
   23af8:	00239e40 	call	239e4 <alt_get_errno>
   23afc:	1007883a 	mov	r3,r2
   23b00:	00801444 	movi	r2,81
   23b04:	18800015 	stw	r2,0(r3)
  }
  return -1;
   23b08:	00bfffc4 	movi	r2,-1
}
   23b0c:	e037883a 	mov	sp,fp
   23b10:	dfc00117 	ldw	ra,4(sp)
   23b14:	df000017 	ldw	fp,0(sp)
   23b18:	dec00204 	addi	sp,sp,8
   23b1c:	f800283a 	ret

00023b20 <__env_lock>:
/*
 *
 */

void __env_lock ( struct _reent *_r )
{
   23b20:	deffdf04 	addi	sp,sp,-132
   23b24:	dfc02015 	stw	ra,128(sp)
   23b28:	df001f15 	stw	fp,124(sp)
   23b2c:	df001f04 	addi	fp,sp,124
   23b30:	e13fff15 	stw	r4,-4(fp)
  INT8U err;
  int id;

  /* use our priority as a task id */

  err = OSTaskQuery( OS_PRIO_SELF, &tcb );
   23b34:	e0bfe204 	addi	r2,fp,-120
   23b38:	100b883a 	mov	r5,r2
   23b3c:	01003fc4 	movi	r4,255
   23b40:	002af840 	call	2af84 <OSTaskQuery>
   23b44:	e0bffe85 	stb	r2,-6(fp)
  if (err != OS_NO_ERR)
   23b48:	e0bffe83 	ldbu	r2,-6(fp)
   23b4c:	10803fcc 	andi	r2,r2,255
   23b50:	10001e1e 	bne	r2,zero,23bcc <__env_lock+0xac>
    return;

  id = tcb.OSTCBPrio;
   23b54:	e0bfee83 	ldbu	r2,-70(fp)
   23b58:	10803fcc 	andi	r2,r2,255
   23b5c:	e0bfe115 	stw	r2,-124(fp)
   
  /* see if we own the environment already */

  OSSemQuery( alt_envsem, &semdata );
   23b60:	d0a6f317 	ldw	r2,-25652(gp)
   23b64:	e0fffd04 	addi	r3,fp,-12
   23b68:	180b883a 	mov	r5,r3
   23b6c:	1009883a 	mov	r4,r2
   23b70:	002979c0 	call	2979c <OSSemQuery>
  if( semdata.OSEventGrp && id == lockid ) 
   23b74:	e0bffe43 	ldbu	r2,-7(fp)
   23b78:	10803fcc 	andi	r2,r2,255
   23b7c:	10000726 	beq	r2,zero,23b9c <__env_lock+0x7c>
   23b80:	d0a00b17 	ldw	r2,-32724(gp)
   23b84:	e0ffe117 	ldw	r3,-124(fp)
   23b88:	1880041e 	bne	r3,r2,23b9c <__env_lock+0x7c>
  {
    /* we do; just count the recursion */

    locks++;
   23b8c:	d0a6f217 	ldw	r2,-25656(gp)
   23b90:	10800044 	addi	r2,r2,1
   23b94:	d0a6f215 	stw	r2,-25656(gp)
   23b98:	00000a06 	br	23bc4 <__env_lock+0xa4>
  }
  else 
  {
    /* wait on the other task to yield, then claim ownership */

    OSSemPend( alt_envsem, 0, &err );
   23b9c:	d0a6f317 	ldw	r2,-25652(gp)
   23ba0:	e0fffe84 	addi	r3,fp,-6
   23ba4:	180d883a 	mov	r6,r3
   23ba8:	000b883a 	mov	r5,zero
   23bac:	1009883a 	mov	r4,r2
   23bb0:	00293140 	call	29314 <OSSemPend>
    locks  = 1;
   23bb4:	00800044 	movi	r2,1
   23bb8:	d0a6f215 	stw	r2,-25656(gp)
    lockid = id;
   23bbc:	e0bfe117 	ldw	r2,-124(fp)
   23bc0:	d0a00b15 	stw	r2,-32724(gp)
  }

#endif /* OS_THREAD_SAFE_NEWLIB */
  return;
   23bc4:	0001883a 	nop
   23bc8:	00000106 	br	23bd0 <__env_lock+0xb0>

  /* use our priority as a task id */

  err = OSTaskQuery( OS_PRIO_SELF, &tcb );
  if (err != OS_NO_ERR)
    return;
   23bcc:	0001883a 	nop
    lockid = id;
  }

#endif /* OS_THREAD_SAFE_NEWLIB */
  return;
}
   23bd0:	e037883a 	mov	sp,fp
   23bd4:	dfc00117 	ldw	ra,4(sp)
   23bd8:	df000017 	ldw	fp,0(sp)
   23bdc:	dec00204 	addi	sp,sp,8
   23be0:	f800283a 	ret

00023be4 <__env_unlock>:
/*
 *
 */

void __env_unlock ( struct _reent *_r )
{
   23be4:	defffd04 	addi	sp,sp,-12
   23be8:	dfc00215 	stw	ra,8(sp)
   23bec:	df000115 	stw	fp,4(sp)
   23bf0:	df000104 	addi	fp,sp,4
   23bf4:	e13fff15 	stw	r4,-4(fp)
#if OS_THREAD_SAFE_NEWLIB
  if (locks == 0)
   23bf8:	d0a6f217 	ldw	r2,-25656(gp)
   23bfc:	10000b26 	beq	r2,zero,23c2c <__env_unlock+0x48>
   /* 
    * release the environment once the number of locks == the number 
    * of unlocks 
    */

  if( (--locks) == 0 ) 
   23c00:	d0a6f217 	ldw	r2,-25656(gp)
   23c04:	10bfffc4 	addi	r2,r2,-1
   23c08:	d0a6f215 	stw	r2,-25656(gp)
   23c0c:	d0a6f217 	ldw	r2,-25656(gp)
   23c10:	1000071e 	bne	r2,zero,23c30 <__env_unlock+0x4c>
  {
    lockid = -1;
   23c14:	00bfffc4 	movi	r2,-1
   23c18:	d0a00b15 	stw	r2,-32724(gp)
    OSSemPost( alt_envsem );
   23c1c:	d0a6f317 	ldw	r2,-25652(gp)
   23c20:	1009883a 	mov	r4,r2
   23c24:	002968c0 	call	2968c <OSSemPost>
   23c28:	00000106 	br	23c30 <__env_unlock+0x4c>

void __env_unlock ( struct _reent *_r )
{
#if OS_THREAD_SAFE_NEWLIB
  if (locks == 0)
    return;
   23c2c:	0001883a 	nop
  {
    lockid = -1;
    OSSemPost( alt_envsem );
  }
#endif /* OS_THREAD_SAFE_NEWLIB */
}
   23c30:	e037883a 	mov	sp,fp
   23c34:	dfc00117 	ldw	ra,4(sp)
   23c38:	df000017 	ldw	fp,0(sp)
   23c3c:	dec00204 	addi	sp,sp,8
   23c40:	f800283a 	ret

00023c44 <__malloc_lock>:
/*
 *
 */

void __malloc_lock ( struct _reent *_r )
{
   23c44:	deffdb04 	addi	sp,sp,-148
   23c48:	dfc02415 	stw	ra,144(sp)
   23c4c:	df002315 	stw	fp,140(sp)
   23c50:	df002304 	addi	fp,sp,140
   23c54:	e13fff15 	stw	r4,-4(fp)
  OS_TCB tcb;
  OS_SEM_DATA semdata;
  INT8U err;
  int id;
#if OS_CRITICAL_METHOD == 3                      /* Allocate storage for CPU status register           */
    OS_CPU_SR  cpu_sr = 0;
   23c58:	e03fdd15 	stw	zero,-140(fp)
#endif  
  
  if (OSRunning != OS_TRUE)
   23c5c:	d0a6f643 	ldbu	r2,-25639(gp)
   23c60:	10803fcc 	andi	r2,r2,255
   23c64:	10800060 	cmpeqi	r2,r2,1
   23c68:	10003626 	beq	r2,zero,23d44 <__malloc_lock+0x100>
      return;

  /* use our priority as a task id */

  err = OSTaskQuery( OS_PRIO_SELF, &tcb );
   23c6c:	e0bfe204 	addi	r2,fp,-120
   23c70:	100b883a 	mov	r5,r2
   23c74:	01003fc4 	movi	r4,255
   23c78:	002af840 	call	2af84 <OSTaskQuery>
   23c7c:	e0bffe85 	stb	r2,-6(fp)
  if (err != OS_NO_ERR)
   23c80:	e0bffe83 	ldbu	r2,-6(fp)
   23c84:	10803fcc 	andi	r2,r2,255
   23c88:	1000301e 	bne	r2,zero,23d4c <__malloc_lock+0x108>
    return;

  id = tcb.OSTCBPrio;
   23c8c:	e0bfee83 	ldbu	r2,-70(fp)
   23c90:	10803fcc 	andi	r2,r2,255
   23c94:	e0bfde15 	stw	r2,-136(fp)
   
  /* see if we own the heap already */

  OSSemQuery( alt_heapsem, &semdata );
   23c98:	d0a6f517 	ldw	r2,-25644(gp)
   23c9c:	e0fffd04 	addi	r3,fp,-12
   23ca0:	180b883a 	mov	r5,r3
   23ca4:	1009883a 	mov	r4,r2
   23ca8:	002979c0 	call	2979c <OSSemQuery>
static ALT_INLINE alt_irq_context ALT_ALWAYS_INLINE 
       alt_irq_disable_all (void)
{
  alt_irq_context context;

  NIOS2_READ_STATUS (context);
   23cac:	0005303a 	rdctl	r2,status
   23cb0:	e0bfe115 	stw	r2,-124(fp)

  NIOS2_WRITE_STATUS (context & ~NIOS2_STATUS_PIE_MSK);
   23cb4:	e0ffe117 	ldw	r3,-124(fp)
   23cb8:	00bfff84 	movi	r2,-2
   23cbc:	1884703a 	and	r2,r3,r2
   23cc0:	1001703a 	wrctl	status,r2
  
  return context;
   23cc4:	e0bfe117 	ldw	r2,-124(fp)
  
  OS_ENTER_CRITICAL();
   23cc8:	e0bfdd15 	stw	r2,-140(fp)

  if( !semdata.OSCnt && id == lockid ) 
   23ccc:	e0bffd0b 	ldhu	r2,-12(fp)
   23cd0:	10bfffcc 	andi	r2,r2,65535
   23cd4:	10000b1e 	bne	r2,zero,23d04 <__malloc_lock+0xc0>
   23cd8:	d0a00c17 	ldw	r2,-32720(gp)
   23cdc:	e0ffde17 	ldw	r3,-136(fp)
   23ce0:	1880081e 	bne	r3,r2,23d04 <__malloc_lock+0xc0>
  {
    /* we do; just count the recursion */
    locks++;
   23ce4:	d0a6f417 	ldw	r2,-25648(gp)
   23ce8:	10800044 	addi	r2,r2,1
   23cec:	d0a6f415 	stw	r2,-25648(gp)
   23cf0:	e0bfdd17 	ldw	r2,-140(fp)
   23cf4:	e0bfdf15 	stw	r2,-132(fp)
  status &= ~NIOS2_STATUS_PIE_MSK;
  status |= (context & NIOS2_STATUS_PIE_MSK);
  
  NIOS2_WRITE_STATUS (status);
#else
  NIOS2_WRITE_STATUS (context);
   23cf8:	e0bfdf17 	ldw	r2,-132(fp)
   23cfc:	1001703a 	wrctl	status,r2
    OS_EXIT_CRITICAL();
   23d00:	00000e06 	br	23d3c <__malloc_lock+0xf8>
   23d04:	e0bfdd17 	ldw	r2,-140(fp)
   23d08:	e0bfe015 	stw	r2,-128(fp)
   23d0c:	e0bfe017 	ldw	r2,-128(fp)
   23d10:	1001703a 	wrctl	status,r2
  else 
  {
    /* wait on the other task to yield the heap, then claim ownership of it */
    OS_EXIT_CRITICAL();

    OSSemPend( alt_heapsem, 0, &err );
   23d14:	d0a6f517 	ldw	r2,-25644(gp)
   23d18:	e0fffe84 	addi	r3,fp,-6
   23d1c:	180d883a 	mov	r6,r3
   23d20:	000b883a 	mov	r5,zero
   23d24:	1009883a 	mov	r4,r2
   23d28:	00293140 	call	29314 <OSSemPend>
    locks  = 1;
   23d2c:	00800044 	movi	r2,1
   23d30:	d0a6f415 	stw	r2,-25648(gp)
    lockid = id;
   23d34:	e0bfde17 	ldw	r2,-136(fp)
   23d38:	d0a00c15 	stw	r2,-32720(gp)
  }

#endif /* OS_THREAD_SAFE_NEWLIB */
  return;
   23d3c:	0001883a 	nop
   23d40:	00000306 	br	23d50 <__malloc_lock+0x10c>
#if OS_CRITICAL_METHOD == 3                      /* Allocate storage for CPU status register           */
    OS_CPU_SR  cpu_sr = 0;
#endif  
  
  if (OSRunning != OS_TRUE)
      return;
   23d44:	0001883a 	nop
   23d48:	00000106 	br	23d50 <__malloc_lock+0x10c>

  /* use our priority as a task id */

  err = OSTaskQuery( OS_PRIO_SELF, &tcb );
  if (err != OS_NO_ERR)
    return;
   23d4c:	0001883a 	nop
    lockid = id;
  }

#endif /* OS_THREAD_SAFE_NEWLIB */
  return;
}
   23d50:	e037883a 	mov	sp,fp
   23d54:	dfc00117 	ldw	ra,4(sp)
   23d58:	df000017 	ldw	fp,0(sp)
   23d5c:	dec00204 	addi	sp,sp,8
   23d60:	f800283a 	ret

00023d64 <__malloc_unlock>:
/*
 *
 */

void __malloc_unlock ( struct _reent *_r )
{
   23d64:	defff804 	addi	sp,sp,-32
   23d68:	dfc00715 	stw	ra,28(sp)
   23d6c:	df000615 	stw	fp,24(sp)
   23d70:	df000604 	addi	fp,sp,24
   23d74:	e13fff15 	stw	r4,-4(fp)
#if OS_THREAD_SAFE_NEWLIB

#if OS_CRITICAL_METHOD == 3                      /* Allocate storage for CPU status register           */
    OS_CPU_SR  cpu_sr = 0;
   23d78:	e03ffa15 	stw	zero,-24(fp)
#endif 

  if (OSRunning != OS_TRUE)
   23d7c:	d0a6f643 	ldbu	r2,-25639(gp)
   23d80:	10803fcc 	andi	r2,r2,255
   23d84:	10800060 	cmpeqi	r2,r2,1
   23d88:	10002326 	beq	r2,zero,23e18 <__malloc_unlock+0xb4>
static ALT_INLINE alt_irq_context ALT_ALWAYS_INLINE 
       alt_irq_disable_all (void)
{
  alt_irq_context context;

  NIOS2_READ_STATUS (context);
   23d8c:	0005303a 	rdctl	r2,status
   23d90:	e0bffe15 	stw	r2,-8(fp)

  NIOS2_WRITE_STATUS (context & ~NIOS2_STATUS_PIE_MSK);
   23d94:	e0fffe17 	ldw	r3,-8(fp)
   23d98:	00bfff84 	movi	r2,-2
   23d9c:	1884703a 	and	r2,r3,r2
   23da0:	1001703a 	wrctl	status,r2
  
  return context;
   23da4:	e0bffe17 	ldw	r2,-8(fp)
      return;

  OS_ENTER_CRITICAL();
   23da8:	e0bffa15 	stw	r2,-24(fp)
  if (locks == 0)
   23dac:	d0a6f417 	ldw	r2,-25648(gp)
   23db0:	1000051e 	bne	r2,zero,23dc8 <__malloc_unlock+0x64>
   23db4:	e0bffa17 	ldw	r2,-24(fp)
   23db8:	e0bffb15 	stw	r2,-20(fp)
  status &= ~NIOS2_STATUS_PIE_MSK;
  status |= (context & NIOS2_STATUS_PIE_MSK);
  
  NIOS2_WRITE_STATUS (status);
#else
  NIOS2_WRITE_STATUS (context);
   23dbc:	e0bffb17 	ldw	r2,-20(fp)
   23dc0:	1001703a 	wrctl	status,r2
  {
      OS_EXIT_CRITICAL();
      return;
   23dc4:	00001506 	br	23e1c <__malloc_unlock+0xb8>
  }

  /* release the heap once the number of locks == the number of unlocks */
  if( (--locks) == 0 ) 
   23dc8:	d0a6f417 	ldw	r2,-25648(gp)
   23dcc:	10bfffc4 	addi	r2,r2,-1
   23dd0:	d0a6f415 	stw	r2,-25648(gp)
   23dd4:	d0a6f417 	ldw	r2,-25648(gp)
   23dd8:	10000a1e 	bne	r2,zero,23e04 <__malloc_unlock+0xa0>
  {
    lockid = -1;
   23ddc:	00bfffc4 	movi	r2,-1
   23de0:	d0a00c15 	stw	r2,-32720(gp)
   23de4:	e0bffa17 	ldw	r2,-24(fp)
   23de8:	e0bffc15 	stw	r2,-16(fp)
   23dec:	e0bffc17 	ldw	r2,-16(fp)
   23df0:	1001703a 	wrctl	status,r2
    OS_EXIT_CRITICAL();
    OSSemPost( alt_heapsem );
   23df4:	d0a6f517 	ldw	r2,-25644(gp)
   23df8:	1009883a 	mov	r4,r2
   23dfc:	002968c0 	call	2968c <OSSemPost>
   23e00:	00000606 	br	23e1c <__malloc_unlock+0xb8>
   23e04:	e0bffa17 	ldw	r2,-24(fp)
   23e08:	e0bffd15 	stw	r2,-12(fp)
   23e0c:	e0bffd17 	ldw	r2,-12(fp)
   23e10:	1001703a 	wrctl	status,r2
   23e14:	00000106 	br	23e1c <__malloc_unlock+0xb8>
#if OS_CRITICAL_METHOD == 3                      /* Allocate storage for CPU status register           */
    OS_CPU_SR  cpu_sr = 0;
#endif 

  if (OSRunning != OS_TRUE)
      return;
   23e18:	0001883a 	nop
  {
      OS_EXIT_CRITICAL();
  }
  
#endif /* OS_THREAD_SAFE_NEWLIB */
}
   23e1c:	e037883a 	mov	sp,fp
   23e20:	dfc00117 	ldw	ra,4(sp)
   23e24:	df000017 	ldw	fp,0(sp)
   23e28:	dec00204 	addi	sp,sp,8
   23e2c:	f800283a 	ret

00023e30 <OSEventNameGet>:
*********************************************************************************************************
*/

#if (OS_EVENT_EN) && (OS_EVENT_NAME_SIZE > 1)
INT8U  OSEventNameGet (OS_EVENT *pevent, INT8U *pname, INT8U *perr)
{
   23e30:	defff704 	addi	sp,sp,-36
   23e34:	dfc00815 	stw	ra,32(sp)
   23e38:	df000715 	stw	fp,28(sp)
   23e3c:	df000704 	addi	fp,sp,28
   23e40:	e13ffd15 	stw	r4,-12(fp)
   23e44:	e17ffe15 	stw	r5,-8(fp)
   23e48:	e1bfff15 	stw	r6,-4(fp)
    INT8U      len;
#if OS_CRITICAL_METHOD == 3                      /* Allocate storage for CPU status register           */
    OS_CPU_SR  cpu_sr = 0;
   23e4c:	e03ff915 	stw	zero,-28(fp)
#endif



#if OS_ARG_CHK_EN > 0
    if (perr == (INT8U *)0) {                    /* Validate 'perr'                                    */
   23e50:	e0bfff17 	ldw	r2,-4(fp)
   23e54:	1000021e 	bne	r2,zero,23e60 <OSEventNameGet+0x30>
        return (0);
   23e58:	0005883a 	mov	r2,zero
   23e5c:	00003706 	br	23f3c <OSEventNameGet+0x10c>
    }
    if (pevent == (OS_EVENT *)0) {               /* Is 'pevent' a NULL pointer?                        */
   23e60:	e0bffd17 	ldw	r2,-12(fp)
   23e64:	1000051e 	bne	r2,zero,23e7c <OSEventNameGet+0x4c>
        *perr = OS_ERR_PEVENT_NULL;
   23e68:	e0bfff17 	ldw	r2,-4(fp)
   23e6c:	00c00104 	movi	r3,4
   23e70:	10c00005 	stb	r3,0(r2)
        return (0);
   23e74:	0005883a 	mov	r2,zero
   23e78:	00003006 	br	23f3c <OSEventNameGet+0x10c>
    }
    if (pname == (INT8U *)0) {                   /* Is 'pname' a NULL pointer?                         */
   23e7c:	e0bffe17 	ldw	r2,-8(fp)
   23e80:	1000051e 	bne	r2,zero,23e98 <OSEventNameGet+0x68>
        *perr = OS_ERR_PNAME_NULL;
   23e84:	e0bfff17 	ldw	r2,-4(fp)
   23e88:	00c00304 	movi	r3,12
   23e8c:	10c00005 	stb	r3,0(r2)
        return (0);
   23e90:	0005883a 	mov	r2,zero
   23e94:	00002906 	br	23f3c <OSEventNameGet+0x10c>
    }
#endif
    if (OSIntNesting > 0) {                      /* See if trying to call from an ISR                  */
   23e98:	d0a70403 	ldbu	r2,-25584(gp)
   23e9c:	10803fcc 	andi	r2,r2,255
   23ea0:	10000526 	beq	r2,zero,23eb8 <OSEventNameGet+0x88>
        *perr  = OS_ERR_NAME_GET_ISR;
   23ea4:	e0bfff17 	ldw	r2,-4(fp)
   23ea8:	00c00444 	movi	r3,17
   23eac:	10c00005 	stb	r3,0(r2)
        return (0);
   23eb0:	0005883a 	mov	r2,zero
   23eb4:	00002106 	br	23f3c <OSEventNameGet+0x10c>
    }
    switch (pevent->OSEventType) {
   23eb8:	e0bffd17 	ldw	r2,-12(fp)
   23ebc:	10800003 	ldbu	r2,0(r2)
   23ec0:	10803fcc 	andi	r2,r2,255
   23ec4:	10bfffc4 	addi	r2,r2,-1
   23ec8:	10800128 	cmpgeui	r2,r2,4
   23ecc:	10000526 	beq	r2,zero,23ee4 <OSEventNameGet+0xb4>
        case OS_EVENT_TYPE_MBOX:
        case OS_EVENT_TYPE_Q:
             break;

        default:
             *perr = OS_ERR_EVENT_TYPE;
   23ed0:	e0bfff17 	ldw	r2,-4(fp)
   23ed4:	00c00044 	movi	r3,1
   23ed8:	10c00005 	stb	r3,0(r2)
             return (0);
   23edc:	0005883a 	mov	r2,zero
   23ee0:	00001606 	br	23f3c <OSEventNameGet+0x10c>
    switch (pevent->OSEventType) {
        case OS_EVENT_TYPE_SEM:
        case OS_EVENT_TYPE_MUTEX:
        case OS_EVENT_TYPE_MBOX:
        case OS_EVENT_TYPE_Q:
             break;
   23ee4:	0001883a 	nop
static ALT_INLINE alt_irq_context ALT_ALWAYS_INLINE 
       alt_irq_disable_all (void)
{
  alt_irq_context context;

  NIOS2_READ_STATUS (context);
   23ee8:	0005303a 	rdctl	r2,status
   23eec:	e0bffb15 	stw	r2,-20(fp)

  NIOS2_WRITE_STATUS (context & ~NIOS2_STATUS_PIE_MSK);
   23ef0:	e0fffb17 	ldw	r3,-20(fp)
   23ef4:	00bfff84 	movi	r2,-2
   23ef8:	1884703a 	and	r2,r3,r2
   23efc:	1001703a 	wrctl	status,r2
  
  return context;
   23f00:	e0bffb17 	ldw	r2,-20(fp)

        default:
             *perr = OS_ERR_EVENT_TYPE;
             return (0);
    }
    OS_ENTER_CRITICAL();
   23f04:	e0bff915 	stw	r2,-28(fp)
    len   = OS_StrCopy(pname, pevent->OSEventName);   /* Copy name from OS_EVENT                       */
   23f08:	e0bffd17 	ldw	r2,-12(fp)
   23f0c:	10800384 	addi	r2,r2,14
   23f10:	100b883a 	mov	r5,r2
   23f14:	e13ffe17 	ldw	r4,-8(fp)
   23f18:	00258b40 	call	258b4 <OS_StrCopy>
   23f1c:	e0bffa05 	stb	r2,-24(fp)
   23f20:	e0bff917 	ldw	r2,-28(fp)
   23f24:	e0bffc15 	stw	r2,-16(fp)
  status &= ~NIOS2_STATUS_PIE_MSK;
  status |= (context & NIOS2_STATUS_PIE_MSK);
  
  NIOS2_WRITE_STATUS (status);
#else
  NIOS2_WRITE_STATUS (context);
   23f28:	e0bffc17 	ldw	r2,-16(fp)
   23f2c:	1001703a 	wrctl	status,r2
    OS_EXIT_CRITICAL();
    *perr = OS_ERR_NONE;
   23f30:	e0bfff17 	ldw	r2,-4(fp)
   23f34:	10000005 	stb	zero,0(r2)
    return (len);
   23f38:	e0bffa03 	ldbu	r2,-24(fp)
}
   23f3c:	e037883a 	mov	sp,fp
   23f40:	dfc00117 	ldw	ra,4(sp)
   23f44:	df000017 	ldw	fp,0(sp)
   23f48:	dec00204 	addi	sp,sp,8
   23f4c:	f800283a 	ret

00023f50 <OSEventNameSet>:
*********************************************************************************************************
*/

#if (OS_EVENT_EN) && (OS_EVENT_NAME_SIZE > 1)
void  OSEventNameSet (OS_EVENT *pevent, INT8U *pname, INT8U *perr)
{
   23f50:	defff604 	addi	sp,sp,-40
   23f54:	dfc00915 	stw	ra,36(sp)
   23f58:	df000815 	stw	fp,32(sp)
   23f5c:	df000804 	addi	fp,sp,32
   23f60:	e13ffd15 	stw	r4,-12(fp)
   23f64:	e17ffe15 	stw	r5,-8(fp)
   23f68:	e1bfff15 	stw	r6,-4(fp)
    INT8U      len;
#if OS_CRITICAL_METHOD == 3                      /* Allocate storage for CPU status register           */
    OS_CPU_SR  cpu_sr = 0;
   23f6c:	e03ff815 	stw	zero,-32(fp)
#endif



#if OS_ARG_CHK_EN > 0
    if (perr == (INT8U *)0) {                    /* Validate 'perr'                                    */
   23f70:	e0bfff17 	ldw	r2,-4(fp)
   23f74:	10004026 	beq	r2,zero,24078 <OSEventNameSet+0x128>
        return;
    }
    if (pevent == (OS_EVENT *)0) {               /* Is 'pevent' a NULL pointer?                        */
   23f78:	e0bffd17 	ldw	r2,-12(fp)
   23f7c:	1000041e 	bne	r2,zero,23f90 <OSEventNameSet+0x40>
        *perr = OS_ERR_PEVENT_NULL;
   23f80:	e0bfff17 	ldw	r2,-4(fp)
   23f84:	00c00104 	movi	r3,4
   23f88:	10c00005 	stb	r3,0(r2)
        return;
   23f8c:	00003b06 	br	2407c <OSEventNameSet+0x12c>
    }
    if (pname == (INT8U *)0) {                   /* Is 'pname' a NULL pointer?                         */
   23f90:	e0bffe17 	ldw	r2,-8(fp)
   23f94:	1000041e 	bne	r2,zero,23fa8 <OSEventNameSet+0x58>
        *perr = OS_ERR_PNAME_NULL;
   23f98:	e0bfff17 	ldw	r2,-4(fp)
   23f9c:	00c00304 	movi	r3,12
   23fa0:	10c00005 	stb	r3,0(r2)
        return;
   23fa4:	00003506 	br	2407c <OSEventNameSet+0x12c>
    }
#endif
    if (OSIntNesting > 0) {                      /* See if trying to call from an ISR                  */
   23fa8:	d0a70403 	ldbu	r2,-25584(gp)
   23fac:	10803fcc 	andi	r2,r2,255
   23fb0:	10000426 	beq	r2,zero,23fc4 <OSEventNameSet+0x74>
        *perr = OS_ERR_NAME_SET_ISR;
   23fb4:	e0bfff17 	ldw	r2,-4(fp)
   23fb8:	00c00484 	movi	r3,18
   23fbc:	10c00005 	stb	r3,0(r2)
        return;
   23fc0:	00002e06 	br	2407c <OSEventNameSet+0x12c>
    }
    switch (pevent->OSEventType) {
   23fc4:	e0bffd17 	ldw	r2,-12(fp)
   23fc8:	10800003 	ldbu	r2,0(r2)
   23fcc:	10803fcc 	andi	r2,r2,255
   23fd0:	10bfffc4 	addi	r2,r2,-1
   23fd4:	10800128 	cmpgeui	r2,r2,4
   23fd8:	10000426 	beq	r2,zero,23fec <OSEventNameSet+0x9c>
        case OS_EVENT_TYPE_MBOX:
        case OS_EVENT_TYPE_Q:
             break;

        default:
             *perr = OS_ERR_EVENT_TYPE;
   23fdc:	e0bfff17 	ldw	r2,-4(fp)
   23fe0:	00c00044 	movi	r3,1
   23fe4:	10c00005 	stb	r3,0(r2)
             return;
   23fe8:	00002406 	br	2407c <OSEventNameSet+0x12c>
    switch (pevent->OSEventType) {
        case OS_EVENT_TYPE_SEM:
        case OS_EVENT_TYPE_MUTEX:
        case OS_EVENT_TYPE_MBOX:
        case OS_EVENT_TYPE_Q:
             break;
   23fec:	0001883a 	nop
static ALT_INLINE alt_irq_context ALT_ALWAYS_INLINE 
       alt_irq_disable_all (void)
{
  alt_irq_context context;

  NIOS2_READ_STATUS (context);
   23ff0:	0005303a 	rdctl	r2,status
   23ff4:	e0bffc15 	stw	r2,-16(fp)

  NIOS2_WRITE_STATUS (context & ~NIOS2_STATUS_PIE_MSK);
   23ff8:	e0fffc17 	ldw	r3,-16(fp)
   23ffc:	00bfff84 	movi	r2,-2
   24000:	1884703a 	and	r2,r3,r2
   24004:	1001703a 	wrctl	status,r2
  
  return context;
   24008:	e0bffc17 	ldw	r2,-16(fp)

        default:
             *perr = OS_ERR_EVENT_TYPE;
             return;
    }
    OS_ENTER_CRITICAL();
   2400c:	e0bff815 	stw	r2,-32(fp)
    len = OS_StrLen(pname);                           /* Can we fit the string in the storage area?    */
   24010:	e13ffe17 	ldw	r4,-8(fp)
   24014:	00259280 	call	25928 <OS_StrLen>
   24018:	e0bffa05 	stb	r2,-24(fp)
    if (len > (OS_EVENT_NAME_SIZE - 1)) {             /* No                                            */
   2401c:	e0bffa03 	ldbu	r2,-24(fp)
   24020:	10800830 	cmpltui	r2,r2,32
   24024:	1000081e 	bne	r2,zero,24048 <OSEventNameSet+0xf8>
   24028:	e0bff817 	ldw	r2,-32(fp)
   2402c:	e0bff915 	stw	r2,-28(fp)
  status &= ~NIOS2_STATUS_PIE_MSK;
  status |= (context & NIOS2_STATUS_PIE_MSK);
  
  NIOS2_WRITE_STATUS (status);
#else
  NIOS2_WRITE_STATUS (context);
   24030:	e0bff917 	ldw	r2,-28(fp)
   24034:	1001703a 	wrctl	status,r2
        OS_EXIT_CRITICAL();
        *perr = OS_ERR_EVENT_NAME_TOO_LONG;
   24038:	e0bfff17 	ldw	r2,-4(fp)
   2403c:	00c002c4 	movi	r3,11
   24040:	10c00005 	stb	r3,0(r2)
        return;
   24044:	00000d06 	br	2407c <OSEventNameSet+0x12c>
    }
    (void)OS_StrCopy(pevent->OSEventName, pname);     /* Yes, copy name to the event control block     */
   24048:	e0bffd17 	ldw	r2,-12(fp)
   2404c:	10800384 	addi	r2,r2,14
   24050:	e17ffe17 	ldw	r5,-8(fp)
   24054:	1009883a 	mov	r4,r2
   24058:	00258b40 	call	258b4 <OS_StrCopy>
   2405c:	e0bff817 	ldw	r2,-32(fp)
   24060:	e0bffb15 	stw	r2,-20(fp)
   24064:	e0bffb17 	ldw	r2,-20(fp)
   24068:	1001703a 	wrctl	status,r2
    OS_EXIT_CRITICAL();
    *perr = OS_ERR_NONE;
   2406c:	e0bfff17 	ldw	r2,-4(fp)
   24070:	10000005 	stb	zero,0(r2)
   24074:	00000106 	br	2407c <OSEventNameSet+0x12c>



#if OS_ARG_CHK_EN > 0
    if (perr == (INT8U *)0) {                    /* Validate 'perr'                                    */
        return;
   24078:	0001883a 	nop
        return;
    }
    (void)OS_StrCopy(pevent->OSEventName, pname);     /* Yes, copy name to the event control block     */
    OS_EXIT_CRITICAL();
    *perr = OS_ERR_NONE;
}
   2407c:	e037883a 	mov	sp,fp
   24080:	dfc00117 	ldw	ra,4(sp)
   24084:	df000017 	ldw	fp,0(sp)
   24088:	dec00204 	addi	sp,sp,8
   2408c:	f800283a 	ret

00024090 <OSEventPendMulti>:
*********************************************************************************************************
*/
/*$PAGE*/
#if ((OS_EVENT_EN) && (OS_EVENT_MULTI_EN > 0))
INT16U  OSEventPendMulti (OS_EVENT **pevents_pend, OS_EVENT **pevents_rdy, void **pmsgs_rdy, INT16U timeout, INT8U *perr)
{
   24090:	deffed04 	addi	sp,sp,-76
   24094:	dfc01215 	stw	ra,72(sp)
   24098:	df001115 	stw	fp,68(sp)
   2409c:	df001104 	addi	fp,sp,68
   240a0:	e13ffc15 	stw	r4,-16(fp)
   240a4:	e17ffd15 	stw	r5,-12(fp)
   240a8:	e1bffe15 	stw	r6,-8(fp)
   240ac:	3805883a 	mov	r2,r7
   240b0:	e0bfff0d 	sth	r2,-4(fp)
#endif
    BOOLEAN     events_rdy;
    INT16U      events_rdy_nbr;
    INT8U       events_stat;
#if (OS_CRITICAL_METHOD == 3)                           /* Allocate storage for CPU status register    */
    OS_CPU_SR   cpu_sr = 0;
   240b4:	e03ff315 	stw	zero,-52(fp)
#endif



#if (OS_ARG_CHK_EN > 0)
    if (perr == (INT8U *)0) {                           /* Validate 'perr'                             */
   240b8:	e0800217 	ldw	r2,8(fp)
   240bc:	1000021e 	bne	r2,zero,240c8 <OSEventPendMulti+0x38>
        return (0);
   240c0:	0005883a 	mov	r2,zero
   240c4:	00017106 	br	2468c <OSEventPendMulti+0x5fc>
    }
    if (pevents_pend == (OS_EVENT **)0) {               /* Validate 'pevents_pend'                     */
   240c8:	e0bffc17 	ldw	r2,-16(fp)
   240cc:	1000051e 	bne	r2,zero,240e4 <OSEventPendMulti+0x54>
       *perr =  OS_ERR_PEVENT_NULL;
   240d0:	e0800217 	ldw	r2,8(fp)
   240d4:	00c00104 	movi	r3,4
   240d8:	10c00005 	stb	r3,0(r2)
        return (0);
   240dc:	0005883a 	mov	r2,zero
   240e0:	00016a06 	br	2468c <OSEventPendMulti+0x5fc>
    }
    if (pevents_rdy  == (OS_EVENT **)0) {               /* Validate 'pevents_rdy'                      */
   240e4:	e0bffd17 	ldw	r2,-12(fp)
   240e8:	1000051e 	bne	r2,zero,24100 <OSEventPendMulti+0x70>
       *perr =  OS_ERR_PEVENT_NULL;
   240ec:	e0800217 	ldw	r2,8(fp)
   240f0:	00c00104 	movi	r3,4
   240f4:	10c00005 	stb	r3,0(r2)
        return (0);
   240f8:	0005883a 	mov	r2,zero
   240fc:	00016306 	br	2468c <OSEventPendMulti+0x5fc>
    }
    if (pmsgs_rdy == (void **)0) {                      /* Validate 'pmsgs_rdy'                        */
   24100:	e0bffe17 	ldw	r2,-8(fp)
   24104:	1000051e 	bne	r2,zero,2411c <OSEventPendMulti+0x8c>
       *perr =  OS_ERR_PEVENT_NULL;
   24108:	e0800217 	ldw	r2,8(fp)
   2410c:	00c00104 	movi	r3,4
   24110:	10c00005 	stb	r3,0(r2)
        return (0);
   24114:	0005883a 	mov	r2,zero
   24118:	00015c06 	br	2468c <OSEventPendMulti+0x5fc>
    }
#endif

   *pevents_rdy = (OS_EVENT *)0;                        /* Init array to NULL in case of errors        */
   2411c:	e0bffd17 	ldw	r2,-12(fp)
   24120:	10000015 	stw	zero,0(r2)

    pevents     =  pevents_pend;
   24124:	e0bffc17 	ldw	r2,-16(fp)
   24128:	e0bfef15 	stw	r2,-68(fp)
    pevent      = *pevents;
   2412c:	e0bfef17 	ldw	r2,-68(fp)
   24130:	10800017 	ldw	r2,0(r2)
   24134:	e0bff015 	stw	r2,-64(fp)
    while  (pevent != (OS_EVENT *)0) {
   24138:	00001906 	br	241a0 <OSEventPendMulti+0x110>
        switch (pevent->OSEventType) {                  /* Validate event block types                  */
   2413c:	e0bff017 	ldw	r2,-64(fp)
   24140:	10800003 	ldbu	r2,0(r2)
   24144:	10803fcc 	andi	r2,r2,255
   24148:	10c000a0 	cmpeqi	r3,r2,2
   2414c:	1800091e 	bne	r3,zero,24174 <OSEventPendMulti+0xe4>
   24150:	10c000e0 	cmpeqi	r3,r2,3
   24154:	1800091e 	bne	r3,zero,2417c <OSEventPendMulti+0xec>
   24158:	10800060 	cmpeqi	r2,r2,1
   2415c:	1000091e 	bne	r2,zero,24184 <OSEventPendMulti+0xf4>
#endif

            case OS_EVENT_TYPE_MUTEX:                                            
            case OS_EVENT_TYPE_FLAG:
            default:           
                *perr = OS_ERR_EVENT_TYPE;
   24160:	e0800217 	ldw	r2,8(fp)
   24164:	00c00044 	movi	r3,1
   24168:	10c00005 	stb	r3,0(r2)
                 return (0);
   2416c:	0005883a 	mov	r2,zero
   24170:	00014606 	br	2468c <OSEventPendMulti+0x5fc>
            case OS_EVENT_TYPE_MBOX:
                 break;
#endif
#if ((OS_Q_EN   > 0) && (OS_MAX_QS > 0))
            case OS_EVENT_TYPE_Q:
                 break;
   24174:	0001883a 	nop
   24178:	00000306 	br	24188 <OSEventPendMulti+0xf8>
    pevent      = *pevents;
    while  (pevent != (OS_EVENT *)0) {
        switch (pevent->OSEventType) {                  /* Validate event block types                  */
#if (OS_SEM_EN  > 0)
            case OS_EVENT_TYPE_SEM:
                 break;
   2417c:	0001883a 	nop
   24180:	00000106 	br	24188 <OSEventPendMulti+0xf8>
#endif
#if (OS_MBOX_EN > 0)
            case OS_EVENT_TYPE_MBOX:
                 break;
   24184:	0001883a 	nop
            case OS_EVENT_TYPE_FLAG:
            default:           
                *perr = OS_ERR_EVENT_TYPE;
                 return (0);
        }
        pevents++;
   24188:	e0bfef17 	ldw	r2,-68(fp)
   2418c:	10800104 	addi	r2,r2,4
   24190:	e0bfef15 	stw	r2,-68(fp)
        pevent = *pevents;
   24194:	e0bfef17 	ldw	r2,-68(fp)
   24198:	10800017 	ldw	r2,0(r2)
   2419c:	e0bff015 	stw	r2,-64(fp)

   *pevents_rdy = (OS_EVENT *)0;                        /* Init array to NULL in case of errors        */

    pevents     =  pevents_pend;
    pevent      = *pevents;
    while  (pevent != (OS_EVENT *)0) {
   241a0:	e0bff017 	ldw	r2,-64(fp)
   241a4:	103fe51e 	bne	r2,zero,2413c <__alt_data_end+0xfffe4d3c>
        }
        pevents++;
        pevent = *pevents;
    }

    if (OSIntNesting  > 0) {                            /* See if called from ISR ...                  */
   241a8:	d0a70403 	ldbu	r2,-25584(gp)
   241ac:	10803fcc 	andi	r2,r2,255
   241b0:	10000526 	beq	r2,zero,241c8 <OSEventPendMulti+0x138>
       *perr =  OS_ERR_PEND_ISR;                        /* ... can't PEND from an ISR                  */
   241b4:	e0800217 	ldw	r2,8(fp)
   241b8:	00c00084 	movi	r3,2
   241bc:	10c00005 	stb	r3,0(r2)
        return (0);
   241c0:	0005883a 	mov	r2,zero
   241c4:	00013106 	br	2468c <OSEventPendMulti+0x5fc>
    }
    if (OSLockNesting > 0) {                            /* See if called with scheduler locked ...     */
   241c8:	d0a6f603 	ldbu	r2,-25640(gp)
   241cc:	10803fcc 	andi	r2,r2,255
   241d0:	10000526 	beq	r2,zero,241e8 <OSEventPendMulti+0x158>
       *perr =  OS_ERR_PEND_LOCKED;                     /* ... can't PEND when locked                  */
   241d4:	e0800217 	ldw	r2,8(fp)
   241d8:	00c00344 	movi	r3,13
   241dc:	10c00005 	stb	r3,0(r2)
        return (0);
   241e0:	0005883a 	mov	r2,zero
   241e4:	00012906 	br	2468c <OSEventPendMulti+0x5fc>
static ALT_INLINE alt_irq_context ALT_ALWAYS_INLINE 
       alt_irq_disable_all (void)
{
  alt_irq_context context;

  NIOS2_READ_STATUS (context);
   241e8:	0005303a 	rdctl	r2,status
   241ec:	e0bffb15 	stw	r2,-20(fp)

  NIOS2_WRITE_STATUS (context & ~NIOS2_STATUS_PIE_MSK);
   241f0:	e0fffb17 	ldw	r3,-20(fp)
   241f4:	00bfff84 	movi	r2,-2
   241f8:	1884703a 	and	r2,r3,r2
   241fc:	1001703a 	wrctl	status,r2
  
  return context;
   24200:	e0bffb17 	ldw	r2,-20(fp)
    }

/*$PAGE*/
    OS_ENTER_CRITICAL();
   24204:	e0bff315 	stw	r2,-52(fp)
    events_rdy     =  OS_FALSE;
   24208:	e03ff105 	stb	zero,-60(fp)
    events_rdy_nbr =  0;
   2420c:	e03ff18d 	sth	zero,-58(fp)
    events_stat    =  OS_STAT_RDY;
   24210:	e03ff205 	stb	zero,-56(fp)
    pevents        =  pevents_pend;
   24214:	e0bffc17 	ldw	r2,-16(fp)
   24218:	e0bfef15 	stw	r2,-68(fp)
    pevent         = *pevents;
   2421c:	e0bfef17 	ldw	r2,-68(fp)
   24220:	10800017 	ldw	r2,0(r2)
   24224:	e0bff015 	stw	r2,-64(fp)
    while (pevent != (OS_EVENT *)0) {                   /* See if any events already available         */
   24228:	00008106 	br	24430 <OSEventPendMulti+0x3a0>
        switch (pevent->OSEventType) {
   2422c:	e0bff017 	ldw	r2,-64(fp)
   24230:	10800003 	ldbu	r2,0(r2)
   24234:	10803fcc 	andi	r2,r2,255
   24238:	10c000a0 	cmpeqi	r3,r2,2
   2423c:	18003c1e 	bne	r3,zero,24330 <OSEventPendMulti+0x2a0>
   24240:	10c000e0 	cmpeqi	r3,r2,3
   24244:	1800031e 	bne	r3,zero,24254 <OSEventPendMulti+0x1c4>
   24248:	10800060 	cmpeqi	r2,r2,1
   2424c:	10001e1e 	bne	r2,zero,242c8 <OSEventPendMulti+0x238>
   24250:	00006606 	br	243ec <OSEventPendMulti+0x35c>
#if (OS_SEM_EN > 0)
            case OS_EVENT_TYPE_SEM:
                 if (pevent->OSEventCnt > 0) {          /* If semaphore count > 0, resource available; */
   24254:	e0bff017 	ldw	r2,-64(fp)
   24258:	1080020b 	ldhu	r2,8(r2)
   2425c:	10bfffcc 	andi	r2,r2,65535
   24260:	10001526 	beq	r2,zero,242b8 <OSEventPendMulti+0x228>
                     pevent->OSEventCnt--;              /* ... decrement semaphore,                ... */
   24264:	e0bff017 	ldw	r2,-64(fp)
   24268:	1080020b 	ldhu	r2,8(r2)
   2426c:	10bfffc4 	addi	r2,r2,-1
   24270:	1007883a 	mov	r3,r2
   24274:	e0bff017 	ldw	r2,-64(fp)
   24278:	10c0020d 	sth	r3,8(r2)
                    *pevents_rdy++ =  pevent;           /* ... and return available semaphore event    */
   2427c:	e0bffd17 	ldw	r2,-12(fp)
   24280:	10c00104 	addi	r3,r2,4
   24284:	e0fffd15 	stw	r3,-12(fp)
   24288:	e0fff017 	ldw	r3,-64(fp)
   2428c:	10c00015 	stw	r3,0(r2)
                      events_rdy   =  OS_TRUE;
   24290:	00800044 	movi	r2,1
   24294:	e0bff105 	stb	r2,-60(fp)
                    *pmsgs_rdy++   = (void *)0;         /* NO message returned  for semaphores         */
   24298:	e0bffe17 	ldw	r2,-8(fp)
   2429c:	10c00104 	addi	r3,r2,4
   242a0:	e0fffe15 	stw	r3,-8(fp)
   242a4:	10000015 	stw	zero,0(r2)
                      events_rdy_nbr++;
   242a8:	e0bff18b 	ldhu	r2,-58(fp)
   242ac:	10800044 	addi	r2,r2,1
   242b0:	e0bff18d 	sth	r2,-58(fp)

                 } else {
                      events_stat |=  OS_STAT_SEM;      /* Configure multi-pend for semaphore events   */
                 }
                 break;
   242b4:	00005806 	br	24418 <OSEventPendMulti+0x388>
                      events_rdy   =  OS_TRUE;
                    *pmsgs_rdy++   = (void *)0;         /* NO message returned  for semaphores         */
                      events_rdy_nbr++;

                 } else {
                      events_stat |=  OS_STAT_SEM;      /* Configure multi-pend for semaphore events   */
   242b8:	e0bff203 	ldbu	r2,-56(fp)
   242bc:	10800054 	ori	r2,r2,1
   242c0:	e0bff205 	stb	r2,-56(fp)
                 }
                 break;
   242c4:	00005406 	br	24418 <OSEventPendMulti+0x388>
#endif

#if (OS_MBOX_EN > 0)
            case OS_EVENT_TYPE_MBOX:
                 if (pevent->OSEventPtr != (void *)0) { /* If mailbox NOT empty;                   ... */
   242c8:	e0bff017 	ldw	r2,-64(fp)
   242cc:	10800117 	ldw	r2,4(r2)
   242d0:	10001326 	beq	r2,zero,24320 <OSEventPendMulti+0x290>
                                                        /* ... return available message,           ... */
                    *pmsgs_rdy++         = (void *)pevent->OSEventPtr;
   242d4:	e0bffe17 	ldw	r2,-8(fp)
   242d8:	10c00104 	addi	r3,r2,4
   242dc:	e0fffe15 	stw	r3,-8(fp)
   242e0:	e0fff017 	ldw	r3,-64(fp)
   242e4:	18c00117 	ldw	r3,4(r3)
   242e8:	10c00015 	stw	r3,0(r2)
                     pevent->OSEventPtr  = (void *)0;
   242ec:	e0bff017 	ldw	r2,-64(fp)
   242f0:	10000115 	stw	zero,4(r2)
                    *pevents_rdy++       =  pevent;     /* ... and return available mailbox event      */
   242f4:	e0bffd17 	ldw	r2,-12(fp)
   242f8:	10c00104 	addi	r3,r2,4
   242fc:	e0fffd15 	stw	r3,-12(fp)
   24300:	e0fff017 	ldw	r3,-64(fp)
   24304:	10c00015 	stw	r3,0(r2)
                      events_rdy         =  OS_TRUE;
   24308:	00800044 	movi	r2,1
   2430c:	e0bff105 	stb	r2,-60(fp)
                      events_rdy_nbr++;
   24310:	e0bff18b 	ldhu	r2,-58(fp)
   24314:	10800044 	addi	r2,r2,1
   24318:	e0bff18d 	sth	r2,-58(fp)

                 } else {
                      events_stat |= OS_STAT_MBOX;      /* Configure multi-pend for mailbox events     */
                 }
                 break;
   2431c:	00003e06 	br	24418 <OSEventPendMulti+0x388>
                    *pevents_rdy++       =  pevent;     /* ... and return available mailbox event      */
                      events_rdy         =  OS_TRUE;
                      events_rdy_nbr++;

                 } else {
                      events_stat |= OS_STAT_MBOX;      /* Configure multi-pend for mailbox events     */
   24320:	e0bff203 	ldbu	r2,-56(fp)
   24324:	10800094 	ori	r2,r2,2
   24328:	e0bff205 	stb	r2,-56(fp)
                 }
                 break;
   2432c:	00003a06 	br	24418 <OSEventPendMulti+0x388>
#endif

#if ((OS_Q_EN > 0) && (OS_MAX_QS > 0))
            case OS_EVENT_TYPE_Q:
                 pq = (OS_Q *)pevent->OSEventPtr;
   24330:	e0bff017 	ldw	r2,-64(fp)
   24334:	10800117 	ldw	r2,4(r2)
   24338:	e0bff515 	stw	r2,-44(fp)
                 if (pq->OSQEntries > 0) {              /* If queue NOT empty;                     ... */
   2433c:	e0bff517 	ldw	r2,-44(fp)
   24340:	1080058b 	ldhu	r2,22(r2)
   24344:	10bfffcc 	andi	r2,r2,65535
   24348:	10002426 	beq	r2,zero,243dc <OSEventPendMulti+0x34c>
                                                        /* ... return available message,           ... */
                    *pmsgs_rdy++ = (void *)*pq->OSQOut++;
   2434c:	e0bffe17 	ldw	r2,-8(fp)
   24350:	10c00104 	addi	r3,r2,4
   24354:	e0fffe15 	stw	r3,-8(fp)
   24358:	e0fff517 	ldw	r3,-44(fp)
   2435c:	18c00417 	ldw	r3,16(r3)
   24360:	19400104 	addi	r5,r3,4
   24364:	e13ff517 	ldw	r4,-44(fp)
   24368:	21400415 	stw	r5,16(r4)
   2436c:	18c00017 	ldw	r3,0(r3)
   24370:	10c00015 	stw	r3,0(r2)
                     if (pq->OSQOut == pq->OSQEnd) {    /* If OUT ptr at queue end, ...                */
   24374:	e0bff517 	ldw	r2,-44(fp)
   24378:	10c00417 	ldw	r3,16(r2)
   2437c:	e0bff517 	ldw	r2,-44(fp)
   24380:	10800217 	ldw	r2,8(r2)
   24384:	1880041e 	bne	r3,r2,24398 <OSEventPendMulti+0x308>
                         pq->OSQOut  = pq->OSQStart;    /* ... wrap   to queue start                   */
   24388:	e0bff517 	ldw	r2,-44(fp)
   2438c:	10c00117 	ldw	r3,4(r2)
   24390:	e0bff517 	ldw	r2,-44(fp)
   24394:	10c00415 	stw	r3,16(r2)
                     }
                     pq->OSQEntries--;                  /* Update number of queue entries              */
   24398:	e0bff517 	ldw	r2,-44(fp)
   2439c:	1080058b 	ldhu	r2,22(r2)
   243a0:	10bfffc4 	addi	r2,r2,-1
   243a4:	1007883a 	mov	r3,r2
   243a8:	e0bff517 	ldw	r2,-44(fp)
   243ac:	10c0058d 	sth	r3,22(r2)
                    *pevents_rdy++ = pevent;            /* ... and return available queue event        */
   243b0:	e0bffd17 	ldw	r2,-12(fp)
   243b4:	10c00104 	addi	r3,r2,4
   243b8:	e0fffd15 	stw	r3,-12(fp)
   243bc:	e0fff017 	ldw	r3,-64(fp)
   243c0:	10c00015 	stw	r3,0(r2)
                      events_rdy   = OS_TRUE;
   243c4:	00800044 	movi	r2,1
   243c8:	e0bff105 	stb	r2,-60(fp)
                      events_rdy_nbr++;
   243cc:	e0bff18b 	ldhu	r2,-58(fp)
   243d0:	10800044 	addi	r2,r2,1
   243d4:	e0bff18d 	sth	r2,-58(fp)

                 } else {
                      events_stat |= OS_STAT_Q;         /* Configure multi-pend for queue events       */
                 }
                 break;
   243d8:	00000f06 	br	24418 <OSEventPendMulti+0x388>
                    *pevents_rdy++ = pevent;            /* ... and return available queue event        */
                      events_rdy   = OS_TRUE;
                      events_rdy_nbr++;

                 } else {
                      events_stat |= OS_STAT_Q;         /* Configure multi-pend for queue events       */
   243dc:	e0bff203 	ldbu	r2,-56(fp)
   243e0:	10800114 	ori	r2,r2,4
   243e4:	e0bff205 	stb	r2,-56(fp)
                 }
                 break;
   243e8:	00000b06 	br	24418 <OSEventPendMulti+0x388>
   243ec:	e0bff317 	ldw	r2,-52(fp)
   243f0:	e0bff415 	stw	r2,-48(fp)
  status &= ~NIOS2_STATUS_PIE_MSK;
  status |= (context & NIOS2_STATUS_PIE_MSK);
  
  NIOS2_WRITE_STATUS (status);
#else
  NIOS2_WRITE_STATUS (context);
   243f4:	e0bff417 	ldw	r2,-48(fp)
   243f8:	1001703a 	wrctl	status,r2

            case OS_EVENT_TYPE_MUTEX:                                            
            case OS_EVENT_TYPE_FLAG:
            default:           
                 OS_EXIT_CRITICAL();
                *pevents_rdy = (OS_EVENT *)0;           /* NULL terminate return event array           */
   243fc:	e0bffd17 	ldw	r2,-12(fp)
   24400:	10000015 	stw	zero,0(r2)
                *perr        =  OS_ERR_EVENT_TYPE;
   24404:	e0800217 	ldw	r2,8(fp)
   24408:	00c00044 	movi	r3,1
   2440c:	10c00005 	stb	r3,0(r2)
                 return (events_rdy_nbr);
   24410:	e0bff18b 	ldhu	r2,-58(fp)
   24414:	00009d06 	br	2468c <OSEventPendMulti+0x5fc>
        }
        pevents++;
   24418:	e0bfef17 	ldw	r2,-68(fp)
   2441c:	10800104 	addi	r2,r2,4
   24420:	e0bfef15 	stw	r2,-68(fp)
        pevent = *pevents;
   24424:	e0bfef17 	ldw	r2,-68(fp)
   24428:	10800017 	ldw	r2,0(r2)
   2442c:	e0bff015 	stw	r2,-64(fp)
    events_rdy     =  OS_FALSE;
    events_rdy_nbr =  0;
    events_stat    =  OS_STAT_RDY;
    pevents        =  pevents_pend;
    pevent         = *pevents;
    while (pevent != (OS_EVENT *)0) {                   /* See if any events already available         */
   24430:	e0bff017 	ldw	r2,-64(fp)
   24434:	103f7d1e 	bne	r2,zero,2422c <__alt_data_end+0xfffe4e2c>
        }
        pevents++;
        pevent = *pevents;
    }

    if ( events_rdy == OS_TRUE) {                       /* Return any events already available         */
   24438:	e0bff103 	ldbu	r2,-60(fp)
   2443c:	10800058 	cmpnei	r2,r2,1
   24440:	10000a1e 	bne	r2,zero,2446c <OSEventPendMulti+0x3dc>
       *pevents_rdy = (OS_EVENT *)0;                    /* NULL terminate return event array           */
   24444:	e0bffd17 	ldw	r2,-12(fp)
   24448:	10000015 	stw	zero,0(r2)
   2444c:	e0bff317 	ldw	r2,-52(fp)
   24450:	e0bff615 	stw	r2,-40(fp)
   24454:	e0bff617 	ldw	r2,-40(fp)
   24458:	1001703a 	wrctl	status,r2
        OS_EXIT_CRITICAL();
       *perr        =  OS_ERR_NONE;
   2445c:	e0800217 	ldw	r2,8(fp)
   24460:	10000005 	stb	zero,0(r2)
        return (events_rdy_nbr);
   24464:	e0bff18b 	ldhu	r2,-58(fp)
   24468:	00008806 	br	2468c <OSEventPendMulti+0x5fc>
    }
/*$PAGE*/
                                                        /* Otherwise, must wait until any event occurs */
    OSTCBCur->OSTCBStat     |= events_stat  |           /* Resource not available, ...                 */
   2446c:	d0a70517 	ldw	r2,-25580(gp)
   24470:	d0e70517 	ldw	r3,-25580(gp)
   24474:	19000c03 	ldbu	r4,48(r3)
   24478:	e0fff203 	ldbu	r3,-56(fp)
   2447c:	20c6b03a 	or	r3,r4,r3
   24480:	1809883a 	mov	r4,r3
   24484:	00ffe004 	movi	r3,-128
   24488:	20c6b03a 	or	r3,r4,r3
   2448c:	10c00c05 	stb	r3,48(r2)
                               OS_STAT_MULTI;           /* ... pend on multiple events                 */
    OSTCBCur->OSTCBStatPend  = OS_STAT_PEND_OK;
   24490:	d0a70517 	ldw	r2,-25580(gp)
   24494:	10000c45 	stb	zero,49(r2)
    OSTCBCur->OSTCBDly       = timeout;                 /* Store pend timeout in TCB                   */
   24498:	d0a70517 	ldw	r2,-25580(gp)
   2449c:	e0ffff0b 	ldhu	r3,-4(fp)
   244a0:	10c00b8d 	sth	r3,46(r2)
    OS_EventTaskWaitMulti(pevents_pend);                /* Suspend task until events or timeout occurs */
   244a4:	e13ffc17 	ldw	r4,-16(fp)
   244a8:	0024fcc0 	call	24fcc <OS_EventTaskWaitMulti>
   244ac:	e0bff317 	ldw	r2,-52(fp)
   244b0:	e0bff915 	stw	r2,-28(fp)
   244b4:	e0bff917 	ldw	r2,-28(fp)
   244b8:	1001703a 	wrctl	status,r2

    OS_EXIT_CRITICAL();
    OS_Sched();                                         /* Find next highest priority task ready       */
   244bc:	00257700 	call	25770 <OS_Sched>
static ALT_INLINE alt_irq_context ALT_ALWAYS_INLINE 
       alt_irq_disable_all (void)
{
  alt_irq_context context;

  NIOS2_READ_STATUS (context);
   244c0:	0005303a 	rdctl	r2,status
   244c4:	e0bff715 	stw	r2,-36(fp)

  NIOS2_WRITE_STATUS (context & ~NIOS2_STATUS_PIE_MSK);
   244c8:	e0fff717 	ldw	r3,-36(fp)
   244cc:	00bfff84 	movi	r2,-2
   244d0:	1884703a 	and	r2,r3,r2
   244d4:	1001703a 	wrctl	status,r2
  
  return context;
   244d8:	e0bff717 	ldw	r2,-36(fp)
    OS_ENTER_CRITICAL();
   244dc:	e0bff315 	stw	r2,-52(fp)

    switch (OSTCBCur->OSTCBStatPend) {                  /* Handle event posted, aborted, or timed-out  */
   244e0:	d0a70517 	ldw	r2,-25580(gp)
   244e4:	10800c43 	ldbu	r2,49(r2)
   244e8:	10803fcc 	andi	r2,r2,255
   244ec:	10000226 	beq	r2,zero,244f8 <OSEventPendMulti+0x468>
   244f0:	108000a0 	cmpeqi	r2,r2,2
   244f4:	10001826 	beq	r2,zero,24558 <OSEventPendMulti+0x4c8>
        case OS_STAT_PEND_OK:
        case OS_STAT_PEND_ABORT:
             pevent = OSTCBCur->OSTCBEventPtr;
   244f8:	d0a70517 	ldw	r2,-25580(gp)
   244fc:	10800717 	ldw	r2,28(r2)
   24500:	e0bff015 	stw	r2,-64(fp)
             if (pevent != (OS_EVENT *)0) {             /* If task event ptr != NULL, ...              */
   24504:	e0bff017 	ldw	r2,-64(fp)
   24508:	10000b26 	beq	r2,zero,24538 <OSEventPendMulti+0x4a8>
                *pevents_rdy++ =  pevent;               /* ... return available event ...              */
   2450c:	e0bffd17 	ldw	r2,-12(fp)
   24510:	10c00104 	addi	r3,r2,4
   24514:	e0fffd15 	stw	r3,-12(fp)
   24518:	e0fff017 	ldw	r3,-64(fp)
   2451c:	10c00015 	stw	r3,0(r2)
                *pevents_rdy   = (OS_EVENT *)0;         /* ... & NULL terminate return event array     */
   24520:	e0bffd17 	ldw	r2,-12(fp)
   24524:	10000015 	stw	zero,0(r2)
                  events_rdy_nbr++;
   24528:	e0bff18b 	ldhu	r2,-58(fp)
   2452c:	10800044 	addi	r2,r2,1
   24530:	e0bff18d 	sth	r2,-58(fp)

             } else {                                   /* Else NO event available, handle as timeout  */
                 OSTCBCur->OSTCBStatPend = OS_STAT_PEND_TO;
                 OS_EventTaskRemoveMulti(OSTCBCur, pevents_pend);
             }
			 break;
   24534:	00000d06 	br	2456c <OSEventPendMulti+0x4dc>
                *pevents_rdy++ =  pevent;               /* ... return available event ...              */
                *pevents_rdy   = (OS_EVENT *)0;         /* ... & NULL terminate return event array     */
                  events_rdy_nbr++;

             } else {                                   /* Else NO event available, handle as timeout  */
                 OSTCBCur->OSTCBStatPend = OS_STAT_PEND_TO;
   24538:	d0a70517 	ldw	r2,-25580(gp)
   2453c:	00c00044 	movi	r3,1
   24540:	10c00c45 	stb	r3,49(r2)
                 OS_EventTaskRemoveMulti(OSTCBCur, pevents_pend);
   24544:	d0a70517 	ldw	r2,-25580(gp)
   24548:	e17ffc17 	ldw	r5,-16(fp)
   2454c:	1009883a 	mov	r4,r2
   24550:	00251d40 	call	251d4 <OS_EventTaskRemoveMulti>
             }
			 break;
   24554:	00000506 	br	2456c <OSEventPendMulti+0x4dc>

        case OS_STAT_PEND_TO:
        default:                                        /* ... remove task from events' wait lists     */
             OS_EventTaskRemoveMulti(OSTCBCur, pevents_pend);
   24558:	d0a70517 	ldw	r2,-25580(gp)
   2455c:	e17ffc17 	ldw	r5,-16(fp)
   24560:	1009883a 	mov	r4,r2
   24564:	00251d40 	call	251d4 <OS_EventTaskRemoveMulti>
             break;
   24568:	0001883a 	nop
    }

    switch (OSTCBCur->OSTCBStatPend) {
   2456c:	d0a70517 	ldw	r2,-25580(gp)
   24570:	10800c43 	ldbu	r2,49(r2)
   24574:	10803fcc 	andi	r2,r2,255
   24578:	10000326 	beq	r2,zero,24588 <OSEventPendMulti+0x4f8>
   2457c:	108000a0 	cmpeqi	r2,r2,2
   24580:	1000231e 	bne	r2,zero,24610 <OSEventPendMulti+0x580>
   24584:	00002a06 	br	24630 <OSEventPendMulti+0x5a0>
        case OS_STAT_PEND_OK:
             switch (pevent->OSEventType) {             /* Return event's message                      */
   24588:	e0bff017 	ldw	r2,-64(fp)
   2458c:	10800003 	ldbu	r2,0(r2)
   24590:	10803fcc 	andi	r2,r2,255
   24594:	0080100e 	bge	zero,r2,245d8 <OSEventPendMulti+0x548>
   24598:	10c000d0 	cmplti	r3,r2,3
   2459c:	1800071e 	bne	r3,zero,245bc <OSEventPendMulti+0x52c>
   245a0:	108000e0 	cmpeqi	r2,r2,3
   245a4:	10000c26 	beq	r2,zero,245d8 <OSEventPendMulti+0x548>
#if (OS_SEM_EN > 0)
                 case OS_EVENT_TYPE_SEM:
                     *pmsgs_rdy++ = (void *)0;          /* NO message returned for semaphores          */
   245a8:	e0bffe17 	ldw	r2,-8(fp)
   245ac:	10c00104 	addi	r3,r2,4
   245b0:	e0fffe15 	stw	r3,-8(fp)
   245b4:	10000015 	stw	zero,0(r2)
                      break;
   245b8:	00001206 	br	24604 <OSEventPendMulti+0x574>

#if ((OS_MBOX_EN > 0) ||                 \
    ((OS_Q_EN    > 0) && (OS_MAX_QS > 0)))
                 case OS_EVENT_TYPE_MBOX:
                 case OS_EVENT_TYPE_Q:
                     *pmsgs_rdy++ = (void *)OSTCBCur->OSTCBMsg;     /* Return received message         */
   245bc:	e0bffe17 	ldw	r2,-8(fp)
   245c0:	10c00104 	addi	r3,r2,4
   245c4:	e0fffe15 	stw	r3,-8(fp)
   245c8:	d0e70517 	ldw	r3,-25580(gp)
   245cc:	18c00917 	ldw	r3,36(r3)
   245d0:	10c00015 	stw	r3,0(r2)
                      break;
   245d4:	00000b06 	br	24604 <OSEventPendMulti+0x574>
   245d8:	e0bff317 	ldw	r2,-52(fp)
   245dc:	e0bff815 	stw	r2,-32(fp)
  status &= ~NIOS2_STATUS_PIE_MSK;
  status |= (context & NIOS2_STATUS_PIE_MSK);
  
  NIOS2_WRITE_STATUS (status);
#else
  NIOS2_WRITE_STATUS (context);
   245e0:	e0bff817 	ldw	r2,-32(fp)
   245e4:	1001703a 	wrctl	status,r2

                 case OS_EVENT_TYPE_MUTEX:                                       
                 case OS_EVENT_TYPE_FLAG:
                 default:           
                      OS_EXIT_CRITICAL();
                     *pevents_rdy = (OS_EVENT *)0;      /* NULL terminate return event array           */
   245e8:	e0bffd17 	ldw	r2,-12(fp)
   245ec:	10000015 	stw	zero,0(r2)
                     *perr        =  OS_ERR_EVENT_TYPE;
   245f0:	e0800217 	ldw	r2,8(fp)
   245f4:	00c00044 	movi	r3,1
   245f8:	10c00005 	stb	r3,0(r2)
                      return (events_rdy_nbr);
   245fc:	e0bff18b 	ldhu	r2,-58(fp)
   24600:	00002206 	br	2468c <OSEventPendMulti+0x5fc>
             }
            *perr = OS_ERR_NONE;
   24604:	e0800217 	ldw	r2,8(fp)
   24608:	10000005 	stb	zero,0(r2)
             break;
   2460c:	00001006 	br	24650 <OSEventPendMulti+0x5c0>

        case OS_STAT_PEND_ABORT:
            *pmsgs_rdy++ = (void *)0;                   /* NO message returned for abort               */
   24610:	e0bffe17 	ldw	r2,-8(fp)
   24614:	10c00104 	addi	r3,r2,4
   24618:	e0fffe15 	stw	r3,-8(fp)
   2461c:	10000015 	stw	zero,0(r2)
            *perr        =  OS_ERR_PEND_ABORT;          /* Indicate that event  aborted                */
   24620:	e0800217 	ldw	r2,8(fp)
   24624:	00c00384 	movi	r3,14
   24628:	10c00005 	stb	r3,0(r2)
             break;
   2462c:	00000806 	br	24650 <OSEventPendMulti+0x5c0>
                                                        
        case OS_STAT_PEND_TO:                                                
        default:        
            *pmsgs_rdy++ = (void *)0;                   /* NO message returned for timeout             */
   24630:	e0bffe17 	ldw	r2,-8(fp)
   24634:	10c00104 	addi	r3,r2,4
   24638:	e0fffe15 	stw	r3,-8(fp)
   2463c:	10000015 	stw	zero,0(r2)
            *perr        =  OS_ERR_TIMEOUT;             /* Indicate that events timed out              */
   24640:	e0800217 	ldw	r2,8(fp)
   24644:	00c00284 	movi	r3,10
   24648:	10c00005 	stb	r3,0(r2)
             break;
   2464c:	0001883a 	nop
    }

    OSTCBCur->OSTCBStat          =  OS_STAT_RDY;        /* Set   task  status to ready                 */
   24650:	d0a70517 	ldw	r2,-25580(gp)
   24654:	10000c05 	stb	zero,48(r2)
    OSTCBCur->OSTCBStatPend      =  OS_STAT_PEND_OK;    /* Clear pend  status                          */
   24658:	d0a70517 	ldw	r2,-25580(gp)
   2465c:	10000c45 	stb	zero,49(r2)
    OSTCBCur->OSTCBEventPtr      = (OS_EVENT  *)0;      /* Clear event pointers                        */
   24660:	d0a70517 	ldw	r2,-25580(gp)
   24664:	10000715 	stw	zero,28(r2)
    OSTCBCur->OSTCBEventMultiPtr = (OS_EVENT **)0;
   24668:	d0a70517 	ldw	r2,-25580(gp)
   2466c:	10000815 	stw	zero,32(r2)
    OSTCBCur->OSTCBMsg           = (void      *)0;      /* Clear task  message                         */
   24670:	d0a70517 	ldw	r2,-25580(gp)
   24674:	10000915 	stw	zero,36(r2)
   24678:	e0bff317 	ldw	r2,-52(fp)
   2467c:	e0bffa15 	stw	r2,-24(fp)
   24680:	e0bffa17 	ldw	r2,-24(fp)
   24684:	1001703a 	wrctl	status,r2
    OS_EXIT_CRITICAL();

    return (events_rdy_nbr);
   24688:	e0bff18b 	ldhu	r2,-58(fp)
}
   2468c:	e037883a 	mov	sp,fp
   24690:	dfc00117 	ldw	ra,4(sp)
   24694:	df000017 	ldw	fp,0(sp)
   24698:	dec00204 	addi	sp,sp,8
   2469c:	f800283a 	ret

000246a0 <OSInit>:
* Returns    : none
*********************************************************************************************************
*/

void  OSInit (void)
{
   246a0:	defffe04 	addi	sp,sp,-8
   246a4:	dfc00115 	stw	ra,4(sp)
   246a8:	df000015 	stw	fp,0(sp)
   246ac:	d839883a 	mov	fp,sp
    OSInitHookBegin();                                           /* Call port specific initialization code   */
   246b0:	002d3400 	call	2d340 <OSInitHookBegin>

    OS_InitMisc();                                               /* Initialize miscellaneous variables       */
   246b4:	002541c0 	call	2541c <OS_InitMisc>

    OS_InitRdyList();                                            /* Initialize the Ready List                */
   246b8:	00254640 	call	25464 <OS_InitRdyList>

    OS_InitTCBList();                                            /* Initialize the free list of OS_TCBs      */
   246bc:	00255d00 	call	255d0 <OS_InitTCBList>

    OS_InitEventList();                                          /* Initialize the free list of OS_EVENTs    */
   246c0:	002533c0 	call	2533c <OS_InitEventList>

#if (OS_FLAG_EN > 0) && (OS_MAX_FLAGS > 0)
    OS_FlagInit();                                               /* Initialize the event flag structures     */
   246c4:	00274700 	call	27470 <OS_FlagInit>
#endif

#if (OS_MEM_EN > 0) && (OS_MAX_MEM_PART > 0)
    OS_MemInit();                                                /* Initialize the memory manager            */
   246c8:	0027d700 	call	27d70 <OS_MemInit>
#endif

#if (OS_Q_EN > 0) && (OS_MAX_QS > 0)
    OS_QInit();                                                  /* Initialize the message queue structures  */
   246cc:	0028ea40 	call	28ea4 <OS_QInit>
#endif

    OS_InitTaskIdle();                                           /* Create the Idle Task                     */
   246d0:	00254d00 	call	254d0 <OS_InitTaskIdle>
#if OS_TASK_STAT_EN > 0
    OS_InitTaskStat();                                           /* Create the Statistic Task                */
   246d4:	00255500 	call	25550 <OS_InitTaskStat>

#if OS_TMR_EN > 0
    OSTmr_Init();                                                /* Initialize the Timer Manager             */
#endif

    OSInitHookEnd();                                             /* Call port specific init. code            */
   246d8:	002d3600 	call	2d360 <OSInitHookEnd>

#if OS_DEBUG_EN > 0
    OSDebugInit();
   246dc:	0025e440 	call	25e44 <OSDebugInit>
#endif
}
   246e0:	0001883a 	nop
   246e4:	e037883a 	mov	sp,fp
   246e8:	dfc00117 	ldw	ra,4(sp)
   246ec:	df000017 	ldw	fp,0(sp)
   246f0:	dec00204 	addi	sp,sp,8
   246f4:	f800283a 	ret

000246f8 <OSIntEnter>:
*              5) You are allowed to nest interrupts up to 255 levels deep.
*********************************************************************************************************
*/

void  OSIntEnter (void)
{
   246f8:	deffff04 	addi	sp,sp,-4
   246fc:	df000015 	stw	fp,0(sp)
   24700:	d839883a 	mov	fp,sp
    if (OSRunning == OS_TRUE) {
   24704:	d0a6f643 	ldbu	r2,-25639(gp)
   24708:	10803fcc 	andi	r2,r2,255
   2470c:	10800058 	cmpnei	r2,r2,1
   24710:	1000071e 	bne	r2,zero,24730 <OSIntEnter+0x38>
        if (OSIntNesting < 255u) {
   24714:	d0a70403 	ldbu	r2,-25584(gp)
   24718:	10803fcc 	andi	r2,r2,255
   2471c:	10803fe0 	cmpeqi	r2,r2,255
   24720:	1000031e 	bne	r2,zero,24730 <OSIntEnter+0x38>
            OSIntNesting++;                      /* Increment ISR nesting level                        */
   24724:	d0a70403 	ldbu	r2,-25584(gp)
   24728:	10800044 	addi	r2,r2,1
   2472c:	d0a70405 	stb	r2,-25584(gp)
        }
    }
}
   24730:	0001883a 	nop
   24734:	e037883a 	mov	sp,fp
   24738:	df000017 	ldw	fp,0(sp)
   2473c:	dec00104 	addi	sp,sp,4
   24740:	f800283a 	ret

00024744 <OSIntExit>:
*              2) Rescheduling is prevented when the scheduler is locked (see OS_SchedLock())
*********************************************************************************************************
*/

void  OSIntExit (void)
{
   24744:	defffb04 	addi	sp,sp,-20
   24748:	dfc00415 	stw	ra,16(sp)
   2474c:	df000315 	stw	fp,12(sp)
   24750:	df000304 	addi	fp,sp,12
#if OS_CRITICAL_METHOD == 3                                /* Allocate storage for CPU status register */
    OS_CPU_SR  cpu_sr = 0;
   24754:	e03ffd15 	stw	zero,-12(fp)
#endif



    if (OSRunning == OS_TRUE) {
   24758:	d0a6f643 	ldbu	r2,-25639(gp)
   2475c:	10803fcc 	andi	r2,r2,255
   24760:	10800058 	cmpnei	r2,r2,1
   24764:	10002f1e 	bne	r2,zero,24824 <OSIntExit+0xe0>
static ALT_INLINE alt_irq_context ALT_ALWAYS_INLINE 
       alt_irq_disable_all (void)
{
  alt_irq_context context;

  NIOS2_READ_STATUS (context);
   24768:	0005303a 	rdctl	r2,status
   2476c:	e0bfff15 	stw	r2,-4(fp)

  NIOS2_WRITE_STATUS (context & ~NIOS2_STATUS_PIE_MSK);
   24770:	e0ffff17 	ldw	r3,-4(fp)
   24774:	00bfff84 	movi	r2,-2
   24778:	1884703a 	and	r2,r3,r2
   2477c:	1001703a 	wrctl	status,r2
  
  return context;
   24780:	e0bfff17 	ldw	r2,-4(fp)
        OS_ENTER_CRITICAL();
   24784:	e0bffd15 	stw	r2,-12(fp)
        if (OSIntNesting > 0) {                            /* Prevent OSIntNesting from wrapping       */
   24788:	d0a70403 	ldbu	r2,-25584(gp)
   2478c:	10803fcc 	andi	r2,r2,255
   24790:	10000326 	beq	r2,zero,247a0 <OSIntExit+0x5c>
            OSIntNesting--;
   24794:	d0a70403 	ldbu	r2,-25584(gp)
   24798:	10bfffc4 	addi	r2,r2,-1
   2479c:	d0a70405 	stb	r2,-25584(gp)
        }
        if (OSIntNesting == 0) {                           /* Reschedule only if all ISRs complete ... */
   247a0:	d0a70403 	ldbu	r2,-25584(gp)
   247a4:	10803fcc 	andi	r2,r2,255
   247a8:	10001a1e 	bne	r2,zero,24814 <OSIntExit+0xd0>
            if (OSLockNesting == 0) {                      /* ... and not locked.                      */
   247ac:	d0a6f603 	ldbu	r2,-25640(gp)
   247b0:	10803fcc 	andi	r2,r2,255
   247b4:	1000171e 	bne	r2,zero,24814 <OSIntExit+0xd0>
                OS_SchedNew();
   247b8:	00258400 	call	25840 <OS_SchedNew>
                if (OSPrioHighRdy != OSPrioCur) {          /* No Ctx Sw if current task is highest rdy */
   247bc:	d0e6f803 	ldbu	r3,-25632(gp)
   247c0:	d0a6f843 	ldbu	r2,-25631(gp)
   247c4:	18c03fcc 	andi	r3,r3,255
   247c8:	10803fcc 	andi	r2,r2,255
   247cc:	18801126 	beq	r3,r2,24814 <OSIntExit+0xd0>
                    OSTCBHighRdy  = OSTCBPrioTbl[OSPrioHighRdy];
   247d0:	d0a6f803 	ldbu	r2,-25632(gp)
   247d4:	10c03fcc 	andi	r3,r2,255
   247d8:	00800134 	movhi	r2,4
   247dc:	10a11c04 	addi	r2,r2,-31632
   247e0:	18c7883a 	add	r3,r3,r3
   247e4:	18c7883a 	add	r3,r3,r3
   247e8:	10c5883a 	add	r2,r2,r3
   247ec:	10800017 	ldw	r2,0(r2)
   247f0:	d0a70015 	stw	r2,-25600(gp)
#if OS_TASK_PROFILE_EN > 0
                    OSTCBHighRdy->OSTCBCtxSwCtr++;         /* Inc. # of context switches to this task  */
   247f4:	d0a70017 	ldw	r2,-25600(gp)
   247f8:	10c00e17 	ldw	r3,56(r2)
   247fc:	18c00044 	addi	r3,r3,1
   24800:	10c00e15 	stw	r3,56(r2)
#endif
                    OSCtxSwCtr++;                          /* Keep track of the number of ctx switches */
   24804:	d0a6fb17 	ldw	r2,-25620(gp)
   24808:	10800044 	addi	r2,r2,1
   2480c:	d0a6fb15 	stw	r2,-25620(gp)
                    OSIntCtxSw();                          /* Perform interrupt level ctx switch       */
   24810:	002d06c0 	call	2d06c <OSCtxSw>
   24814:	e0bffd17 	ldw	r2,-12(fp)
   24818:	e0bffe15 	stw	r2,-8(fp)
  status &= ~NIOS2_STATUS_PIE_MSK;
  status |= (context & NIOS2_STATUS_PIE_MSK);
  
  NIOS2_WRITE_STATUS (status);
#else
  NIOS2_WRITE_STATUS (context);
   2481c:	e0bffe17 	ldw	r2,-8(fp)
   24820:	1001703a 	wrctl	status,r2
                }
            }
        }
        OS_EXIT_CRITICAL();
    }
}
   24824:	0001883a 	nop
   24828:	e037883a 	mov	sp,fp
   2482c:	dfc00117 	ldw	ra,4(sp)
   24830:	df000017 	ldw	fp,0(sp)
   24834:	dec00204 	addi	sp,sp,8
   24838:	f800283a 	ret

0002483c <OSSchedLock>:
*********************************************************************************************************
*/

#if OS_SCHED_LOCK_EN > 0
void  OSSchedLock (void)
{
   2483c:	defffc04 	addi	sp,sp,-16
   24840:	df000315 	stw	fp,12(sp)
   24844:	df000304 	addi	fp,sp,12
#if OS_CRITICAL_METHOD == 3                      /* Allocate storage for CPU status register           */
    OS_CPU_SR  cpu_sr = 0;
   24848:	e03ffd15 	stw	zero,-12(fp)
#endif



    if (OSRunning == OS_TRUE) {                  /* Make sure multitasking is running                  */
   2484c:	d0a6f643 	ldbu	r2,-25639(gp)
   24850:	10803fcc 	andi	r2,r2,255
   24854:	10800058 	cmpnei	r2,r2,1
   24858:	1000161e 	bne	r2,zero,248b4 <OSSchedLock+0x78>
static ALT_INLINE alt_irq_context ALT_ALWAYS_INLINE 
       alt_irq_disable_all (void)
{
  alt_irq_context context;

  NIOS2_READ_STATUS (context);
   2485c:	0005303a 	rdctl	r2,status
   24860:	e0bfff15 	stw	r2,-4(fp)

  NIOS2_WRITE_STATUS (context & ~NIOS2_STATUS_PIE_MSK);
   24864:	e0ffff17 	ldw	r3,-4(fp)
   24868:	00bfff84 	movi	r2,-2
   2486c:	1884703a 	and	r2,r3,r2
   24870:	1001703a 	wrctl	status,r2
  
  return context;
   24874:	e0bfff17 	ldw	r2,-4(fp)
        OS_ENTER_CRITICAL();
   24878:	e0bffd15 	stw	r2,-12(fp)
        if (OSIntNesting == 0) {                 /* Can't call from an ISR                             */
   2487c:	d0a70403 	ldbu	r2,-25584(gp)
   24880:	10803fcc 	andi	r2,r2,255
   24884:	1000071e 	bne	r2,zero,248a4 <OSSchedLock+0x68>
            if (OSLockNesting < 255u) {          /* Prevent OSLockNesting from wrapping back to 0      */
   24888:	d0a6f603 	ldbu	r2,-25640(gp)
   2488c:	10803fcc 	andi	r2,r2,255
   24890:	10803fe0 	cmpeqi	r2,r2,255
   24894:	1000031e 	bne	r2,zero,248a4 <OSSchedLock+0x68>
                OSLockNesting++;                 /* Increment lock nesting level                       */
   24898:	d0a6f603 	ldbu	r2,-25640(gp)
   2489c:	10800044 	addi	r2,r2,1
   248a0:	d0a6f605 	stb	r2,-25640(gp)
   248a4:	e0bffd17 	ldw	r2,-12(fp)
   248a8:	e0bffe15 	stw	r2,-8(fp)
  status &= ~NIOS2_STATUS_PIE_MSK;
  status |= (context & NIOS2_STATUS_PIE_MSK);
  
  NIOS2_WRITE_STATUS (status);
#else
  NIOS2_WRITE_STATUS (context);
   248ac:	e0bffe17 	ldw	r2,-8(fp)
   248b0:	1001703a 	wrctl	status,r2
            }
        }
        OS_EXIT_CRITICAL();
    }
}
   248b4:	0001883a 	nop
   248b8:	e037883a 	mov	sp,fp
   248bc:	df000017 	ldw	fp,0(sp)
   248c0:	dec00104 	addi	sp,sp,4
   248c4:	f800283a 	ret

000248c8 <OSSchedUnlock>:
*********************************************************************************************************
*/

#if OS_SCHED_LOCK_EN > 0
void  OSSchedUnlock (void)
{
   248c8:	defff804 	addi	sp,sp,-32
   248cc:	dfc00715 	stw	ra,28(sp)
   248d0:	df000615 	stw	fp,24(sp)
   248d4:	df000604 	addi	fp,sp,24
#if OS_CRITICAL_METHOD == 3                                /* Allocate storage for CPU status register */
    OS_CPU_SR  cpu_sr = 0;
   248d8:	e03ffa15 	stw	zero,-24(fp)
#endif



