Archive member included to satisfy reference by file (symbol)

a:/intelfpga_lite/nios2eds/bin/gnu/h-x86_64-mingw32/bin/../lib/gcc/nios2-elf/5.3.0/../../../../../H-x86_64-mingw32/nios2-elf/lib/mno-hw-mul\libc.a(lib_a-puts.o)
                              obj/default/hello_ucosii.o (puts)
a:/intelfpga_lite/nios2eds/bin/gnu/h-x86_64-mingw32/bin/../lib/gcc/nios2-elf/5.3.0/../../../../../H-x86_64-mingw32/nios2-elf/lib/mno-hw-mul\libc.a(lib_a-strlen.o)
                              a:/intelfpga_lite/nios2eds/bin/gnu/h-x86_64-mingw32/bin/../lib/gcc/nios2-elf/5.3.0/../../../../../H-x86_64-mingw32/nios2-elf/lib/mno-hw-mul\libc.a(lib_a-puts.o) (strlen)
a:/intelfpga_lite/nios2eds/bin/gnu/h-x86_64-mingw32/bin/../lib/gcc/nios2-elf/5.3.0/../../../../../H-x86_64-mingw32/nios2-elf/lib/mno-hw-mul\libc.a(lib_a-findfp.o)
                              a:/intelfpga_lite/nios2eds/bin/gnu/h-x86_64-mingw32/bin/../lib/gcc/nios2-elf/5.3.0/../../../../../H-x86_64-mingw32/nios2-elf/lib/mno-hw-mul\libc.a(lib_a-puts.o) (__sinit)
a:/intelfpga_lite/nios2eds/bin/gnu/h-x86_64-mingw32/bin/../lib/gcc/nios2-elf/5.3.0/../../../../../H-x86_64-mingw32/nios2-elf/lib/mno-hw-mul\libc.a(lib_a-fvwrite.o)
                              a:/intelfpga_lite/nios2eds/bin/gnu/h-x86_64-mingw32/bin/../lib/gcc/nios2-elf/5.3.0/../../../../../H-x86_64-mingw32/nios2-elf/lib/mno-hw-mul\libc.a(lib_a-puts.o) (__sfvwrite_r)
a:/intelfpga_lite/nios2eds/bin/gnu/h-x86_64-mingw32/bin/../lib/gcc/nios2-elf/5.3.0/../../../../../H-x86_64-mingw32/nios2-elf/lib/mno-hw-mul\libc.a(lib_a-fwalk.o)
                              a:/intelfpga_lite/nios2eds/bin/gnu/h-x86_64-mingw32/bin/../lib/gcc/nios2-elf/5.3.0/../../../../../H-x86_64-mingw32/nios2-elf/lib/mno-hw-mul\libc.a(lib_a-findfp.o) (_fwalk)
a:/intelfpga_lite/nios2eds/bin/gnu/h-x86_64-mingw32/bin/../lib/gcc/nios2-elf/5.3.0/../../../../../H-x86_64-mingw32/nios2-elf/lib/mno-hw-mul\libc.a(lib_a-impure.o)
                              a:/intelfpga_lite/nios2eds/bin/gnu/h-x86_64-mingw32/bin/../lib/gcc/nios2-elf/5.3.0/../../../../../H-x86_64-mingw32/nios2-elf/lib/mno-hw-mul\libc.a(lib_a-findfp.o) (_global_impure_ptr)
a:/intelfpga_lite/nios2eds/bin/gnu/h-x86_64-mingw32/bin/../lib/gcc/nios2-elf/5.3.0/../../../../../H-x86_64-mingw32/nios2-elf/lib/mno-hw-mul\libc.a(lib_a-mallocr.o)
                              a:/intelfpga_lite/nios2eds/bin/gnu/h-x86_64-mingw32/bin/../lib/gcc/nios2-elf/5.3.0/../../../../../H-x86_64-mingw32/nios2-elf/lib/mno-hw-mul\libc.a(lib_a-findfp.o) (_malloc_r)
a:/intelfpga_lite/nios2eds/bin/gnu/h-x86_64-mingw32/bin/../lib/gcc/nios2-elf/5.3.0/../../../../../H-x86_64-mingw32/nios2-elf/lib/mno-hw-mul\libc.a(lib_a-memchr.o)
                              a:/intelfpga_lite/nios2eds/bin/gnu/h-x86_64-mingw32/bin/../lib/gcc/nios2-elf/5.3.0/../../../../../H-x86_64-mingw32/nios2-elf/lib/mno-hw-mul\libc.a(lib_a-fvwrite.o) (memchr)
a:/intelfpga_lite/nios2eds/bin/gnu/h-x86_64-mingw32/bin/../lib/gcc/nios2-elf/5.3.0/../../../../../H-x86_64-mingw32/nios2-elf/lib/mno-hw-mul\libc.a(lib_a-memcpy.o)
                              a:/intelfpga_lite/nios2eds/bin/gnu/h-x86_64-mingw32/bin/../lib/gcc/nios2-elf/5.3.0/../../../../../H-x86_64-mingw32/nios2-elf/lib/mno-hw-mul\libc.a(lib_a-fvwrite.o) (memcpy)
a:/intelfpga_lite/nios2eds/bin/gnu/h-x86_64-mingw32/bin/../lib/gcc/nios2-elf/5.3.0/../../../../../H-x86_64-mingw32/nios2-elf/lib/mno-hw-mul\libc.a(lib_a-memmove.o)
                              a:/intelfpga_lite/nios2eds/bin/gnu/h-x86_64-mingw32/bin/../lib/gcc/nios2-elf/5.3.0/../../../../../H-x86_64-mingw32/nios2-elf/lib/mno-hw-mul\libc.a(lib_a-fvwrite.o) (memmove)
a:/intelfpga_lite/nios2eds/bin/gnu/h-x86_64-mingw32/bin/../lib/gcc/nios2-elf/5.3.0/../../../../../H-x86_64-mingw32/nios2-elf/lib/mno-hw-mul\libc.a(lib_a-memset.o)
                              a:/intelfpga_lite/nios2eds/bin/gnu/h-x86_64-mingw32/bin/../lib/gcc/nios2-elf/5.3.0/../../../../../H-x86_64-mingw32/nios2-elf/lib/mno-hw-mul\libc.a(lib_a-findfp.o) (memset)
a:/intelfpga_lite/nios2eds/bin/gnu/h-x86_64-mingw32/bin/../lib/gcc/nios2-elf/5.3.0/../../../../../H-x86_64-mingw32/nios2-elf/lib/mno-hw-mul\libc.a(lib_a-reallocr.o)
                              a:/intelfpga_lite/nios2eds/bin/gnu/h-x86_64-mingw32/bin/../lib/gcc/nios2-elf/5.3.0/../../../../../H-x86_64-mingw32/nios2-elf/lib/mno-hw-mul\libc.a(lib_a-fvwrite.o) (_realloc_r)
a:/intelfpga_lite/nios2eds/bin/gnu/h-x86_64-mingw32/bin/../lib/gcc/nios2-elf/5.3.0/../../../../../H-x86_64-mingw32/nios2-elf/lib/mno-hw-mul\libc.a(lib_a-sbrkr.o)
                              a:/intelfpga_lite/nios2eds/bin/gnu/h-x86_64-mingw32/bin/../lib/gcc/nios2-elf/5.3.0/../../../../../H-x86_64-mingw32/nios2-elf/lib/mno-hw-mul\libc.a(lib_a-mallocr.o) (_sbrk_r)
a:/intelfpga_lite/nios2eds/bin/gnu/h-x86_64-mingw32/bin/../lib/gcc/nios2-elf/5.3.0/../../../../../H-x86_64-mingw32/nios2-elf/lib/mno-hw-mul\libc.a(lib_a-stdio.o)
                              a:/intelfpga_lite/nios2eds/bin/gnu/h-x86_64-mingw32/bin/../lib/gcc/nios2-elf/5.3.0/../../../../../H-x86_64-mingw32/nios2-elf/lib/mno-hw-mul\libc.a(lib_a-findfp.o) (__sread)
a:/intelfpga_lite/nios2eds/bin/gnu/h-x86_64-mingw32/bin/../lib/gcc/nios2-elf/5.3.0/../../../../../H-x86_64-mingw32/nios2-elf/lib/mno-hw-mul\libc.a(lib_a-writer.o)
                              a:/intelfpga_lite/nios2eds/bin/gnu/h-x86_64-mingw32/bin/../lib/gcc/nios2-elf/5.3.0/../../../../../H-x86_64-mingw32/nios2-elf/lib/mno-hw-mul\libc.a(lib_a-stdio.o) (_write_r)
a:/intelfpga_lite/nios2eds/bin/gnu/h-x86_64-mingw32/bin/../lib/gcc/nios2-elf/5.3.0/../../../../../H-x86_64-mingw32/nios2-elf/lib/mno-hw-mul\libc.a(lib_a-wsetup.o)
                              a:/intelfpga_lite/nios2eds/bin/gnu/h-x86_64-mingw32/bin/../lib/gcc/nios2-elf/5.3.0/../../../../../H-x86_64-mingw32/nios2-elf/lib/mno-hw-mul\libc.a(lib_a-fvwrite.o) (__swsetup_r)
a:/intelfpga_lite/nios2eds/bin/gnu/h-x86_64-mingw32/bin/../lib/gcc/nios2-elf/5.3.0/../../../../../H-x86_64-mingw32/nios2-elf/lib/mno-hw-mul\libc.a(closer.o)
                              a:/intelfpga_lite/nios2eds/bin/gnu/h-x86_64-mingw32/bin/../lib/gcc/nios2-elf/5.3.0/../../../../../H-x86_64-mingw32/nios2-elf/lib/mno-hw-mul\libc.a(lib_a-stdio.o) (_close_r)
a:/intelfpga_lite/nios2eds/bin/gnu/h-x86_64-mingw32/bin/../lib/gcc/nios2-elf/5.3.0/../../../../../H-x86_64-mingw32/nios2-elf/lib/mno-hw-mul\libc.a(lib_a-fclose.o)
                              a:/intelfpga_lite/nios2eds/bin/gnu/h-x86_64-mingw32/bin/../lib/gcc/nios2-elf/5.3.0/../../../../../H-x86_64-mingw32/nios2-elf/lib/mno-hw-mul\libc.a(lib_a-findfp.o) (_fclose_r)
a:/intelfpga_lite/nios2eds/bin/gnu/h-x86_64-mingw32/bin/../lib/gcc/nios2-elf/5.3.0/../../../../../H-x86_64-mingw32/nios2-elf/lib/mno-hw-mul\libc.a(lib_a-fflush.o)
                              a:/intelfpga_lite/nios2eds/bin/gnu/h-x86_64-mingw32/bin/../lib/gcc/nios2-elf/5.3.0/../../../../../H-x86_64-mingw32/nios2-elf/lib/mno-hw-mul\libc.a(lib_a-fclose.o) (__sflush_r)
a:/intelfpga_lite/nios2eds/bin/gnu/h-x86_64-mingw32/bin/../lib/gcc/nios2-elf/5.3.0/../../../../../H-x86_64-mingw32/nios2-elf/lib/mno-hw-mul\libc.a(lib_a-freer.o)
                              a:/intelfpga_lite/nios2eds/bin/gnu/h-x86_64-mingw32/bin/../lib/gcc/nios2-elf/5.3.0/../../../../../H-x86_64-mingw32/nios2-elf/lib/mno-hw-mul\libc.a(lib_a-fvwrite.o) (_free_r)
a:/intelfpga_lite/nios2eds/bin/gnu/h-x86_64-mingw32/bin/../lib/gcc/nios2-elf/5.3.0/../../../../../H-x86_64-mingw32/nios2-elf/lib/mno-hw-mul\libc.a(lib_a-int_errno.o)
                              a:/intelfpga_lite/nios2eds/bin/gnu/h-x86_64-mingw32/bin/../lib/gcc/nios2-elf/5.3.0/../../../../../H-x86_64-mingw32/nios2-elf/lib/mno-hw-mul\libc.a(lib_a-sbrkr.o) (errno)
a:/intelfpga_lite/nios2eds/bin/gnu/h-x86_64-mingw32/bin/../lib/gcc/nios2-elf/5.3.0/../../../../../H-x86_64-mingw32/nios2-elf/lib/mno-hw-mul\libc.a(lib_a-lseekr.o)
                              a:/intelfpga_lite/nios2eds/bin/gnu/h-x86_64-mingw32/bin/../lib/gcc/nios2-elf/5.3.0/../../../../../H-x86_64-mingw32/nios2-elf/lib/mno-hw-mul\libc.a(lib_a-stdio.o) (_lseek_r)
a:/intelfpga_lite/nios2eds/bin/gnu/h-x86_64-mingw32/bin/../lib/gcc/nios2-elf/5.3.0/../../../../../H-x86_64-mingw32/nios2-elf/lib/mno-hw-mul\libc.a(lib_a-makebuf.o)
                              a:/intelfpga_lite/nios2eds/bin/gnu/h-x86_64-mingw32/bin/../lib/gcc/nios2-elf/5.3.0/../../../../../H-x86_64-mingw32/nios2-elf/lib/mno-hw-mul\libc.a(lib_a-wsetup.o) (__smakebuf_r)
a:/intelfpga_lite/nios2eds/bin/gnu/h-x86_64-mingw32/bin/../lib/gcc/nios2-elf/5.3.0/../../../../../H-x86_64-mingw32/nios2-elf/lib/mno-hw-mul\libc.a(lib_a-readr.o)
                              a:/intelfpga_lite/nios2eds/bin/gnu/h-x86_64-mingw32/bin/../lib/gcc/nios2-elf/5.3.0/../../../../../H-x86_64-mingw32/nios2-elf/lib/mno-hw-mul\libc.a(lib_a-stdio.o) (_read_r)
a:/intelfpga_lite/nios2eds/bin/gnu/h-x86_64-mingw32/bin/../lib/gcc/nios2-elf/5.3.0/../../../../../H-x86_64-mingw32/nios2-elf/lib/mno-hw-mul\libc.a(lib_a-fstatr.o)
                              a:/intelfpga_lite/nios2eds/bin/gnu/h-x86_64-mingw32/bin/../lib/gcc/nios2-elf/5.3.0/../../../../../H-x86_64-mingw32/nios2-elf/lib/mno-hw-mul\libc.a(lib_a-makebuf.o) (_fstat_r)
a:/intelfpga_lite/nios2eds/bin/gnu/h-x86_64-mingw32/bin/../lib/gcc/nios2-elf/5.3.0/../../../../../H-x86_64-mingw32/nios2-elf/lib/mno-hw-mul\libc.a(lib_a-isattyr.o)
                              a:/intelfpga_lite/nios2eds/bin/gnu/h-x86_64-mingw32/bin/../lib/gcc/nios2-elf/5.3.0/../../../../../H-x86_64-mingw32/nios2-elf/lib/mno-hw-mul\libc.a(lib_a-makebuf.o) (_isatty_r)
a:/intelfpga_lite/nios2eds/bin/gnu/h-x86_64-mingw32/bin/../lib/gcc/nios2-elf/5.3.0/mno-hw-mul\libgcc.a(lib2-divmod.o)
                              a:/intelfpga_lite/nios2eds/bin/gnu/h-x86_64-mingw32/bin/../lib/gcc/nios2-elf/5.3.0/../../../../../H-x86_64-mingw32/nios2-elf/lib/mno-hw-mul\libc.a(lib_a-fvwrite.o) (__divsi3)
a:/intelfpga_lite/nios2eds/bin/gnu/h-x86_64-mingw32/bin/../lib/gcc/nios2-elf/5.3.0/mno-hw-mul\libgcc.a(lib2-mul.o)
                              a:/intelfpga_lite/nios2eds/bin/gnu/h-x86_64-mingw32/bin/../lib/gcc/nios2-elf/5.3.0/../../../../../H-x86_64-mingw32/nios2-elf/lib/mno-hw-mul\libc.a(lib_a-findfp.o) (__mulsi3)
../lab4_bsp/\libucosii_bsp.a(alt_close.o)
                              a:/intelfpga_lite/nios2eds/bin/gnu/h-x86_64-mingw32/bin/../lib/gcc/nios2-elf/5.3.0/../../../../../H-x86_64-mingw32/nios2-elf/lib/mno-hw-mul\libc.a(closer.o) (close)
../lab4_bsp/\libucosii_bsp.a(alt_dev.o)
                              ../lab4_bsp/\libucosii_bsp.a(alt_close.o) (alt_fd_list)
../lab4_bsp/\libucosii_bsp.a(alt_errno.o)
                              ../lab4_bsp/\libucosii_bsp.a(alt_close.o) (alt_errno)
../lab4_bsp/\libucosii_bsp.a(alt_fstat.o)
                              a:/intelfpga_lite/nios2eds/bin/gnu/h-x86_64-mingw32/bin/../lib/gcc/nios2-elf/5.3.0/../../../../../H-x86_64-mingw32/nios2-elf/lib/mno-hw-mul\libc.a(lib_a-fstatr.o) (fstat)
../lab4_bsp/\libucosii_bsp.a(alt_isatty.o)
                              a:/intelfpga_lite/nios2eds/bin/gnu/h-x86_64-mingw32/bin/../lib/gcc/nios2-elf/5.3.0/../../../../../H-x86_64-mingw32/nios2-elf/lib/mno-hw-mul\libc.a(lib_a-isattyr.o) (isatty)
../lab4_bsp/\libucosii_bsp.a(alt_load.o)
                              ../lab4_bsp//obj/HAL/src/crt0.o (alt_load)
../lab4_bsp/\libucosii_bsp.a(alt_lseek.o)
                              a:/intelfpga_lite/nios2eds/bin/gnu/h-x86_64-mingw32/bin/../lib/gcc/nios2-elf/5.3.0/../../../../../H-x86_64-mingw32/nios2-elf/lib/mno-hw-mul\libc.a(lib_a-lseekr.o) (lseek)
../lab4_bsp/\libucosii_bsp.a(alt_main.o)
                              ../lab4_bsp//obj/HAL/src/crt0.o (alt_main)
../lab4_bsp/\libucosii_bsp.a(alt_read.o)
                              a:/intelfpga_lite/nios2eds/bin/gnu/h-x86_64-mingw32/bin/../lib/gcc/nios2-elf/5.3.0/../../../../../H-x86_64-mingw32/nios2-elf/lib/mno-hw-mul\libc.a(lib_a-readr.o) (read)
../lab4_bsp/\libucosii_bsp.a(alt_release_fd.o)
                              ../lab4_bsp/\libucosii_bsp.a(alt_close.o) (alt_release_fd)
../lab4_bsp/\libucosii_bsp.a(alt_sbrk.o)
                              a:/intelfpga_lite/nios2eds/bin/gnu/h-x86_64-mingw32/bin/../lib/gcc/nios2-elf/5.3.0/../../../../../H-x86_64-mingw32/nios2-elf/lib/mno-hw-mul\libc.a(lib_a-sbrkr.o) (sbrk)
../lab4_bsp/\libucosii_bsp.a(alt_write.o)
                              a:/intelfpga_lite/nios2eds/bin/gnu/h-x86_64-mingw32/bin/../lib/gcc/nios2-elf/5.3.0/../../../../../H-x86_64-mingw32/nios2-elf/lib/mno-hw-mul\libc.a(lib_a-writer.o) (write)
../lab4_bsp/\libucosii_bsp.a(alt_env_lock.o)
                              ../lab4_bsp/\libucosii_bsp.a(alt_main.o) (alt_envsem)
../lab4_bsp/\libucosii_bsp.a(alt_malloc_lock.o)
                              ../lab4_bsp/\libucosii_bsp.a(alt_main.o) (alt_heapsem)
../lab4_bsp/\libucosii_bsp.a(os_core.o)
                              ../lab4_bsp/\libucosii_bsp.a(alt_malloc_lock.o) (OSRunning)
../lab4_bsp/\libucosii_bsp.a(os_dbg.o)
                              ../lab4_bsp/\libucosii_bsp.a(os_core.o) (OSDebugInit)
../lab4_bsp/\libucosii_bsp.a(os_flag.o)
                              ../lab4_bsp/\libucosii_bsp.a(os_core.o) (OS_FlagInit)
../lab4_bsp/\libucosii_bsp.a(os_mem.o)
                              ../lab4_bsp/\libucosii_bsp.a(os_core.o) (OS_MemInit)
../lab4_bsp/\libucosii_bsp.a(os_q.o)
                              ../lab4_bsp/\libucosii_bsp.a(os_core.o) (OS_QInit)
../lab4_bsp/\libucosii_bsp.a(os_sem.o)
                              ../lab4_bsp/\libucosii_bsp.a(alt_main.o) (OSSemCreate)
../lab4_bsp/\libucosii_bsp.a(os_task.o)
                              obj/default/hello_ucosii.o (OSTaskCreateExt)
../lab4_bsp/\libucosii_bsp.a(os_time.o)
                              ../lab4_bsp/\libucosii_bsp.a(os_core.o) (OSTimeDly)
../lab4_bsp/\libucosii_bsp.a(alt_sys_init.o)
                              ../lab4_bsp/\libucosii_bsp.a(alt_main.o) (alt_irq_init)
../lab4_bsp/\libucosii_bsp.a(altera_avalon_jtag_uart_fd.o)
                              ../lab4_bsp/\libucosii_bsp.a(alt_sys_init.o) (altera_avalon_jtag_uart_read_fd)
../lab4_bsp/\libucosii_bsp.a(altera_avalon_jtag_uart_init.o)
                              ../lab4_bsp/\libucosii_bsp.a(alt_sys_init.o) (altera_avalon_jtag_uart_init)
../lab4_bsp/\libucosii_bsp.a(altera_avalon_jtag_uart_ioctl.o)
                              ../lab4_bsp/\libucosii_bsp.a(altera_avalon_jtag_uart_fd.o) (altera_avalon_jtag_uart_ioctl)
../lab4_bsp/\libucosii_bsp.a(altera_avalon_jtag_uart_read.o)
                              ../lab4_bsp/\libucosii_bsp.a(altera_avalon_jtag_uart_fd.o) (altera_avalon_jtag_uart_read)
../lab4_bsp/\libucosii_bsp.a(altera_avalon_jtag_uart_write.o)
                              ../lab4_bsp/\libucosii_bsp.a(altera_avalon_jtag_uart_fd.o) (altera_avalon_jtag_uart_write)
../lab4_bsp/\libucosii_bsp.a(altera_avalon_timer_sc.o)
                              ../lab4_bsp/\libucosii_bsp.a(alt_sys_init.o) (alt_avalon_timer_sc_init)
../lab4_bsp/\libucosii_bsp.a(alt_alarm_start.o)
                              ../lab4_bsp/\libucosii_bsp.a(altera_avalon_jtag_uart_init.o) (alt_alarm_start)
../lab4_bsp/\libucosii_bsp.a(alt_dcache_flush_all.o)
                              ../lab4_bsp/\libucosii_bsp.a(alt_load.o) (alt_dcache_flush_all)
../lab4_bsp/\libucosii_bsp.a(alt_dev_llist_insert.o)
                              ../lab4_bsp/\libucosii_bsp.a(alt_sys_init.o) (alt_dev_llist_insert)
../lab4_bsp/\libucosii_bsp.a(alt_do_ctors.o)
                              ../lab4_bsp/\libucosii_bsp.a(alt_main.o) (_do_ctors)
../lab4_bsp/\libucosii_bsp.a(alt_do_dtors.o)
                              ../lab4_bsp/\libucosii_bsp.a(alt_main.o) (_do_dtors)
../lab4_bsp/\libucosii_bsp.a(alt_icache_flush_all.o)
                              ../lab4_bsp/\libucosii_bsp.a(alt_load.o) (alt_icache_flush_all)
../lab4_bsp/\libucosii_bsp.a(alt_iic.o)
                              ../lab4_bsp/\libucosii_bsp.a(altera_avalon_jtag_uart_init.o) (alt_ic_isr_register)
../lab4_bsp/\libucosii_bsp.a(alt_iic_isr_register.o)
                              ../lab4_bsp/\libucosii_bsp.a(alt_iic.o) (alt_iic_isr_register)
../lab4_bsp/\libucosii_bsp.a(alt_io_redirect.o)
                              ../lab4_bsp/\libucosii_bsp.a(alt_main.o) (alt_io_redirect)
../lab4_bsp/\libucosii_bsp.a(alt_irq_entry.o)
                              ../lab4_bsp/\libucosii_bsp.a(alt_iic_isr_register.o) (alt_irq_entry)
../lab4_bsp/\libucosii_bsp.a(alt_irq_handler.o)
                              ../lab4_bsp/\libucosii_bsp.a(alt_iic_isr_register.o) (alt_irq)
../lab4_bsp/\libucosii_bsp.a(alt_irq_vars.o)
                              ../lab4_bsp/\libucosii_bsp.a(alt_iic.o) (alt_irq_active)
../lab4_bsp/\libucosii_bsp.a(alt_open.o)
                              ../lab4_bsp/\libucosii_bsp.a(alt_io_redirect.o) (open)
../lab4_bsp/\libucosii_bsp.a(alt_tick.o)
                              ../lab4_bsp/\libucosii_bsp.a(altera_avalon_jtag_uart_init.o) (_alt_tick_rate)
../lab4_bsp/\libucosii_bsp.a(altera_nios2_gen2_irq.o)
                              ../lab4_bsp/\libucosii_bsp.a(alt_sys_init.o) (altera_nios2_gen2_irq_init)
../lab4_bsp/\libucosii_bsp.a(os_cpu_a.o)
                              ../lab4_bsp/\libucosii_bsp.a(os_core.o) (OSIntCtxSw)
../lab4_bsp/\libucosii_bsp.a(os_cpu_c.o)
                              ../lab4_bsp/\libucosii_bsp.a(os_task.o) (OSTaskStkInit)
../lab4_bsp/\libucosii_bsp.a(alt_exception_entry.o)
                              ../lab4_bsp/\libucosii_bsp.a(alt_irq_entry.o) (alt_exception)
../lab4_bsp/\libucosii_bsp.a(alt_find_dev.o)
                              ../lab4_bsp/\libucosii_bsp.a(alt_open.o) (alt_find_dev)
../lab4_bsp/\libucosii_bsp.a(alt_find_file.o)
                              ../lab4_bsp/\libucosii_bsp.a(alt_open.o) (alt_find_file)
../lab4_bsp/\libucosii_bsp.a(alt_get_fd.o)
                              ../lab4_bsp/\libucosii_bsp.a(alt_open.o) (alt_get_fd)
../lab4_bsp/\libucosii_bsp.a(alt_instruction_exception_entry.o)
                              ../lab4_bsp/\libucosii_bsp.a(alt_exception_entry.o) (alt_instruction_exception_entry)
a:/intelfpga_lite/nios2eds/bin/gnu/h-x86_64-mingw32/bin/../lib/gcc/nios2-elf/5.3.0/../../../../../H-x86_64-mingw32/nios2-elf/lib/mno-hw-mul\libc.a(lib_a-atexit.o)
                              ../lab4_bsp/\libucosii_bsp.a(alt_main.o) (atexit)
a:/intelfpga_lite/nios2eds/bin/gnu/h-x86_64-mingw32/bin/../lib/gcc/nios2-elf/5.3.0/../../../../../H-x86_64-mingw32/nios2-elf/lib/mno-hw-mul\libc.a(lib_a-exit.o)
                              ../lab4_bsp/\libucosii_bsp.a(alt_main.o) (exit)
a:/intelfpga_lite/nios2eds/bin/gnu/h-x86_64-mingw32/bin/../lib/gcc/nios2-elf/5.3.0/../../../../../H-x86_64-mingw32/nios2-elf/lib/mno-hw-mul\libc.a(lib_a-memcmp.o)
                              ../lab4_bsp/\libucosii_bsp.a(alt_find_dev.o) (memcmp)
a:/intelfpga_lite/nios2eds/bin/gnu/h-x86_64-mingw32/bin/../lib/gcc/nios2-elf/5.3.0/../../../../../H-x86_64-mingw32/nios2-elf/lib/mno-hw-mul\libc.a(lib_a-__atexit.o)
                              a:/intelfpga_lite/nios2eds/bin/gnu/h-x86_64-mingw32/bin/../lib/gcc/nios2-elf/5.3.0/../../../../../H-x86_64-mingw32/nios2-elf/lib/mno-hw-mul\libc.a(lib_a-atexit.o) (__register_exitproc)
a:/intelfpga_lite/nios2eds/bin/gnu/h-x86_64-mingw32/bin/../lib/gcc/nios2-elf/5.3.0/../../../../../H-x86_64-mingw32/nios2-elf/lib/mno-hw-mul\libc.a(lib_a-__call_atexit.o)
                              a:/intelfpga_lite/nios2eds/bin/gnu/h-x86_64-mingw32/bin/../lib/gcc/nios2-elf/5.3.0/../../../../../H-x86_64-mingw32/nios2-elf/lib/mno-hw-mul\libc.a(lib_a-exit.o) (__call_exitprocs)
../lab4_bsp/\libucosii_bsp.a(alt_exit.o)
                              a:/intelfpga_lite/nios2eds/bin/gnu/h-x86_64-mingw32/bin/../lib/gcc/nios2-elf/5.3.0/../../../../../H-x86_64-mingw32/nios2-elf/lib/mno-hw-mul\libc.a(lib_a-exit.o) (_exit)

Allocating common symbols
Common symbol       size              file

alt_irq             0x100             ../lab4_bsp/\libucosii_bsp.a(alt_irq_handler.o)
task1_stk           0x2000            obj/default/hello_ucosii.o
OSLockNesting       0x1               ../lab4_bsp/\libucosii_bsp.a(os_core.o)
OSRunning           0x1               ../lab4_bsp/\libucosii_bsp.a(os_core.o)
OSIdleCtr           0x4               ../lab4_bsp/\libucosii_bsp.a(os_core.o)
OSPrioHighRdy       0x1               ../lab4_bsp/\libucosii_bsp.a(os_core.o)
errno               0x4               a:/intelfpga_lite/nios2eds/bin/gnu/h-x86_64-mingw32/bin/../lib/gcc/nios2-elf/5.3.0/../../../../../H-x86_64-mingw32/nios2-elf/lib/mno-hw-mul\libc.a(lib_a-int_errno.o)
alt_heapsem         0x4               ../lab4_bsp/\libucosii_bsp.a(alt_malloc_lock.o)
OSFlagTbl           0x370             ../lab4_bsp/\libucosii_bsp.a(os_core.o)
OSPrioCur           0x1               ../lab4_bsp/\libucosii_bsp.a(os_core.o)
OSTCBList           0x4               ../lab4_bsp/\libucosii_bsp.a(os_core.o)
alt_fd_list_lock    0x4               ../lab4_bsp/\libucosii_bsp.a(alt_dev.o)
OSMemTbl            0xc30             ../lab4_bsp/\libucosii_bsp.a(os_core.o)
OSTickStepState     0x1               ../lab4_bsp/\libucosii_bsp.a(os_core.o)
OSTaskStatStk       0x800             ../lab4_bsp/\libucosii_bsp.a(os_core.o)
OSCtxSwCtr          0x4               ../lab4_bsp/\libucosii_bsp.a(os_core.o)
OSIdleCtrMax        0x4               ../lab4_bsp/\libucosii_bsp.a(os_core.o)
OSTCBFreeList       0x4               ../lab4_bsp/\libucosii_bsp.a(os_core.o)
OSCPUUsage          0x1               ../lab4_bsp/\libucosii_bsp.a(os_core.o)
OSTaskCtr           0x1               ../lab4_bsp/\libucosii_bsp.a(os_core.o)
OSMemFreeList       0x4               ../lab4_bsp/\libucosii_bsp.a(os_core.o)
OSQTbl              0x1e0             ../lab4_bsp/\libucosii_bsp.a(os_core.o)
OSTCBHighRdy        0x4               ../lab4_bsp/\libucosii_bsp.a(os_core.o)
OSQFreeList         0x4               ../lab4_bsp/\libucosii_bsp.a(os_core.o)
OSRdyGrp            0x1               ../lab4_bsp/\libucosii_bsp.a(os_core.o)
task2_stk           0x2000            obj/default/hello_ucosii.o
OSRdyTbl            0x3               ../lab4_bsp/\libucosii_bsp.a(os_core.o)
OSEventFreeList     0x4               ../lab4_bsp/\libucosii_bsp.a(os_core.o)
OSIntNesting        0x1               ../lab4_bsp/\libucosii_bsp.a(os_core.o)
OSTCBCur            0x4               ../lab4_bsp/\libucosii_bsp.a(os_core.o)
OSTime              0x4               ../lab4_bsp/\libucosii_bsp.a(os_core.o)
OSTaskIdleStk       0x800             ../lab4_bsp/\libucosii_bsp.a(os_core.o)
OSEventTbl          0xb40             ../lab4_bsp/\libucosii_bsp.a(os_core.o)
OSTCBTbl            0x510             ../lab4_bsp/\libucosii_bsp.a(os_core.o)
OSFlagFreeList      0x4               ../lab4_bsp/\libucosii_bsp.a(os_core.o)
OSStatRdy           0x1               ../lab4_bsp/\libucosii_bsp.a(os_core.o)
OSTCBPrioTbl        0x54              ../lab4_bsp/\libucosii_bsp.a(os_core.o)
alt_envsem          0x4               ../lab4_bsp/\libucosii_bsp.a(alt_env_lock.o)
OSIdleCtrRun        0x4               ../lab4_bsp/\libucosii_bsp.a(os_core.o)

Memory Configuration

Name             Origin             Length             Attributes
reset            0x0000000000020000 0x0000000000000020
OnChip_Memory    0x0000000000020020 0x000000000001f3e0
*default*        0x0000000000000000 0xffffffffffffffff

Linker script and memory map

LOAD ../lab4_bsp//obj/HAL/src/crt0.o
LOAD obj/default/hello_ucosii.o
LOAD a:/intelfpga_lite/nios2eds/bin/gnu/h-x86_64-mingw32/bin/../lib/gcc/nios2-elf/5.3.0/../../../../../H-x86_64-mingw32/nios2-elf/lib/mno-hw-mul\libstdc++.a
LOAD a:/intelfpga_lite/nios2eds/bin/gnu/h-x86_64-mingw32/bin/../lib/gcc/nios2-elf/5.3.0/../../../../../H-x86_64-mingw32/nios2-elf/lib/mno-hw-mul\libm.a
LOAD a:/intelfpga_lite/nios2eds/bin/gnu/h-x86_64-mingw32/bin/../lib/gcc/nios2-elf/5.3.0/mno-hw-mul\libgcc.a
START GROUP
LOAD a:/intelfpga_lite/nios2eds/bin/gnu/h-x86_64-mingw32/bin/../lib/gcc/nios2-elf/5.3.0/../../../../../H-x86_64-mingw32/nios2-elf/lib/mno-hw-mul\libc.a
LOAD a:/intelfpga_lite/nios2eds/bin/gnu/h-x86_64-mingw32/bin/../lib/gcc/nios2-elf/5.3.0/mno-hw-mul\libgcc.a
LOAD ../lab4_bsp/\libucosii_bsp.a
LOAD a:/intelfpga_lite/nios2eds/bin/gnu/h-x86_64-mingw32/bin/../lib/gcc/nios2-elf/5.3.0/../../../../../H-x86_64-mingw32/nios2-elf/lib/mno-hw-mul\libm.a
END GROUP
LOAD a:/intelfpga_lite/nios2eds/bin/gnu/h-x86_64-mingw32/bin/../lib/gcc/nios2-elf/5.3.0/mno-hw-mul\libgcc.a
                0x0000000000020000                __alt_mem_OnChip_Memory = 0x20000

.entry          0x0000000000020000       0x20
 *(.entry)
 .entry         0x0000000000020000       0x20 ../lab4_bsp//obj/HAL/src/crt0.o
                0x0000000000020000                __reset

.exceptions     0x0000000000020020      0x210
                0x0000000000020020                PROVIDE (__ram_exceptions_start, ABSOLUTE (.))
                0x0000000000020020                . = ALIGN (0x20)
 *(.irq)
 *(.exceptions.entry.label)
 .exceptions.entry.label
                0x0000000000020020        0x0 ../lab4_bsp/\libucosii_bsp.a(alt_irq_entry.o)
                0x0000000000020020                alt_irq_entry
 .exceptions.entry.label
                0x0000000000020020        0x0 ../lab4_bsp/\libucosii_bsp.a(alt_exception_entry.o)
                0x0000000000020020                alt_exception
 *(.exceptions.entry.user)
 *(.exceptions.entry.ecc_fatal)
 *(.exceptions.entry)
 .exceptions.entry
                0x0000000000020020       0x54 ../lab4_bsp/\libucosii_bsp.a(alt_exception_entry.o)
 *(.exceptions.irqtest.user)
 *(.exceptions.irqtest)
 .exceptions.irqtest
                0x0000000000020074       0x10 ../lab4_bsp/\libucosii_bsp.a(alt_irq_entry.o)
 *(.exceptions.irqhandler.user)
 *(.exceptions.irqhandler)
 .exceptions.irqhandler
                0x0000000000020084        0x4 ../lab4_bsp/\libucosii_bsp.a(alt_irq_entry.o)
 *(.exceptions.irqreturn.user)
 *(.exceptions.irqreturn)
 .exceptions.irqreturn
                0x0000000000020088        0x4 ../lab4_bsp/\libucosii_bsp.a(alt_irq_entry.o)
 *(.exceptions.notirq.label)
 .exceptions.notirq.label
                0x000000000002008c        0x0 ../lab4_bsp/\libucosii_bsp.a(alt_irq_entry.o)
 *(.exceptions.notirq.user)
 *(.exceptions.notirq)
 .exceptions.notirq
                0x000000000002008c        0x8 ../lab4_bsp/\libucosii_bsp.a(alt_exception_entry.o)
 *(.exceptions.soft.user)
 *(.exceptions.soft)
 *(.exceptions.unknown.user)
 *(.exceptions.unknown)
 .exceptions.unknown
                0x0000000000020094       0x14 ../lab4_bsp/\libucosii_bsp.a(alt_exception_entry.o)
 *(.exceptions.exit.label)
 .exceptions.exit.label
                0x00000000000200a8        0x0 ../lab4_bsp/\libucosii_bsp.a(alt_irq_entry.o)
 .exceptions.exit.label
                0x00000000000200a8        0x0 ../lab4_bsp/\libucosii_bsp.a(alt_exception_entry.o)
 *(.exceptions.exit.user)
 *(.exceptions.exit)
 .exceptions.exit
                0x00000000000200a8       0x54 ../lab4_bsp/\libucosii_bsp.a(alt_exception_entry.o)
 *(.exceptions)
 .exceptions    0x00000000000200fc       0xd4 ../lab4_bsp/\libucosii_bsp.a(alt_irq_handler.o)
                0x00000000000200fc                alt_irq_handler
 .exceptions    0x00000000000201d0       0x60 ../lab4_bsp/\libucosii_bsp.a(alt_instruction_exception_entry.o)
                0x00000000000201d0                alt_instruction_exception_entry
                0x0000000000020230                PROVIDE (__ram_exceptions_end, ABSOLUTE (.))
                0x0000000000020020                PROVIDE (__flash_exceptions_start, LOADADDR (.exceptions))

.text           0x0000000000020230     0xd850
                [!provide]                        PROVIDE (stext, ABSOLUTE (.))
 *(.interp)
 *(.hash)
 *(.dynsym)
 *(.dynstr)
 *(.gnu.version)
 *(.gnu.version_d)
 *(.gnu.version_r)
 *(.rel.init)
 *(.rela.init)
 *(.rel.text .rel.text.* .rel.gnu.linkonce.t.*)
 *(.rela.text .rela.text.* .rela.gnu.linkonce.t.*)
 *(.rel.fini)
 *(.rela.fini)
 *(.rel.rodata .rel.rodata.* .rel.gnu.linkonce.r.*)
 *(.rela.rodata .rela.rodata.* .rela.gnu.linkonce.r.*)
 *(.rel.data .rel.data.* .rel.gnu.linkonce.d.*)
 *(.rela.data .rela.data.* .rela.gnu.linkonce.d.*)
 *(.rel.tdata .rel.tdata.* .rel.gnu.linkonce.td.*)
 *(.rela.tdata .rela.tdata.* .rela.gnu.linkonce.td.*)
 *(.rel.tbss .rel.tbss.* .rel.gnu.linkonce.tb.*)
 *(.rela.tbss .rela.tbss.* .rela.gnu.linkonce.tb.*)
 *(.rel.ctors)
 *(.rela.ctors)
 *(.rel.dtors)
 *(.rela.dtors)
 *(.rel.got)
 *(.rela.got)
 *(.rel.sdata .rel.sdata.* .rel.gnu.linkonce.s.*)
 *(.rela.sdata .rela.sdata.* .rela.gnu.linkonce.s.*)
 *(.rel.sbss .rel.sbss.* .rel.gnu.linkonce.sb.*)
 *(.rela.sbss .rela.sbss.* .rela.gnu.linkonce.sb.*)
 *(.rel.sdata2 .rel.sdata2.* .rel.gnu.linkonce.s2.*)
 *(.rela.sdata2 .rela.sdata2.* .rela.gnu.linkonce.s2.*)
 *(.rel.sbss2 .rel.sbss2.* .rel.gnu.linkonce.sb2.*)
 *(.rela.sbss2 .rela.sbss2.* .rela.gnu.linkonce.sb2.*)
 *(.rel.bss .rel.bss.* .rel.gnu.linkonce.b.*)
 *(.rela.bss .rela.bss.* .rela.gnu.linkonce.b.*)
 *(.rel.plt)
 *(.rela.plt)
 *(.rel.dyn)
 *(.init)
 *(.plt)
 *(.text .stub .text.* .gnu.linkonce.t.*)
 .text          0x0000000000020230       0x3c ../lab4_bsp//obj/HAL/src/crt0.o
                0x0000000000020230                _start
 .text          0x000000000002026c      0x11c obj/default/hello_ucosii.o
                0x000000000002026c                task1
                0x00000000000202a4                task2
                0x00000000000202dc                main
 .text          0x0000000000020388        0x0 a:/intelfpga_lite/nios2eds/bin/gnu/h-x86_64-mingw32/bin/../lib/gcc/nios2-elf/5.3.0/../../../../../H-x86_64-mingw32/nios2-elf/lib/mno-hw-mul\libc.a(lib_a-puts.o)
 .text._puts_r  0x0000000000020388       0xc0 a:/intelfpga_lite/nios2eds/bin/gnu/h-x86_64-mingw32/bin/../lib/gcc/nios2-elf/5.3.0/../../../../../H-x86_64-mingw32/nios2-elf/lib/mno-hw-mul\libc.a(lib_a-puts.o)
                0x0000000000020388                _puts_r
 .text.puts     0x0000000000020448       0x14 a:/intelfpga_lite/nios2eds/bin/gnu/h-x86_64-mingw32/bin/../lib/gcc/nios2-elf/5.3.0/../../../../../H-x86_64-mingw32/nios2-elf/lib/mno-hw-mul\libc.a(lib_a-puts.o)
                0x0000000000020448                puts
 .text          0x000000000002045c        0x0 a:/intelfpga_lite/nios2eds/bin/gnu/h-x86_64-mingw32/bin/../lib/gcc/nios2-elf/5.3.0/../../../../../H-x86_64-mingw32/nios2-elf/lib/mno-hw-mul\libc.a(lib_a-strlen.o)
 .text.strlen   0x000000000002045c       0x98 a:/intelfpga_lite/nios2eds/bin/gnu/h-x86_64-mingw32/bin/../lib/gcc/nios2-elf/5.3.0/../../../../../H-x86_64-mingw32/nios2-elf/lib/mno-hw-mul\libc.a(lib_a-strlen.o)
                0x000000000002045c                strlen
 .text          0x00000000000204f4        0x0 a:/intelfpga_lite/nios2eds/bin/gnu/h-x86_64-mingw32/bin/../lib/gcc/nios2-elf/5.3.0/../../../../../H-x86_64-mingw32/nios2-elf/lib/mno-hw-mul\libc.a(lib_a-findfp.o)
 .text.__fp_unlock
                0x00000000000204f4        0x8 a:/intelfpga_lite/nios2eds/bin/gnu/h-x86_64-mingw32/bin/../lib/gcc/nios2-elf/5.3.0/../../../../../H-x86_64-mingw32/nios2-elf/lib/mno-hw-mul\libc.a(lib_a-findfp.o)
 .text._cleanup_r
                0x00000000000204fc        0xc a:/intelfpga_lite/nios2eds/bin/gnu/h-x86_64-mingw32/bin/../lib/gcc/nios2-elf/5.3.0/../../../../../H-x86_64-mingw32/nios2-elf/lib/mno-hw-mul\libc.a(lib_a-findfp.o)
                0x00000000000204fc                _cleanup_r
 .text.__sinit.part.1
                0x0000000000020508      0x19c a:/intelfpga_lite/nios2eds/bin/gnu/h-x86_64-mingw32/bin/../lib/gcc/nios2-elf/5.3.0/../../../../../H-x86_64-mingw32/nios2-elf/lib/mno-hw-mul\libc.a(lib_a-findfp.o)
 .text.__fp_lock
                0x00000000000206a4        0x8 a:/intelfpga_lite/nios2eds/bin/gnu/h-x86_64-mingw32/bin/../lib/gcc/nios2-elf/5.3.0/../../../../../H-x86_64-mingw32/nios2-elf/lib/mno-hw-mul\libc.a(lib_a-findfp.o)
 .text.__sfmoreglue
                0x00000000000206ac       0x78 a:/intelfpga_lite/nios2eds/bin/gnu/h-x86_64-mingw32/bin/../lib/gcc/nios2-elf/5.3.0/../../../../../H-x86_64-mingw32/nios2-elf/lib/mno-hw-mul\libc.a(lib_a-findfp.o)
                0x00000000000206ac                __sfmoreglue
 .text.__sfp    0x0000000000020724      0x118 a:/intelfpga_lite/nios2eds/bin/gnu/h-x86_64-mingw32/bin/../lib/gcc/nios2-elf/5.3.0/../../../../../H-x86_64-mingw32/nios2-elf/lib/mno-hw-mul\libc.a(lib_a-findfp.o)
                0x0000000000020724                __sfp
 .text._cleanup
                0x000000000002083c       0x18 a:/intelfpga_lite/nios2eds/bin/gnu/h-x86_64-mingw32/bin/../lib/gcc/nios2-elf/5.3.0/../../../../../H-x86_64-mingw32/nios2-elf/lib/mno-hw-mul\libc.a(lib_a-findfp.o)
                0x000000000002083c                _cleanup
 .text.__sinit  0x0000000000020854       0x10 a:/intelfpga_lite/nios2eds/bin/gnu/h-x86_64-mingw32/bin/../lib/gcc/nios2-elf/5.3.0/../../../../../H-x86_64-mingw32/nios2-elf/lib/mno-hw-mul\libc.a(lib_a-findfp.o)
                0x0000000000020854                __sinit
 .text.__sfp_lock_acquire
                0x0000000000020864        0x4 a:/intelfpga_lite/nios2eds/bin/gnu/h-x86_64-mingw32/bin/../lib/gcc/nios2-elf/5.3.0/../../../../../H-x86_64-mingw32/nios2-elf/lib/mno-hw-mul\libc.a(lib_a-findfp.o)
                0x0000000000020864                __sfp_lock_acquire
 .text.__sfp_lock_release
                0x0000000000020868        0x4 a:/intelfpga_lite/nios2eds/bin/gnu/h-x86_64-mingw32/bin/../lib/gcc/nios2-elf/5.3.0/../../../../../H-x86_64-mingw32/nios2-elf/lib/mno-hw-mul\libc.a(lib_a-findfp.o)
                0x0000000000020868                __sfp_lock_release
 .text.__sinit_lock_acquire
                0x000000000002086c        0x4 a:/intelfpga_lite/nios2eds/bin/gnu/h-x86_64-mingw32/bin/../lib/gcc/nios2-elf/5.3.0/../../../../../H-x86_64-mingw32/nios2-elf/lib/mno-hw-mul\libc.a(lib_a-findfp.o)
                0x000000000002086c                __sinit_lock_acquire
 .text.__sinit_lock_release
                0x0000000000020870        0x4 a:/intelfpga_lite/nios2eds/bin/gnu/h-x86_64-mingw32/bin/../lib/gcc/nios2-elf/5.3.0/../../../../../H-x86_64-mingw32/nios2-elf/lib/mno-hw-mul\libc.a(lib_a-findfp.o)
                0x0000000000020870                __sinit_lock_release
 .text.__fp_lock_all
                0x0000000000020874       0x18 a:/intelfpga_lite/nios2eds/bin/gnu/h-x86_64-mingw32/bin/../lib/gcc/nios2-elf/5.3.0/../../../../../H-x86_64-mingw32/nios2-elf/lib/mno-hw-mul\libc.a(lib_a-findfp.o)
                0x0000000000020874                __fp_lock_all
 .text.__fp_unlock_all
                0x000000000002088c       0x18 a:/intelfpga_lite/nios2eds/bin/gnu/h-x86_64-mingw32/bin/../lib/gcc/nios2-elf/5.3.0/../../../../../H-x86_64-mingw32/nios2-elf/lib/mno-hw-mul\libc.a(lib_a-findfp.o)
                0x000000000002088c                __fp_unlock_all
 .text          0x00000000000208a4        0x0 a:/intelfpga_lite/nios2eds/bin/gnu/h-x86_64-mingw32/bin/../lib/gcc/nios2-elf/5.3.0/../../../../../H-x86_64-mingw32/nios2-elf/lib/mno-hw-mul\libc.a(lib_a-fvwrite.o)
 .text.__sfvwrite_r
                0x00000000000208a4      0x4c8 a:/intelfpga_lite/nios2eds/bin/gnu/h-x86_64-mingw32/bin/../lib/gcc/nios2-elf/5.3.0/../../../../../H-x86_64-mingw32/nios2-elf/lib/mno-hw-mul\libc.a(lib_a-fvwrite.o)
                0x00000000000208a4                __sfvwrite_r
 .text          0x0000000000020d6c        0x0 a:/intelfpga_lite/nios2eds/bin/gnu/h-x86_64-mingw32/bin/../lib/gcc/nios2-elf/5.3.0/../../../../../H-x86_64-mingw32/nios2-elf/lib/mno-hw-mul\libc.a(lib_a-fwalk.o)
 .text._fwalk   0x0000000000020d6c       0xc4 a:/intelfpga_lite/nios2eds/bin/gnu/h-x86_64-mingw32/bin/../lib/gcc/nios2-elf/5.3.0/../../../../../H-x86_64-mingw32/nios2-elf/lib/mno-hw-mul\libc.a(lib_a-fwalk.o)
                0x0000000000020d6c                _fwalk
 .text._fwalk_reent
                0x0000000000020e30       0xc4 a:/intelfpga_lite/nios2eds/bin/gnu/h-x86_64-mingw32/bin/../lib/gcc/nios2-elf/5.3.0/../../../../../H-x86_64-mingw32/nios2-elf/lib/mno-hw-mul\libc.a(lib_a-fwalk.o)
                0x0000000000020e30                _fwalk_reent
 .text          0x0000000000020ef4        0x0 a:/intelfpga_lite/nios2eds/bin/gnu/h-x86_64-mingw32/bin/../lib/gcc/nios2-elf/5.3.0/../../../../../H-x86_64-mingw32/nios2-elf/lib/mno-hw-mul\libc.a(lib_a-impure.o)
 .text          0x0000000000020ef4        0x0 a:/intelfpga_lite/nios2eds/bin/gnu/h-x86_64-mingw32/bin/../lib/gcc/nios2-elf/5.3.0/../../../../../H-x86_64-mingw32/nios2-elf/lib/mno-hw-mul\libc.a(lib_a-mallocr.o)
 .text._malloc_r
                0x0000000000020ef4      0x80c a:/intelfpga_lite/nios2eds/bin/gnu/h-x86_64-mingw32/bin/../lib/gcc/nios2-elf/5.3.0/../../../../../H-x86_64-mingw32/nios2-elf/lib/mno-hw-mul\libc.a(lib_a-mallocr.o)
                0x0000000000020ef4                _malloc_r
 .text          0x0000000000021700        0x0 a:/intelfpga_lite/nios2eds/bin/gnu/h-x86_64-mingw32/bin/../lib/gcc/nios2-elf/5.3.0/../../../../../H-x86_64-mingw32/nios2-elf/lib/mno-hw-mul\libc.a(lib_a-memchr.o)
 .text.memchr   0x0000000000021700       0xe4 a:/intelfpga_lite/nios2eds/bin/gnu/h-x86_64-mingw32/bin/../lib/gcc/nios2-elf/5.3.0/../../../../../H-x86_64-mingw32/nios2-elf/lib/mno-hw-mul\libc.a(lib_a-memchr.o)
                0x0000000000021700                memchr
 .text          0x00000000000217e4        0x0 a:/intelfpga_lite/nios2eds/bin/gnu/h-x86_64-mingw32/bin/../lib/gcc/nios2-elf/5.3.0/../../../../../H-x86_64-mingw32/nios2-elf/lib/mno-hw-mul\libc.a(lib_a-memcpy.o)
 .text.memcpy   0x00000000000217e4      0x148 a:/intelfpga_lite/nios2eds/bin/gnu/h-x86_64-mingw32/bin/../lib/gcc/nios2-elf/5.3.0/../../../../../H-x86_64-mingw32/nios2-elf/lib/mno-hw-mul\libc.a(lib_a-memcpy.o)
                0x00000000000217e4                memcpy
 .text          0x000000000002192c        0x0 a:/intelfpga_lite/nios2eds/bin/gnu/h-x86_64-mingw32/bin/../lib/gcc/nios2-elf/5.3.0/../../../../../H-x86_64-mingw32/nios2-elf/lib/mno-hw-mul\libc.a(lib_a-memmove.o)
 .text.memmove  0x000000000002192c      0x15c a:/intelfpga_lite/nios2eds/bin/gnu/h-x86_64-mingw32/bin/../lib/gcc/nios2-elf/5.3.0/../../../../../H-x86_64-mingw32/nios2-elf/lib/mno-hw-mul\libc.a(lib_a-memmove.o)
                0x000000000002192c                memmove
 .text          0x0000000000021a88        0x0 a:/intelfpga_lite/nios2eds/bin/gnu/h-x86_64-mingw32/bin/../lib/gcc/nios2-elf/5.3.0/../../../../../H-x86_64-mingw32/nios2-elf/lib/mno-hw-mul\libc.a(lib_a-memset.o)
 .text.memset   0x0000000000021a88      0x128 a:/intelfpga_lite/nios2eds/bin/gnu/h-x86_64-mingw32/bin/../lib/gcc/nios2-elf/5.3.0/../../../../../H-x86_64-mingw32/nios2-elf/lib/mno-hw-mul\libc.a(lib_a-memset.o)
                0x0000000000021a88                memset
 .text          0x0000000000021bb0        0x0 a:/intelfpga_lite/nios2eds/bin/gnu/h-x86_64-mingw32/bin/../lib/gcc/nios2-elf/5.3.0/../../../../../H-x86_64-mingw32/nios2-elf/lib/mno-hw-mul\libc.a(lib_a-reallocr.o)
 .text._realloc_r
                0x0000000000021bb0      0x564 a:/intelfpga_lite/nios2eds/bin/gnu/h-x86_64-mingw32/bin/../lib/gcc/nios2-elf/5.3.0/../../../../../H-x86_64-mingw32/nios2-elf/lib/mno-hw-mul\libc.a(lib_a-reallocr.o)
                0x0000000000021bb0                _realloc_r
 .text          0x0000000000022114        0x0 a:/intelfpga_lite/nios2eds/bin/gnu/h-x86_64-mingw32/bin/../lib/gcc/nios2-elf/5.3.0/../../../../../H-x86_64-mingw32/nios2-elf/lib/mno-hw-mul\libc.a(lib_a-sbrkr.o)
 .text._sbrk_r  0x0000000000022114       0x54 a:/intelfpga_lite/nios2eds/bin/gnu/h-x86_64-mingw32/bin/../lib/gcc/nios2-elf/5.3.0/../../../../../H-x86_64-mingw32/nios2-elf/lib/mno-hw-mul\libc.a(lib_a-sbrkr.o)
                0x0000000000022114                _sbrk_r
 .text          0x0000000000022168        0x0 a:/intelfpga_lite/nios2eds/bin/gnu/h-x86_64-mingw32/bin/../lib/gcc/nios2-elf/5.3.0/../../../../../H-x86_64-mingw32/nios2-elf/lib/mno-hw-mul\libc.a(lib_a-stdio.o)
 .text.__sread  0x0000000000022168       0x54 a:/intelfpga_lite/nios2eds/bin/gnu/h-x86_64-mingw32/bin/../lib/gcc/nios2-elf/5.3.0/../../../../../H-x86_64-mingw32/nios2-elf/lib/mno-hw-mul\libc.a(lib_a-stdio.o)
                0x0000000000022168                __sread
 .text.__seofread
                0x00000000000221bc        0x8 a:/intelfpga_lite/nios2eds/bin/gnu/h-x86_64-mingw32/bin/../lib/gcc/nios2-elf/5.3.0/../../../../../H-x86_64-mingw32/nios2-elf/lib/mno-hw-mul\libc.a(lib_a-stdio.o)
                0x00000000000221bc                __seofread
 .text.__swrite
                0x00000000000221c4       0x7c a:/intelfpga_lite/nios2eds/bin/gnu/h-x86_64-mingw32/bin/../lib/gcc/nios2-elf/5.3.0/../../../../../H-x86_64-mingw32/nios2-elf/lib/mno-hw-mul\libc.a(lib_a-stdio.o)
                0x00000000000221c4                __swrite
 .text.__sseek  0x0000000000022240       0x5c a:/intelfpga_lite/nios2eds/bin/gnu/h-x86_64-mingw32/bin/../lib/gcc/nios2-elf/5.3.0/../../../../../H-x86_64-mingw32/nios2-elf/lib/mno-hw-mul\libc.a(lib_a-stdio.o)
                0x0000000000022240                __sseek
 .text.__sclose
                0x000000000002229c        0x8 a:/intelfpga_lite/nios2eds/bin/gnu/h-x86_64-mingw32/bin/../lib/gcc/nios2-elf/5.3.0/../../../../../H-x86_64-mingw32/nios2-elf/lib/mno-hw-mul\libc.a(lib_a-stdio.o)
                0x000000000002229c                __sclose
 .text          0x00000000000222a4        0x0 a:/intelfpga_lite/nios2eds/bin/gnu/h-x86_64-mingw32/bin/../lib/gcc/nios2-elf/5.3.0/../../../../../H-x86_64-mingw32/nios2-elf/lib/mno-hw-mul\libc.a(lib_a-writer.o)
 .text._write_r
                0x00000000000222a4       0x60 a:/intelfpga_lite/nios2eds/bin/gnu/h-x86_64-mingw32/bin/../lib/gcc/nios2-elf/5.3.0/../../../../../H-x86_64-mingw32/nios2-elf/lib/mno-hw-mul\libc.a(lib_a-writer.o)
                0x00000000000222a4                _write_r
 .text          0x0000000000022304        0x0 a:/intelfpga_lite/nios2eds/bin/gnu/h-x86_64-mingw32/bin/../lib/gcc/nios2-elf/5.3.0/../../../../../H-x86_64-mingw32/nios2-elf/lib/mno-hw-mul\libc.a(lib_a-wsetup.o)
 .text.__swsetup_r
                0x0000000000022304      0x154 a:/intelfpga_lite/nios2eds/bin/gnu/h-x86_64-mingw32/bin/../lib/gcc/nios2-elf/5.3.0/../../../../../H-x86_64-mingw32/nios2-elf/lib/mno-hw-mul\libc.a(lib_a-wsetup.o)
                0x0000000000022304                __swsetup_r
 .text          0x0000000000022458        0x0 a:/intelfpga_lite/nios2eds/bin/gnu/h-x86_64-mingw32/bin/../lib/gcc/nios2-elf/5.3.0/../../../../../H-x86_64-mingw32/nios2-elf/lib/mno-hw-mul\libc.a(closer.o)
 .text._close_r
                0x0000000000022458       0x54 a:/intelfpga_lite/nios2eds/bin/gnu/h-x86_64-mingw32/bin/../lib/gcc/nios2-elf/5.3.0/../../../../../H-x86_64-mingw32/nios2-elf/lib/mno-hw-mul\libc.a(closer.o)
                0x0000000000022458                _close_r
 .text          0x00000000000224ac        0x0 a:/intelfpga_lite/nios2eds/bin/gnu/h-x86_64-mingw32/bin/../lib/gcc/nios2-elf/5.3.0/../../../../../H-x86_64-mingw32/nios2-elf/lib/mno-hw-mul\libc.a(lib_a-fclose.o)
 .text._fclose_r
                0x00000000000224ac       0xf0 a:/intelfpga_lite/nios2eds/bin/gnu/h-x86_64-mingw32/bin/../lib/gcc/nios2-elf/5.3.0/../../../../../H-x86_64-mingw32/nios2-elf/lib/mno-hw-mul\libc.a(lib_a-fclose.o)
                0x00000000000224ac                _fclose_r
 .text.fclose   0x000000000002259c       0x14 a:/intelfpga_lite/nios2eds/bin/gnu/h-x86_64-mingw32/bin/../lib/gcc/nios2-elf/5.3.0/../../../../../H-x86_64-mingw32/nios2-elf/lib/mno-hw-mul\libc.a(lib_a-fclose.o)
                0x000000000002259c                fclose
 .text          0x00000000000225b0        0x0 a:/intelfpga_lite/nios2eds/bin/gnu/h-x86_64-mingw32/bin/../lib/gcc/nios2-elf/5.3.0/../../../../../H-x86_64-mingw32/nios2-elf/lib/mno-hw-mul\libc.a(lib_a-fflush.o)
 .text.__sflush_r
                0x00000000000225b0      0x21c a:/intelfpga_lite/nios2eds/bin/gnu/h-x86_64-mingw32/bin/../lib/gcc/nios2-elf/5.3.0/../../../../../H-x86_64-mingw32/nios2-elf/lib/mno-hw-mul\libc.a(lib_a-fflush.o)
                0x00000000000225b0                __sflush_r
 .text._fflush_r
                0x00000000000227cc       0x5c a:/intelfpga_lite/nios2eds/bin/gnu/h-x86_64-mingw32/bin/../lib/gcc/nios2-elf/5.3.0/../../../../../H-x86_64-mingw32/nios2-elf/lib/mno-hw-mul\libc.a(lib_a-fflush.o)
                0x00000000000227cc                _fflush_r
 .text.fflush   0x0000000000022828       0x30 a:/intelfpga_lite/nios2eds/bin/gnu/h-x86_64-mingw32/bin/../lib/gcc/nios2-elf/5.3.0/../../../../../H-x86_64-mingw32/nios2-elf/lib/mno-hw-mul\libc.a(lib_a-fflush.o)
                0x0000000000022828                fflush
 .text          0x0000000000022858        0x0 a:/intelfpga_lite/nios2eds/bin/gnu/h-x86_64-mingw32/bin/../lib/gcc/nios2-elf/5.3.0/../../../../../H-x86_64-mingw32/nios2-elf/lib/mno-hw-mul\libc.a(lib_a-freer.o)
 .text._malloc_trim_r
                0x0000000000022858      0x124 a:/intelfpga_lite/nios2eds/bin/gnu/h-x86_64-mingw32/bin/../lib/gcc/nios2-elf/5.3.0/../../../../../H-x86_64-mingw32/nios2-elf/lib/mno-hw-mul\libc.a(lib_a-freer.o)
                0x0000000000022858                _malloc_trim_r
 .text._free_r  0x000000000002297c      0x310 a:/intelfpga_lite/nios2eds/bin/gnu/h-x86_64-mingw32/bin/../lib/gcc/nios2-elf/5.3.0/../../../../../H-x86_64-mingw32/nios2-elf/lib/mno-hw-mul\libc.a(lib_a-freer.o)
                0x000000000002297c                _free_r
 .text          0x0000000000022c8c        0x0 a:/intelfpga_lite/nios2eds/bin/gnu/h-x86_64-mingw32/bin/../lib/gcc/nios2-elf/5.3.0/../../../../../H-x86_64-mingw32/nios2-elf/lib/mno-hw-mul\libc.a(lib_a-int_errno.o)
 .text          0x0000000000022c8c        0x0 a:/intelfpga_lite/nios2eds/bin/gnu/h-x86_64-mingw32/bin/../lib/gcc/nios2-elf/5.3.0/../../../../../H-x86_64-mingw32/nios2-elf/lib/mno-hw-mul\libc.a(lib_a-lseekr.o)
 .text._lseek_r
                0x0000000000022c8c       0x60 a:/intelfpga_lite/nios2eds/bin/gnu/h-x86_64-mingw32/bin/../lib/gcc/nios2-elf/5.3.0/../../../../../H-x86_64-mingw32/nios2-elf/lib/mno-hw-mul\libc.a(lib_a-lseekr.o)
                0x0000000000022c8c                _lseek_r
 .text          0x0000000000022cec        0x0 a:/intelfpga_lite/nios2eds/bin/gnu/h-x86_64-mingw32/bin/../lib/gcc/nios2-elf/5.3.0/../../../../../H-x86_64-mingw32/nios2-elf/lib/mno-hw-mul\libc.a(lib_a-makebuf.o)
 .text.__smakebuf_r
                0x0000000000022cec      0x1bc a:/intelfpga_lite/nios2eds/bin/gnu/h-x86_64-mingw32/bin/../lib/gcc/nios2-elf/5.3.0/../../../../../H-x86_64-mingw32/nios2-elf/lib/mno-hw-mul\libc.a(lib_a-makebuf.o)
                0x0000000000022cec                __smakebuf_r
 .text          0x0000000000022ea8        0x0 a:/intelfpga_lite/nios2eds/bin/gnu/h-x86_64-mingw32/bin/../lib/gcc/nios2-elf/5.3.0/../../../../../H-x86_64-mingw32/nios2-elf/lib/mno-hw-mul\libc.a(lib_a-readr.o)
 .text._read_r  0x0000000000022ea8       0x60 a:/intelfpga_lite/nios2eds/bin/gnu/h-x86_64-mingw32/bin/../lib/gcc/nios2-elf/5.3.0/../../../../../H-x86_64-mingw32/nios2-elf/lib/mno-hw-mul\libc.a(lib_a-readr.o)
                0x0000000000022ea8                _read_r
 .text          0x0000000000022f08        0x0 a:/intelfpga_lite/nios2eds/bin/gnu/h-x86_64-mingw32/bin/../lib/gcc/nios2-elf/5.3.0/../../../../../H-x86_64-mingw32/nios2-elf/lib/mno-hw-mul\libc.a(lib_a-fstatr.o)
 .text._fstat_r
                0x0000000000022f08       0x5c a:/intelfpga_lite/nios2eds/bin/gnu/h-x86_64-mingw32/bin/../lib/gcc/nios2-elf/5.3.0/../../../../../H-x86_64-mingw32/nios2-elf/lib/mno-hw-mul\libc.a(lib_a-fstatr.o)
                0x0000000000022f08                _fstat_r
 .text          0x0000000000022f64        0x0 a:/intelfpga_lite/nios2eds/bin/gnu/h-x86_64-mingw32/bin/../lib/gcc/nios2-elf/5.3.0/../../../../../H-x86_64-mingw32/nios2-elf/lib/mno-hw-mul\libc.a(lib_a-isattyr.o)
 .text._isatty_r
                0x0000000000022f64       0x54 a:/intelfpga_lite/nios2eds/bin/gnu/h-x86_64-mingw32/bin/../lib/gcc/nios2-elf/5.3.0/../../../../../H-x86_64-mingw32/nios2-elf/lib/mno-hw-mul\libc.a(lib_a-isattyr.o)
                0x0000000000022f64                _isatty_r
 .text          0x0000000000022fb8      0x1b4 a:/intelfpga_lite/nios2eds/bin/gnu/h-x86_64-mingw32/bin/../lib/gcc/nios2-elf/5.3.0/mno-hw-mul\libgcc.a(lib2-divmod.o)
                0x0000000000022fb8                __divsi3
                0x000000000002303c                __modsi3
                0x00000000000230b0                __udivsi3
                0x0000000000023114                __umodsi3
 .text          0x000000000002316c       0x28 a:/intelfpga_lite/nios2eds/bin/gnu/h-x86_64-mingw32/bin/../lib/gcc/nios2-elf/5.3.0/mno-hw-mul\libgcc.a(lib2-mul.o)
                0x000000000002316c                __mulsi3
 .text          0x0000000000023194      0x114 ../lab4_bsp/\libucosii_bsp.a(alt_close.o)
                0x00000000000231d0                close
 .text          0x00000000000232a8       0x2c ../lab4_bsp/\libucosii_bsp.a(alt_dev.o)
 .text          0x00000000000232d4        0x0 ../lab4_bsp/\libucosii_bsp.a(alt_errno.o)
 .text          0x00000000000232d4       0xf4 ../lab4_bsp/\libucosii_bsp.a(alt_fstat.o)
                0x0000000000023310                fstat
 .text          0x00000000000233c8       0xe8 ../lab4_bsp/\libucosii_bsp.a(alt_isatty.o)
                0x0000000000023404                isatty
 .text          0x00000000000234b0       0xec ../lab4_bsp/\libucosii_bsp.a(alt_load.o)
                0x0000000000023518                alt_load
 .text          0x000000000002359c      0x118 ../lab4_bsp/\libucosii_bsp.a(alt_lseek.o)
                0x00000000000235d8                lseek
 .text          0x00000000000236b4       0xbc ../lab4_bsp/\libucosii_bsp.a(alt_main.o)
                0x00000000000236b4                alt_main
 .text          0x0000000000023770      0x140 ../lab4_bsp/\libucosii_bsp.a(alt_read.o)
                0x00000000000237ac                read
 .text          0x00000000000238b0       0x84 ../lab4_bsp/\libucosii_bsp.a(alt_release_fd.o)
                0x00000000000238b0                alt_release_fd
 .text          0x0000000000023934       0xb0 ../lab4_bsp/\libucosii_bsp.a(alt_sbrk.o)
                0x0000000000023934                sbrk
 .text          0x00000000000239e4      0x13c ../lab4_bsp/\libucosii_bsp.a(alt_write.o)
                0x0000000000023a20                write
 .text          0x0000000000023b20      0x124 ../lab4_bsp/\libucosii_bsp.a(alt_env_lock.o)
                0x0000000000023b20                __env_lock
                0x0000000000023be4                __env_unlock
 .text          0x0000000000023c44      0x1ec ../lab4_bsp/\libucosii_bsp.a(alt_malloc_lock.o)
                0x0000000000023c44                __malloc_lock
                0x0000000000023d64                __malloc_unlock
 .text          0x0000000000023e30     0x2014 ../lab4_bsp/\libucosii_bsp.a(os_core.o)
                0x0000000000023e30                OSEventNameGet
                0x0000000000023f50                OSEventNameSet
                0x0000000000024090                OSEventPendMulti
                0x00000000000246a0                OSInit
                0x00000000000246f8                OSIntEnter
                0x0000000000024744                OSIntExit
                0x000000000002483c                OSSchedLock
                0x00000000000248c8                OSSchedUnlock
                0x00000000000249a4                OSStart
                0x0000000000024a14                OSStatInit
                0x0000000000024ac4                OSTimeTick
                0x0000000000024ce4                OSVersion
                0x0000000000024d04                OS_Dummy
                0x0000000000024d24                OS_EventTaskRdy
                0x0000000000024ebc                OS_EventTaskWait
                0x0000000000024fcc                OS_EventTaskWaitMulti
                0x000000000002511c                OS_EventTaskRemove
                0x00000000000251d4                OS_EventTaskRemoveMulti
                0x00000000000252d4                OS_EventWaitListInit
                0x00000000000256b4                OS_MemClr
                0x0000000000025708                OS_MemCopy
                0x0000000000025770                OS_Sched
                0x00000000000258b4                OS_StrCopy
                0x0000000000025928                OS_StrLen
                0x000000000002597c                OS_TaskIdle
                0x00000000000259d8                OS_TaskStat
                0x0000000000025aa4                OS_TaskStatStkChk
                0x0000000000025b70                OS_TCBInit
 .text          0x0000000000025e44      0x190 ../lab4_bsp/\libucosii_bsp.a(os_dbg.o)
                0x0000000000025e44                OSDebugInit
 .text          0x0000000000025fd4     0x1714 ../lab4_bsp/\libucosii_bsp.a(os_flag.o)
                0x0000000000025fd4                OSFlagAccept
                0x00000000000262dc                OSFlagCreate
                0x00000000000263e4                OSFlagDel
                0x000000000002662c                OSFlagNameGet
                0x0000000000026754                OSFlagNameSet
                0x00000000000268a0                OSFlagPend
                0x0000000000026e58                OSFlagPendGetFlagsRdy
                0x0000000000026eb8                OSFlagPost
                0x000000000002724c                OSFlagQuery
                0x0000000000027470                OS_FlagInit
                0x0000000000027644                OS_FlagUnlink
 .text          0x00000000000276e8      0x760 ../lab4_bsp/\libucosii_bsp.a(os_mem.o)
                0x00000000000276e8                OSMemCreate
                0x00000000000278bc                OSMemGet
                0x00000000000279ac                OSMemNameGet
                0x0000000000027a9c                OSMemNameSet
                0x0000000000027bb0                OSMemPut
                0x0000000000027c88                OSMemQuery
                0x0000000000027d70                OS_MemInit
 .text          0x0000000000027e48     0x1104 ../lab4_bsp/\libucosii_bsp.a(os_q.o)
                0x0000000000027e48                OSQAccept
                0x0000000000027f88                OSQCreate
                0x0000000000028134                OSQDel
                0x00000000000283b4                OSQFlush
                0x000000000002846c                OSQPend
                0x00000000000286f8                OSQPendAbort
                0x0000000000028864                OSQPost
                0x00000000000289cc                OSQPostFront
                0x0000000000028b3c                OSQPostOpt
                0x0000000000028d48                OSQQuery
                0x0000000000028ea4                OS_QInit
 .text          0x0000000000028f4c      0xa60 ../lab4_bsp/\libucosii_bsp.a(os_sem.o)
                0x0000000000028f4c                OSSemAccept
                0x0000000000028ffc                OSSemCreate
                0x00000000000290d4                OSSemDel
                0x0000000000029314                OSSemPend
                0x0000000000029520                OSSemPendAbort
                0x000000000002968c                OSSemPost
                0x000000000002979c                OSSemQuery
                0x00000000000298ac                OSSemSet
 .text          0x00000000000299ac     0x176c ../lab4_bsp/\libucosii_bsp.a(os_task.o)
                0x00000000000299ac                OSTaskChangePrio
                0x0000000000029e9c                OSTaskCreate
                0x000000000002a048                OSTaskCreateExt
                0x000000000002a22c                OSTaskDel
                0x000000000002a570                OSTaskDelReq
                0x000000000002a6c0                OSTaskNameGet
                0x000000000002a858                OSTaskNameSet
                0x000000000002aa0c                OSTaskResume
                0x000000000002abe0                OSTaskStkChk
                0x000000000002ada0                OSTaskSuspend
                0x000000000002af84                OSTaskQuery
                0x000000000002b0a8                OS_TaskStkClr
 .text          0x000000000002b118      0x510 ../lab4_bsp/\libucosii_bsp.a(os_time.o)
                0x000000000002b118                OSTimeDly
                0x000000000002b21c                OSTimeDlyHMSM
                0x000000000002b398                OSTimeDlyResume
                0x000000000002b56c                OSTimeGet
                0x000000000002b5c8                OSTimeSet
 .text          0x000000000002b628       0xcc ../lab4_bsp/\libucosii_bsp.a(alt_sys_init.o)
                0x000000000002b65c                alt_irq_init
                0x000000000002b694                alt_sys_init
 .text          0x000000000002b6f4      0x164 ../lab4_bsp/\libucosii_bsp.a(altera_avalon_jtag_uart_fd.o)
                0x000000000002b6f4                altera_avalon_jtag_uart_read_fd
                0x000000000002b754                altera_avalon_jtag_uart_write_fd
                0x000000000002b7b4                altera_avalon_jtag_uart_close_fd
                0x000000000002b804                altera_avalon_jtag_uart_ioctl_fd
 .text          0x000000000002b858      0x558 ../lab4_bsp/\libucosii_bsp.a(altera_avalon_jtag_uart_init.o)
                0x000000000002b858                altera_avalon_jtag_uart_init
                0x000000000002bd48                altera_avalon_jtag_uart_close
 .text          0x000000000002bdb0       0xf0 ../lab4_bsp/\libucosii_bsp.a(altera_avalon_jtag_uart_ioctl.o)
                0x000000000002bdb0                altera_avalon_jtag_uart_ioctl
 .text          0x000000000002bea0      0x2bc ../lab4_bsp/\libucosii_bsp.a(altera_avalon_jtag_uart_read.o)
                0x000000000002bea0                altera_avalon_jtag_uart_read
 .text          0x000000000002c15c      0x2c4 ../lab4_bsp/\libucosii_bsp.a(altera_avalon_jtag_uart_write.o)
                0x000000000002c15c                altera_avalon_jtag_uart_write
 .text          0x000000000002c420       0xf4 ../lab4_bsp/\libucosii_bsp.a(altera_avalon_timer_sc.o)
                0x000000000002c498                alt_avalon_timer_sc_init
 .text          0x000000000002c514      0x12c ../lab4_bsp/\libucosii_bsp.a(alt_alarm_start.o)
                0x000000000002c514                alt_alarm_start
 .text          0x000000000002c640       0x20 ../lab4_bsp/\libucosii_bsp.a(alt_dcache_flush_all.o)
                0x000000000002c640                alt_dcache_flush_all
 .text          0x000000000002c660       0xe0 ../lab4_bsp/\libucosii_bsp.a(alt_dev_llist_insert.o)
                0x000000000002c69c                alt_dev_llist_insert
 .text          0x000000000002c740       0x60 ../lab4_bsp/\libucosii_bsp.a(alt_do_ctors.o)
                0x000000000002c740                _do_ctors
 .text          0x000000000002c7a0       0x60 ../lab4_bsp/\libucosii_bsp.a(alt_do_dtors.o)
                0x000000000002c7a0                _do_dtors
 .text          0x000000000002c800       0x20 ../lab4_bsp/\libucosii_bsp.a(alt_icache_flush_all.o)
                0x000000000002c800                alt_icache_flush_all
 .text          0x000000000002c820      0x1b0 ../lab4_bsp/\libucosii_bsp.a(alt_iic.o)
                0x000000000002c820                alt_ic_isr_register
                0x000000000002c870                alt_ic_irq_enable
                0x000000000002c8f8                alt_ic_irq_disable
                0x000000000002c984                alt_ic_irq_enabled
 .text          0x000000000002c9d0       0xf0 ../lab4_bsp/\libucosii_bsp.a(alt_iic_isr_register.o)
                0x000000000002c9d0                alt_iic_isr_register
 .text          0x000000000002cac0      0x160 ../lab4_bsp/\libucosii_bsp.a(alt_io_redirect.o)
                0x000000000002cba4                alt_io_redirect
 .text          0x000000000002cc20        0x0 ../lab4_bsp/\libucosii_bsp.a(alt_irq_entry.o)
 .text          0x000000000002cc20        0x0 ../lab4_bsp/\libucosii_bsp.a(alt_irq_handler.o)
 .text          0x000000000002cc20        0x0 ../lab4_bsp/\libucosii_bsp.a(alt_irq_vars.o)
 .text          0x000000000002cc20      0x284 ../lab4_bsp/\libucosii_bsp.a(alt_open.o)
                0x000000000002cd48                open
 .text          0x000000000002cea4      0x1a4 ../lab4_bsp/\libucosii_bsp.a(alt_tick.o)
                0x000000000002cea4                alt_alarm_stop
                0x000000000002cf40                alt_tick
 .text          0x000000000002d048       0x24 ../lab4_bsp/\libucosii_bsp.a(altera_nios2_gen2_irq.o)
                0x000000000002d048                altera_nios2_gen2_irq_init
 .text          0x000000000002d06c       0xd0 ../lab4_bsp/\libucosii_bsp.a(os_cpu_a.o)
                0x000000000002d06c                OSCtxSw
                0x000000000002d06c                OSIntCtxSw
                0x000000000002d0f8                OSStartHighRdy
                0x000000000002d118                OSStartTsk
 .text          0x000000000002d13c      0x288 ../lab4_bsp/\libucosii_bsp.a(os_cpu_c.o)
                0x000000000002d13c                OSTaskStkInit
                0x000000000002d298                OSTaskCreateHook
                0x000000000002d2bc                OSTaskDelHook
                0x000000000002d2e0                OSTaskSwHook
                0x000000000002d300                OSTaskStatHook
                0x000000000002d320                OSTimeTickHook
                0x000000000002d340                OSInitHookBegin
                0x000000000002d360                OSInitHookEnd
                0x000000000002d380                OSTaskIdleHook
                0x000000000002d3a0                OSTCBInitHook
 .text          0x000000000002d3c4        0x0 ../lab4_bsp/\libucosii_bsp.a(alt_exception_entry.o)
 .text          0x000000000002d3c4       0x90 ../lab4_bsp/\libucosii_bsp.a(alt_find_dev.o)
                0x000000000002d3c4                alt_find_dev
 .text          0x000000000002d454      0x108 ../lab4_bsp/\libucosii_bsp.a(alt_find_file.o)
                0x000000000002d454                alt_find_file
 .text          0x000000000002d55c       0xf4 ../lab4_bsp/\libucosii_bsp.a(alt_get_fd.o)
                0x000000000002d55c                alt_get_fd
 .text          0x000000000002d650       0x9c ../lab4_bsp/\libucosii_bsp.a(alt_instruction_exception_entry.o)
                0x000000000002d650                alt_exception_cause_generated_bad_addr
 .text          0x000000000002d6ec        0x0 a:/intelfpga_lite/nios2eds/bin/gnu/h-x86_64-mingw32/bin/../lib/gcc/nios2-elf/5.3.0/../../../../../H-x86_64-mingw32/nios2-elf/lib/mno-hw-mul\libc.a(lib_a-atexit.o)
 .text.atexit   0x000000000002d6ec       0x14 a:/intelfpga_lite/nios2eds/bin/gnu/h-x86_64-mingw32/bin/../lib/gcc/nios2-elf/5.3.0/../../../../../H-x86_64-mingw32/nios2-elf/lib/mno-hw-mul\libc.a(lib_a-atexit.o)
                0x000000000002d6ec                atexit
 .text          0x000000000002d700        0x0 a:/intelfpga_lite/nios2eds/bin/gnu/h-x86_64-mingw32/bin/../lib/gcc/nios2-elf/5.3.0/../../../../../H-x86_64-mingw32/nios2-elf/lib/mno-hw-mul\libc.a(lib_a-exit.o)
 .text.exit     0x000000000002d700       0x38 a:/intelfpga_lite/nios2eds/bin/gnu/h-x86_64-mingw32/bin/../lib/gcc/nios2-elf/5.3.0/../../../../../H-x86_64-mingw32/nios2-elf/lib/mno-hw-mul\libc.a(lib_a-exit.o)
                0x000000000002d700                exit
 .text          0x000000000002d738        0x0 a:/intelfpga_lite/nios2eds/bin/gnu/h-x86_64-mingw32/bin/../lib/gcc/nios2-elf/5.3.0/../../../../../H-x86_64-mingw32/nios2-elf/lib/mno-hw-mul\libc.a(lib_a-memcmp.o)
 .text.memcmp   0x000000000002d738       0x7c a:/intelfpga_lite/nios2eds/bin/gnu/h-x86_64-mingw32/bin/../lib/gcc/nios2-elf/5.3.0/../../../../../H-x86_64-mingw32/nios2-elf/lib/mno-hw-mul\libc.a(lib_a-memcmp.o)
                0x000000000002d738                memcmp
 .text          0x000000000002d7b4        0x0 a:/intelfpga_lite/nios2eds/bin/gnu/h-x86_64-mingw32/bin/../lib/gcc/nios2-elf/5.3.0/../../../../../H-x86_64-mingw32/nios2-elf/lib/mno-hw-mul\libc.a(lib_a-__atexit.o)
 .text.__register_exitproc
                0x000000000002d7b4      0x118 a:/intelfpga_lite/nios2eds/bin/gnu/h-x86_64-mingw32/bin/../lib/gcc/nios2-elf/5.3.0/../../../../../H-x86_64-mingw32/nios2-elf/lib/mno-hw-mul\libc.a(lib_a-__atexit.o)
                0x000000000002d7b4                __register_exitproc
 .text          0x000000000002d8cc        0x0 a:/intelfpga_lite/nios2eds/bin/gnu/h-x86_64-mingw32/bin/../lib/gcc/nios2-elf/5.3.0/../../../../../H-x86_64-mingw32/nios2-elf/lib/mno-hw-mul\libc.a(lib_a-__call_atexit.o)
 .text.__call_exitprocs
                0x000000000002d8cc      0x180 a:/intelfpga_lite/nios2eds/bin/gnu/h-x86_64-mingw32/bin/../lib/gcc/nios2-elf/5.3.0/../../../../../H-x86_64-mingw32/nios2-elf/lib/mno-hw-mul\libc.a(lib_a-__call_atexit.o)
                0x000000000002d8cc                __call_exitprocs
 .text          0x000000000002da4c       0x34 ../lab4_bsp/\libucosii_bsp.a(alt_exit.o)
                0x000000000002da4c                _exit
 *(.gnu.warning.*)
 *(.fini)
                [!provide]                        PROVIDE (__etext, ABSOLUTE (.))
                [!provide]                        PROVIDE (_etext, ABSOLUTE (.))
                [!provide]                        PROVIDE (etext, ABSOLUTE (.))
 *(.eh_frame_hdr)
                0x000000000002da80                . = ALIGN (0x4)
                [!provide]                        PROVIDE (__preinit_array_start, ABSOLUTE (.))
 *(.preinit_array)
                [!provide]                        PROVIDE (__preinit_array_end, ABSOLUTE (.))
                [!provide]                        PROVIDE (__init_array_start, ABSOLUTE (.))
 *(.init_array)
                [!provide]                        PROVIDE (__init_array_end, ABSOLUTE (.))
                [!provide]                        PROVIDE (__fini_array_start, ABSOLUTE (.))
 *(.fini_array)
                [!provide]                        PROVIDE (__fini_array_end, ABSOLUTE (.))
 *(.eh_frame)
 *(.gcc_except_table .gcc_except_table.*)
 *(.dynamic)
                0x000000000002da80                PROVIDE (__CTOR_LIST__, ABSOLUTE (.))
 *(.ctors)
 *(SORT(.ctors.*))
                0x000000000002da80                PROVIDE (__CTOR_END__, ABSOLUTE (.))
                0x000000000002da80                PROVIDE (__DTOR_LIST__, ABSOLUTE (.))
 *(.dtors)
 *(SORT(.dtors.*))
                0x000000000002da80                PROVIDE (__DTOR_END__, ABSOLUTE (.))
 *(.jcr)
                0x000000000002da80                . = ALIGN (0x4)

.rodata         0x000000000002da80      0x180
                0x000000000002da80                PROVIDE (__ram_rodata_start, ABSOLUTE (.))
                0x000000000002da80                . = ALIGN (0x4)
 *(.rodata .rodata.* .gnu.linkonce.r.*)
 .rodata        0x000000000002da80       0x25 obj/default/hello_ucosii.o
 *fill*         0x000000000002daa5        0x3 
 .rodata.str1.4
                0x000000000002daa8        0x2 a:/intelfpga_lite/nios2eds/bin/gnu/h-x86_64-mingw32/bin/../lib/gcc/nios2-elf/5.3.0/../../../../../H-x86_64-mingw32/nios2-elf/lib/mno-hw-mul\libc.a(lib_a-puts.o)
 *fill*         0x000000000002daaa        0x2 
 .rodata.str1.4
                0x000000000002daac        0x4 a:/intelfpga_lite/nios2eds/bin/gnu/h-x86_64-mingw32/bin/../lib/gcc/nios2-elf/5.3.0/../../../../../H-x86_64-mingw32/nios2-elf/lib/mno-hw-mul\libc.a(lib_a-impure.o)
                                          0x2 (size before relaxing)
 .rodata        0x000000000002dab0        0xa ../lab4_bsp/\libucosii_bsp.a(alt_dev.o)
 *fill*         0x000000000002daba        0x2 
 .rodata        0x000000000002dabc        0xf ../lab4_bsp/\libucosii_bsp.a(alt_main.o)
 *fill*         0x000000000002dacb        0x1 
 .rodata        0x000000000002dacc      0x11e ../lab4_bsp/\libucosii_bsp.a(os_core.o)
                0x000000000002dacc                OSUnMapTbl
 *fill*         0x000000000002dbea        0x2 
 .rodata        0x000000000002dbec        0xf ../lab4_bsp/\libucosii_bsp.a(alt_sys_init.o)
 *fill*         0x000000000002dbfb        0x1 
 .rodata        0x000000000002dbfc        0x2 ../lab4_bsp/\libucosii_bsp.a(os_cpu_c.o)
 *(.rodata1)
                0x000000000002dc00                . = ALIGN (0x4)
 *fill*         0x000000000002dbfe        0x2 
                0x000000000002dc00                PROVIDE (__ram_rodata_end, ABSOLUTE (.))
                0x000000000002da80                PROVIDE (__flash_rodata_start, LOADADDR (.rodata))

.rwdata         0x000000000002dc00     0x1af4 load address 0x000000000002f6f4
                0x000000000002dc00                PROVIDE (__ram_rwdata_start, ABSOLUTE (.))
                0x000000000002dc00                . = ALIGN (0x4)
 *(.got.plt)
 *(.got)
 *(.data1)
 *(.data .data.* .gnu.linkonce.d.*)
 .data          0x000000000002dc00        0x0 ../lab4_bsp//obj/HAL/src/crt0.o
 .data          0x000000000002dc00        0x0 obj/default/hello_ucosii.o
 .data          0x000000000002dc00        0x0 a:/intelfpga_lite/nios2eds/bin/gnu/h-x86_64-mingw32/bin/../lib/gcc/nios2-elf/5.3.0/../../../../../H-x86_64-mingw32/nios2-elf/lib/mno-hw-mul\libc.a(lib_a-puts.o)
 .data          0x000000000002dc00        0x0 a:/intelfpga_lite/nios2eds/bin/gnu/h-x86_64-mingw32/bin/../lib/gcc/nios2-elf/5.3.0/../../../../../H-x86_64-mingw32/nios2-elf/lib/mno-hw-mul\libc.a(lib_a-strlen.o)
 .data          0x000000000002dc00        0x0 a:/intelfpga_lite/nios2eds/bin/gnu/h-x86_64-mingw32/bin/../lib/gcc/nios2-elf/5.3.0/../../../../../H-x86_64-mingw32/nios2-elf/lib/mno-hw-mul\libc.a(lib_a-findfp.o)
 .data          0x000000000002dc00        0x0 a:/intelfpga_lite/nios2eds/bin/gnu/h-x86_64-mingw32/bin/../lib/gcc/nios2-elf/5.3.0/../../../../../H-x86_64-mingw32/nios2-elf/lib/mno-hw-mul\libc.a(lib_a-fvwrite.o)
 .data          0x000000000002dc00        0x0 a:/intelfpga_lite/nios2eds/bin/gnu/h-x86_64-mingw32/bin/../lib/gcc/nios2-elf/5.3.0/../../../../../H-x86_64-mingw32/nios2-elf/lib/mno-hw-mul\libc.a(lib_a-fwalk.o)
 .data          0x000000000002dc00        0x0 a:/intelfpga_lite/nios2eds/bin/gnu/h-x86_64-mingw32/bin/../lib/gcc/nios2-elf/5.3.0/../../../../../H-x86_64-mingw32/nios2-elf/lib/mno-hw-mul\libc.a(lib_a-impure.o)
 .data.impure_data
                0x000000000002dc00      0x424 a:/intelfpga_lite/nios2eds/bin/gnu/h-x86_64-mingw32/bin/../lib/gcc/nios2-elf/5.3.0/../../../../../H-x86_64-mingw32/nios2-elf/lib/mno-hw-mul\libc.a(lib_a-impure.o)
 .data          0x000000000002e024        0x0 a:/intelfpga_lite/nios2eds/bin/gnu/h-x86_64-mingw32/bin/../lib/gcc/nios2-elf/5.3.0/../../../../../H-x86_64-mingw32/nios2-elf/lib/mno-hw-mul\libc.a(lib_a-mallocr.o)
 .data.__malloc_av_
                0x000000000002e024      0x408 a:/intelfpga_lite/nios2eds/bin/gnu/h-x86_64-mingw32/bin/../lib/gcc/nios2-elf/5.3.0/../../../../../H-x86_64-mingw32/nios2-elf/lib/mno-hw-mul\libc.a(lib_a-mallocr.o)
                0x000000000002e024                __malloc_av_
 .data          0x000000000002e42c        0x0 a:/intelfpga_lite/nios2eds/bin/gnu/h-x86_64-mingw32/bin/../lib/gcc/nios2-elf/5.3.0/../../../../../H-x86_64-mingw32/nios2-elf/lib/mno-hw-mul\libc.a(lib_a-memchr.o)
 .data          0x000000000002e42c        0x0 a:/intelfpga_lite/nios2eds/bin/gnu/h-x86_64-mingw32/bin/../lib/gcc/nios2-elf/5.3.0/../../../../../H-x86_64-mingw32/nios2-elf/lib/mno-hw-mul\libc.a(lib_a-memcpy.o)
 .data          0x000000000002e42c        0x0 a:/intelfpga_lite/nios2eds/bin/gnu/h-x86_64-mingw32/bin/../lib/gcc/nios2-elf/5.3.0/../../../../../H-x86_64-mingw32/nios2-elf/lib/mno-hw-mul\libc.a(lib_a-memmove.o)
 .data          0x000000000002e42c        0x0 a:/intelfpga_lite/nios2eds/bin/gnu/h-x86_64-mingw32/bin/../lib/gcc/nios2-elf/5.3.0/../../../../../H-x86_64-mingw32/nios2-elf/lib/mno-hw-mul\libc.a(lib_a-memset.o)
 .data          0x000000000002e42c        0x0 a:/intelfpga_lite/nios2eds/bin/gnu/h-x86_64-mingw32/bin/../lib/gcc/nios2-elf/5.3.0/../../../../../H-x86_64-mingw32/nios2-elf/lib/mno-hw-mul\libc.a(lib_a-reallocr.o)
 .data          0x000000000002e42c        0x0 a:/intelfpga_lite/nios2eds/bin/gnu/h-x86_64-mingw32/bin/../lib/gcc/nios2-elf/5.3.0/../../../../../H-x86_64-mingw32/nios2-elf/lib/mno-hw-mul\libc.a(lib_a-sbrkr.o)
 .data          0x000000000002e42c        0x0 a:/intelfpga_lite/nios2eds/bin/gnu/h-x86_64-mingw32/bin/../lib/gcc/nios2-elf/5.3.0/../../../../../H-x86_64-mingw32/nios2-elf/lib/mno-hw-mul\libc.a(lib_a-stdio.o)
 .data          0x000000000002e42c        0x0 a:/intelfpga_lite/nios2eds/bin/gnu/h-x86_64-mingw32/bin/../lib/gcc/nios2-elf/5.3.0/../../../../../H-x86_64-mingw32/nios2-elf/lib/mno-hw-mul\libc.a(lib_a-writer.o)
 .data          0x000000000002e42c        0x0 a:/intelfpga_lite/nios2eds/bin/gnu/h-x86_64-mingw32/bin/../lib/gcc/nios2-elf/5.3.0/../../../../../H-x86_64-mingw32/nios2-elf/lib/mno-hw-mul\libc.a(lib_a-wsetup.o)
 .data          0x000000000002e42c        0x0 a:/intelfpga_lite/nios2eds/bin/gnu/h-x86_64-mingw32/bin/../lib/gcc/nios2-elf/5.3.0/../../../../../H-x86_64-mingw32/nios2-elf/lib/mno-hw-mul\libc.a(closer.o)
 .data          0x000000000002e42c        0x0 a:/intelfpga_lite/nios2eds/bin/gnu/h-x86_64-mingw32/bin/../lib/gcc/nios2-elf/5.3.0/../../../../../H-x86_64-mingw32/nios2-elf/lib/mno-hw-mul\libc.a(lib_a-fclose.o)
 .data          0x000000000002e42c        0x0 a:/intelfpga_lite/nios2eds/bin/gnu/h-x86_64-mingw32/bin/../lib/gcc/nios2-elf/5.3.0/../../../../../H-x86_64-mingw32/nios2-elf/lib/mno-hw-mul\libc.a(lib_a-fflush.o)
 .data          0x000000000002e42c        0x0 a:/intelfpga_lite/nios2eds/bin/gnu/h-x86_64-mingw32/bin/../lib/gcc/nios2-elf/5.3.0/../../../../../H-x86_64-mingw32/nios2-elf/lib/mno-hw-mul\libc.a(lib_a-freer.o)
 .data          0x000000000002e42c        0x0 a:/intelfpga_lite/nios2eds/bin/gnu/h-x86_64-mingw32/bin/../lib/gcc/nios2-elf/5.3.0/../../../../../H-x86_64-mingw32/nios2-elf/lib/mno-hw-mul\libc.a(lib_a-int_errno.o)
 .data          0x000000000002e42c        0x0 a:/intelfpga_lite/nios2eds/bin/gnu/h-x86_64-mingw32/bin/../lib/gcc/nios2-elf/5.3.0/../../../../../H-x86_64-mingw32/nios2-elf/lib/mno-hw-mul\libc.a(lib_a-lseekr.o)
 .data          0x000000000002e42c        0x0 a:/intelfpga_lite/nios2eds/bin/gnu/h-x86_64-mingw32/bin/../lib/gcc/nios2-elf/5.3.0/../../../../../H-x86_64-mingw32/nios2-elf/lib/mno-hw-mul\libc.a(lib_a-makebuf.o)
 .data          0x000000000002e42c        0x0 a:/intelfpga_lite/nios2eds/bin/gnu/h-x86_64-mingw32/bin/../lib/gcc/nios2-elf/5.3.0/../../../../../H-x86_64-mingw32/nios2-elf/lib/mno-hw-mul\libc.a(lib_a-readr.o)
 .data          0x000000000002e42c        0x0 a:/intelfpga_lite/nios2eds/bin/gnu/h-x86_64-mingw32/bin/../lib/gcc/nios2-elf/5.3.0/../../../../../H-x86_64-mingw32/nios2-elf/lib/mno-hw-mul\libc.a(lib_a-fstatr.o)
 .data          0x000000000002e42c        0x0 a:/intelfpga_lite/nios2eds/bin/gnu/h-x86_64-mingw32/bin/../lib/gcc/nios2-elf/5.3.0/../../../../../H-x86_64-mingw32/nios2-elf/lib/mno-hw-mul\libc.a(lib_a-isattyr.o)
 .data          0x000000000002e42c        0x0 a:/intelfpga_lite/nios2eds/bin/gnu/h-x86_64-mingw32/bin/../lib/gcc/nios2-elf/5.3.0/mno-hw-mul\libgcc.a(lib2-divmod.o)
 .data          0x000000000002e42c        0x0 a:/intelfpga_lite/nios2eds/bin/gnu/h-x86_64-mingw32/bin/../lib/gcc/nios2-elf/5.3.0/mno-hw-mul\libgcc.a(lib2-mul.o)
 .data          0x000000000002e42c        0x0 ../lab4_bsp/\libucosii_bsp.a(alt_close.o)
 .data          0x000000000002e42c      0x1a8 ../lab4_bsp/\libucosii_bsp.a(alt_dev.o)
                0x000000000002e42c                alt_dev_null
                0x000000000002e454                alt_fd_list
 .data          0x000000000002e5d4        0x0 ../lab4_bsp/\libucosii_bsp.a(alt_errno.o)
 .data          0x000000000002e5d4        0x0 ../lab4_bsp/\libucosii_bsp.a(alt_fstat.o)
 .data          0x000000000002e5d4        0x0 ../lab4_bsp/\libucosii_bsp.a(alt_isatty.o)
 .data          0x000000000002e5d4        0x0 ../lab4_bsp/\libucosii_bsp.a(alt_load.o)
 .data          0x000000000002e5d4        0x0 ../lab4_bsp/\libucosii_bsp.a(alt_lseek.o)
 .data          0x000000000002e5d4        0x0 ../lab4_bsp/\libucosii_bsp.a(alt_main.o)
 .data          0x000000000002e5d4        0x0 ../lab4_bsp/\libucosii_bsp.a(alt_read.o)
 .data          0x000000000002e5d4        0x0 ../lab4_bsp/\libucosii_bsp.a(alt_release_fd.o)
 .data          0x000000000002e5d4        0x0 ../lab4_bsp/\libucosii_bsp.a(alt_sbrk.o)
 .data          0x000000000002e5d4        0x0 ../lab4_bsp/\libucosii_bsp.a(alt_write.o)
 .data          0x000000000002e5d4        0x0 ../lab4_bsp/\libucosii_bsp.a(alt_env_lock.o)
 .data          0x000000000002e5d4        0x0 ../lab4_bsp/\libucosii_bsp.a(alt_malloc_lock.o)
 .data          0x000000000002e5d4        0x0 ../lab4_bsp/\libucosii_bsp.a(os_core.o)
 .data          0x000000000002e5d4        0x0 ../lab4_bsp/\libucosii_bsp.a(os_dbg.o)
 .data          0x000000000002e5d4        0x0 ../lab4_bsp/\libucosii_bsp.a(os_flag.o)
 .data          0x000000000002e5d4        0x0 ../lab4_bsp/\libucosii_bsp.a(os_mem.o)
 .data          0x000000000002e5d4        0x0 ../lab4_bsp/\libucosii_bsp.a(os_q.o)
 .data          0x000000000002e5d4        0x0 ../lab4_bsp/\libucosii_bsp.a(os_sem.o)
 .data          0x000000000002e5d4        0x0 ../lab4_bsp/\libucosii_bsp.a(os_task.o)
 .data          0x000000000002e5d4        0x0 ../lab4_bsp/\libucosii_bsp.a(os_time.o)
 .data          0x000000000002e5d4     0x106c ../lab4_bsp/\libucosii_bsp.a(alt_sys_init.o)
 .data          0x000000000002f640        0x0 ../lab4_bsp/\libucosii_bsp.a(altera_avalon_jtag_uart_fd.o)
 .data          0x000000000002f640        0x0 ../lab4_bsp/\libucosii_bsp.a(altera_avalon_jtag_uart_init.o)
 .data          0x000000000002f640        0x0 ../lab4_bsp/\libucosii_bsp.a(altera_avalon_jtag_uart_ioctl.o)
 .data          0x000000000002f640        0x0 ../lab4_bsp/\libucosii_bsp.a(altera_avalon_jtag_uart_read.o)
 .data          0x000000000002f640        0x0 ../lab4_bsp/\libucosii_bsp.a(altera_avalon_jtag_uart_write.o)
 .data          0x000000000002f640        0x0 ../lab4_bsp/\libucosii_bsp.a(altera_avalon_timer_sc.o)
 .data          0x000000000002f640        0x0 ../lab4_bsp/\libucosii_bsp.a(alt_alarm_start.o)
 .data          0x000000000002f640        0x0 ../lab4_bsp/\libucosii_bsp.a(alt_dcache_flush_all.o)
 .data          0x000000000002f640        0x0 ../lab4_bsp/\libucosii_bsp.a(alt_dev_llist_insert.o)
 .data          0x000000000002f640        0x0 ../lab4_bsp/\libucosii_bsp.a(alt_do_ctors.o)
 .data          0x000000000002f640        0x0 ../lab4_bsp/\libucosii_bsp.a(alt_do_dtors.o)
 .data          0x000000000002f640        0x0 ../lab4_bsp/\libucosii_bsp.a(alt_icache_flush_all.o)
 .data          0x000000000002f640        0x0 ../lab4_bsp/\libucosii_bsp.a(alt_iic.o)
 .data          0x000000000002f640        0x0 ../lab4_bsp/\libucosii_bsp.a(alt_iic_isr_register.o)
 .data          0x000000000002f640        0x0 ../lab4_bsp/\libucosii_bsp.a(alt_io_redirect.o)
 .data          0x000000000002f640        0x0 ../lab4_bsp/\libucosii_bsp.a(alt_irq_entry.o)
 .data          0x000000000002f640        0x0 ../lab4_bsp/\libucosii_bsp.a(alt_irq_handler.o)
 .data          0x000000000002f640        0x0 ../lab4_bsp/\libucosii_bsp.a(alt_irq_vars.o)
 .data          0x000000000002f640        0x0 ../lab4_bsp/\libucosii_bsp.a(alt_open.o)
 .data          0x000000000002f640        0x0 ../lab4_bsp/\libucosii_bsp.a(alt_tick.o)
 .data          0x000000000002f640        0x0 ../lab4_bsp/\libucosii_bsp.a(altera_nios2_gen2_irq.o)
 .data          0x000000000002f640        0x0 ../lab4_bsp/\libucosii_bsp.a(os_cpu_a.o)
 .data          0x000000000002f640        0x0 ../lab4_bsp/\libucosii_bsp.a(os_cpu_c.o)
 .data          0x000000000002f640        0x0 ../lab4_bsp/\libucosii_bsp.a(alt_exception_entry.o)
 .data          0x000000000002f640        0x0 ../lab4_bsp/\libucosii_bsp.a(alt_find_dev.o)
 .data          0x000000000002f640        0x0 ../lab4_bsp/\libucosii_bsp.a(alt_find_file.o)
 .data          0x000000000002f640        0x0 ../lab4_bsp/\libucosii_bsp.a(alt_get_fd.o)
 .data          0x000000000002f640        0x0 ../lab4_bsp/\libucosii_bsp.a(alt_instruction_exception_entry.o)
 .data          0x000000000002f640        0x0 a:/intelfpga_lite/nios2eds/bin/gnu/h-x86_64-mingw32/bin/../lib/gcc/nios2-elf/5.3.0/../../../../../H-x86_64-mingw32/nios2-elf/lib/mno-hw-mul\libc.a(lib_a-atexit.o)
 .data          0x000000000002f640        0x0 a:/intelfpga_lite/nios2eds/bin/gnu/h-x86_64-mingw32/bin/../lib/gcc/nios2-elf/5.3.0/../../../../../H-x86_64-mingw32/nios2-elf/lib/mno-hw-mul\libc.a(lib_a-exit.o)
 .data          0x000000000002f640        0x0 a:/intelfpga_lite/nios2eds/bin/gnu/h-x86_64-mingw32/bin/../lib/gcc/nios2-elf/5.3.0/../../../../../H-x86_64-mingw32/nios2-elf/lib/mno-hw-mul\libc.a(lib_a-memcmp.o)
 .data          0x000000000002f640        0x0 a:/intelfpga_lite/nios2eds/bin/gnu/h-x86_64-mingw32/bin/../lib/gcc/nios2-elf/5.3.0/../../../../../H-x86_64-mingw32/nios2-elf/lib/mno-hw-mul\libc.a(lib_a-__atexit.o)
 .data          0x000000000002f640        0x0 a:/intelfpga_lite/nios2eds/bin/gnu/h-x86_64-mingw32/bin/../lib/gcc/nios2-elf/5.3.0/../../../../../H-x86_64-mingw32/nios2-elf/lib/mno-hw-mul\libc.a(lib_a-__call_atexit.o)
 .data          0x000000000002f640        0x0 ../lab4_bsp/\libucosii_bsp.a(alt_exit.o)
                0x0000000000037640                _gp = ABSOLUTE ((. + 0x8000))
                [!provide]                        PROVIDE (gp, _gp)
 *(.rwdata .rwdata.*)
 *(.sdata .sdata.* .gnu.linkonce.s.*)
 .sdata._global_impure_ptr
                0x000000000002f640        0x4 a:/intelfpga_lite/nios2eds/bin/gnu/h-x86_64-mingw32/bin/../lib/gcc/nios2-elf/5.3.0/../../../../../H-x86_64-mingw32/nios2-elf/lib/mno-hw-mul\libc.a(lib_a-impure.o)
                0x000000000002f640                _global_impure_ptr
 .sdata._impure_ptr
                0x000000000002f644        0x4 a:/intelfpga_lite/nios2eds/bin/gnu/h-x86_64-mingw32/bin/../lib/gcc/nios2-elf/5.3.0/../../../../../H-x86_64-mingw32/nios2-elf/lib/mno-hw-mul\libc.a(lib_a-impure.o)
                0x000000000002f644                _impure_ptr
 .sdata.__malloc_sbrk_base
                0x000000000002f648        0x4 a:/intelfpga_lite/nios2eds/bin/gnu/h-x86_64-mingw32/bin/../lib/gcc/nios2-elf/5.3.0/../../../../../H-x86_64-mingw32/nios2-elf/lib/mno-hw-mul\libc.a(lib_a-mallocr.o)
                0x000000000002f648                __malloc_sbrk_base
 .sdata.__malloc_trim_threshold
                0x000000000002f64c        0x4 a:/intelfpga_lite/nios2eds/bin/gnu/h-x86_64-mingw32/bin/../lib/gcc/nios2-elf/5.3.0/../../../../../H-x86_64-mingw32/nios2-elf/lib/mno-hw-mul\libc.a(lib_a-mallocr.o)
                0x000000000002f64c                __malloc_trim_threshold
 .sdata         0x000000000002f650       0x14 ../lab4_bsp/\libucosii_bsp.a(alt_dev.o)
                0x000000000002f650                alt_fs_list
                0x000000000002f658                alt_dev_list
                0x000000000002f660                alt_max_fd
 .sdata         0x000000000002f664        0x4 ../lab4_bsp/\libucosii_bsp.a(alt_errno.o)
                0x000000000002f664                alt_errno
 .sdata         0x000000000002f668        0x4 ../lab4_bsp/\libucosii_bsp.a(alt_sbrk.o)
 .sdata         0x000000000002f66c        0x4 ../lab4_bsp/\libucosii_bsp.a(alt_env_lock.o)
 .sdata         0x000000000002f670        0x4 ../lab4_bsp/\libucosii_bsp.a(alt_malloc_lock.o)
 .sdata         0x000000000002f674       0x72 ../lab4_bsp/\libucosii_bsp.a(os_dbg.o)
                0x000000000002f674                OSDebugEn
                0x000000000002f678                OSEndiannessTest
                0x000000000002f67c                OSEventEn
                0x000000000002f67e                OSEventMax
                0x000000000002f680                OSEventNameSize
                0x000000000002f682                OSEventSize
                0x000000000002f684                OSEventTblSize
                0x000000000002f686                OSEventMultiEn
                0x000000000002f688                OSFlagEn
                0x000000000002f68a                OSFlagGrpSize
                0x000000000002f68c                OSFlagNodeSize
                0x000000000002f68e                OSFlagWidth
                0x000000000002f690                OSFlagMax
                0x000000000002f692                OSFlagNameSize
                0x000000000002f694                OSLowestPrio
                0x000000000002f696                OSMboxEn
                0x000000000002f698                OSMemEn
                0x000000000002f69a                OSMemMax
                0x000000000002f69c                OSMemNameSize
                0x000000000002f69e                OSMemSize
                0x000000000002f6a0                OSMemTblSize
                0x000000000002f6a2                OSMutexEn
                0x000000000002f6a4                OSPtrSize
                0x000000000002f6a6                OSQEn
                0x000000000002f6a8                OSQMax
                0x000000000002f6aa                OSQSize
                0x000000000002f6ac                OSRdyTblSize
                0x000000000002f6ae                OSSemEn
                0x000000000002f6b0                OSStkWidth
                0x000000000002f6b2                OSTaskCreateEn
                0x000000000002f6b4                OSTaskCreateExtEn
                0x000000000002f6b6                OSTaskDelEn
                0x000000000002f6b8                OSTaskIdleStkSize
                0x000000000002f6ba                OSTaskProfileEn
                0x000000000002f6bc                OSTaskMax
                0x000000000002f6be                OSTaskNameSize
                0x000000000002f6c0                OSTaskStatEn
                0x000000000002f6c2                OSTaskStatStkSize
                0x000000000002f6c4                OSTaskStatStkChkEn
                0x000000000002f6c6                OSTaskSwHookEn
                0x000000000002f6c8                OSTCBPrioTblMax
                0x000000000002f6ca                OSTCBSize
                0x000000000002f6cc                OSTicksPerSec
                0x000000000002f6ce                OSTimeTickHookEn
                0x000000000002f6d0                OSVersionNbr
                0x000000000002f6d2                OSTmrEn
                0x000000000002f6d4                OSTmrCfgMax
                0x000000000002f6d6                OSTmrCfgNameSize
                0x000000000002f6d8                OSTmrCfgWheelSize
                0x000000000002f6da                OSTmrCfgTicksPerSec
                0x000000000002f6dc                OSTmrSize
                0x000000000002f6de                OSTmrTblSize
                0x000000000002f6e0                OSTmrWheelSize
                0x000000000002f6e2                OSTmrWheelTblSize
                0x000000000002f6e4                OSDataSize
 *fill*         0x000000000002f6e6        0x2 
 .sdata         0x000000000002f6e8        0x4 ../lab4_bsp/\libucosii_bsp.a(alt_irq_vars.o)
                0x000000000002f6e8                alt_priority_mask
 .sdata         0x000000000002f6ec        0x8 ../lab4_bsp/\libucosii_bsp.a(alt_tick.o)
                0x000000000002f6ec                alt_alarm_list
 *(.sdata2 .sdata2.* .gnu.linkonce.s2.*)
                0x000000000002f6f4                . = ALIGN (0x4)
                0x000000000002f6f4                _edata = ABSOLUTE (.)
                [!provide]                        PROVIDE (edata, ABSOLUTE (.))
                0x000000000002f6f4                PROVIDE (__ram_rwdata_end, ABSOLUTE (.))
                0x000000000002f6f4                PROVIDE (__flash_rwdata_start, LOADADDR (.rwdata))

.bss            0x00000000000311e8     0x73dc
                0x00000000000311e8                __bss_start = ABSOLUTE (.)
                [!provide]                        PROVIDE (__sbss_start, ABSOLUTE (.))
                [!provide]                        PROVIDE (___sbss_start, ABSOLUTE (.))
 *(.dynsbss)
 *(.sbss .sbss.* .gnu.linkonce.sb.*)
 .sbss.__malloc_max_total_mem
                0x00000000000311e8        0x4 a:/intelfpga_lite/nios2eds/bin/gnu/h-x86_64-mingw32/bin/../lib/gcc/nios2-elf/5.3.0/../../../../../H-x86_64-mingw32/nios2-elf/lib/mno-hw-mul\libc.a(lib_a-mallocr.o)
                0x00000000000311e8                __malloc_max_total_mem
 .sbss.__malloc_max_sbrked_mem
                0x00000000000311ec        0x4 a:/intelfpga_lite/nios2eds/bin/gnu/h-x86_64-mingw32/bin/../lib/gcc/nios2-elf/5.3.0/../../../../../H-x86_64-mingw32/nios2-elf/lib/mno-hw-mul\libc.a(lib_a-mallocr.o)
                0x00000000000311ec                __malloc_max_sbrked_mem
 .sbss.__malloc_top_pad
                0x00000000000311f0        0x4 a:/intelfpga_lite/nios2eds/bin/gnu/h-x86_64-mingw32/bin/../lib/gcc/nios2-elf/5.3.0/../../../../../H-x86_64-mingw32/nios2-elf/lib/mno-hw-mul\libc.a(lib_a-mallocr.o)
                0x00000000000311f0                __malloc_top_pad
 .sbss          0x00000000000311f4        0x4 a:/intelfpga_lite/nios2eds/bin/gnu/h-x86_64-mingw32/bin/../lib/gcc/nios2-elf/5.3.0/../../../../../H-x86_64-mingw32/nios2-elf/lib/mno-hw-mul\libc.a(lib_a-int_errno.o)
                0x00000000000311f4                errno
 .sbss          0x00000000000311f8        0x4 ../lab4_bsp/\libucosii_bsp.a(alt_dev.o)
                0x00000000000311f8                alt_fd_list_lock
 .sbss          0x00000000000311fc        0xc ../lab4_bsp/\libucosii_bsp.a(alt_main.o)
                0x00000000000311fc                alt_argc
                0x0000000000031200                alt_argv
                0x0000000000031204                alt_envp
 .sbss          0x0000000000031208        0x8 ../lab4_bsp/\libucosii_bsp.a(alt_env_lock.o)
                0x000000000003120c                alt_envsem
 .sbss          0x0000000000031210        0x8 ../lab4_bsp/\libucosii_bsp.a(alt_malloc_lock.o)
                0x0000000000031214                alt_heapsem
 .sbss          0x0000000000031218       0x50 ../lab4_bsp/\libucosii_bsp.a(os_core.o)
                0x0000000000031218                OSLockNesting
                0x0000000000031219                OSRunning
                0x000000000003121c                OSIdleCtr
                0x0000000000031220                OSPrioHighRdy
                0x0000000000031221                OSPrioCur
                0x0000000000031224                OSTCBList
                0x0000000000031228                OSTickStepState
                0x000000000003122c                OSCtxSwCtr
                0x0000000000031230                OSIdleCtrMax
                0x0000000000031234                OSTCBFreeList
                0x0000000000031238                OSCPUUsage
                0x0000000000031239                OSTaskCtr
                0x000000000003123c                OSMemFreeList
                0x0000000000031240                OSTCBHighRdy
                0x0000000000031244                OSQFreeList
                0x0000000000031248                OSRdyGrp
                0x0000000000031249                OSRdyTbl
                0x000000000003124c                OSEventFreeList
                0x0000000000031250                OSIntNesting
                0x0000000000031254                OSTCBCur
                0x0000000000031258                OSTime
                0x000000000003125c                OSFlagFreeList
                0x0000000000031260                OSStatRdy
                0x0000000000031264                OSIdleCtrRun
 .sbss          0x0000000000031268        0x4 ../lab4_bsp/\libucosii_bsp.a(alt_irq_vars.o)
                0x0000000000031268                alt_irq_active
 .sbss          0x000000000003126c        0x8 ../lab4_bsp/\libucosii_bsp.a(alt_tick.o)
                0x000000000003126c                _alt_tick_rate
                0x0000000000031270                _alt_nticks
 .sbss          0x0000000000031274        0x4 ../lab4_bsp/\libucosii_bsp.a(alt_instruction_exception_entry.o)
                0x0000000000031274                alt_instruction_exception_handler
 *(.sbss2 .sbss2.* .gnu.linkonce.sb2.*)
 *(.scommon)
                [!provide]                        PROVIDE (__sbss_end, ABSOLUTE (.))
                [!provide]                        PROVIDE (___sbss_end, ABSOLUTE (.))
 *(.dynbss)
 *(.bss .bss.* .gnu.linkonce.b.*)
 .bss           0x0000000000031278        0x0 ../lab4_bsp//obj/HAL/src/crt0.o
 .bss           0x0000000000031278        0x0 obj/default/hello_ucosii.o
 .bss           0x0000000000031278        0x0 a:/intelfpga_lite/nios2eds/bin/gnu/h-x86_64-mingw32/bin/../lib/gcc/nios2-elf/5.3.0/../../../../../H-x86_64-mingw32/nios2-elf/lib/mno-hw-mul\libc.a(lib_a-puts.o)
 .bss           0x0000000000031278        0x0 a:/intelfpga_lite/nios2eds/bin/gnu/h-x86_64-mingw32/bin/../lib/gcc/nios2-elf/5.3.0/../../../../../H-x86_64-mingw32/nios2-elf/lib/mno-hw-mul\libc.a(lib_a-strlen.o)
 .bss           0x0000000000031278        0x0 a:/intelfpga_lite/nios2eds/bin/gnu/h-x86_64-mingw32/bin/../lib/gcc/nios2-elf/5.3.0/../../../../../H-x86_64-mingw32/nios2-elf/lib/mno-hw-mul\libc.a(lib_a-findfp.o)
 .bss           0x0000000000031278        0x0 a:/intelfpga_lite/nios2eds/bin/gnu/h-x86_64-mingw32/bin/../lib/gcc/nios2-elf/5.3.0/../../../../../H-x86_64-mingw32/nios2-elf/lib/mno-hw-mul\libc.a(lib_a-fvwrite.o)
 .bss           0x0000000000031278        0x0 a:/intelfpga_lite/nios2eds/bin/gnu/h-x86_64-mingw32/bin/../lib/gcc/nios2-elf/5.3.0/../../../../../H-x86_64-mingw32/nios2-elf/lib/mno-hw-mul\libc.a(lib_a-fwalk.o)
 .bss           0x0000000000031278        0x0 a:/intelfpga_lite/nios2eds/bin/gnu/h-x86_64-mingw32/bin/../lib/gcc/nios2-elf/5.3.0/../../../../../H-x86_64-mingw32/nios2-elf/lib/mno-hw-mul\libc.a(lib_a-impure.o)
 .bss           0x0000000000031278        0x0 a:/intelfpga_lite/nios2eds/bin/gnu/h-x86_64-mingw32/bin/../lib/gcc/nios2-elf/5.3.0/../../../../../H-x86_64-mingw32/nios2-elf/lib/mno-hw-mul\libc.a(lib_a-mallocr.o)
 .bss.__malloc_current_mallinfo
                0x0000000000031278       0x28 a:/intelfpga_lite/nios2eds/bin/gnu/h-x86_64-mingw32/bin/../lib/gcc/nios2-elf/5.3.0/../../../../../H-x86_64-mingw32/nios2-elf/lib/mno-hw-mul\libc.a(lib_a-mallocr.o)
                0x0000000000031278                __malloc_current_mallinfo
 .bss           0x00000000000312a0        0x0 a:/intelfpga_lite/nios2eds/bin/gnu/h-x86_64-mingw32/bin/../lib/gcc/nios2-elf/5.3.0/../../../../../H-x86_64-mingw32/nios2-elf/lib/mno-hw-mul\libc.a(lib_a-memchr.o)
 .bss           0x00000000000312a0        0x0 a:/intelfpga_lite/nios2eds/bin/gnu/h-x86_64-mingw32/bin/../lib/gcc/nios2-elf/5.3.0/../../../../../H-x86_64-mingw32/nios2-elf/lib/mno-hw-mul\libc.a(lib_a-memcpy.o)
 .bss           0x00000000000312a0        0x0 a:/intelfpga_lite/nios2eds/bin/gnu/h-x86_64-mingw32/bin/../lib/gcc/nios2-elf/5.3.0/../../../../../H-x86_64-mingw32/nios2-elf/lib/mno-hw-mul\libc.a(lib_a-memmove.o)
 .bss           0x00000000000312a0        0x0 a:/intelfpga_lite/nios2eds/bin/gnu/h-x86_64-mingw32/bin/../lib/gcc/nios2-elf/5.3.0/../../../../../H-x86_64-mingw32/nios2-elf/lib/mno-hw-mul\libc.a(lib_a-memset.o)
 .bss           0x00000000000312a0        0x0 a:/intelfpga_lite/nios2eds/bin/gnu/h-x86_64-mingw32/bin/../lib/gcc/nios2-elf/5.3.0/../../../../../H-x86_64-mingw32/nios2-elf/lib/mno-hw-mul\libc.a(lib_a-reallocr.o)
 .bss           0x00000000000312a0        0x0 a:/intelfpga_lite/nios2eds/bin/gnu/h-x86_64-mingw32/bin/../lib/gcc/nios2-elf/5.3.0/../../../../../H-x86_64-mingw32/nios2-elf/lib/mno-hw-mul\libc.a(lib_a-sbrkr.o)
 .bss           0x00000000000312a0        0x0 a:/intelfpga_lite/nios2eds/bin/gnu/h-x86_64-mingw32/bin/../lib/gcc/nios2-elf/5.3.0/../../../../../H-x86_64-mingw32/nios2-elf/lib/mno-hw-mul\libc.a(lib_a-stdio.o)
 .bss           0x00000000000312a0        0x0 a:/intelfpga_lite/nios2eds/bin/gnu/h-x86_64-mingw32/bin/../lib/gcc/nios2-elf/5.3.0/../../../../../H-x86_64-mingw32/nios2-elf/lib/mno-hw-mul\libc.a(lib_a-writer.o)
 .bss           0x00000000000312a0        0x0 a:/intelfpga_lite/nios2eds/bin/gnu/h-x86_64-mingw32/bin/../lib/gcc/nios2-elf/5.3.0/../../../../../H-x86_64-mingw32/nios2-elf/lib/mno-hw-mul\libc.a(lib_a-wsetup.o)
 .bss           0x00000000000312a0        0x0 a:/intelfpga_lite/nios2eds/bin/gnu/h-x86_64-mingw32/bin/../lib/gcc/nios2-elf/5.3.0/../../../../../H-x86_64-mingw32/nios2-elf/lib/mno-hw-mul\libc.a(closer.o)
 .bss           0x00000000000312a0        0x0 a:/intelfpga_lite/nios2eds/bin/gnu/h-x86_64-mingw32/bin/../lib/gcc/nios2-elf/5.3.0/../../../../../H-x86_64-mingw32/nios2-elf/lib/mno-hw-mul\libc.a(lib_a-fclose.o)
 .bss           0x00000000000312a0        0x0 a:/intelfpga_lite/nios2eds/bin/gnu/h-x86_64-mingw32/bin/../lib/gcc/nios2-elf/5.3.0/../../../../../H-x86_64-mingw32/nios2-elf/lib/mno-hw-mul\libc.a(lib_a-fflush.o)
 .bss           0x00000000000312a0        0x0 a:/intelfpga_lite/nios2eds/bin/gnu/h-x86_64-mingw32/bin/../lib/gcc/nios2-elf/5.3.0/../../../../../H-x86_64-mingw32/nios2-elf/lib/mno-hw-mul\libc.a(lib_a-freer.o)
 .bss           0x00000000000312a0        0x0 a:/intelfpga_lite/nios2eds/bin/gnu/h-x86_64-mingw32/bin/../lib/gcc/nios2-elf/5.3.0/../../../../../H-x86_64-mingw32/nios2-elf/lib/mno-hw-mul\libc.a(lib_a-int_errno.o)
 .bss           0x00000000000312a0        0x0 a:/intelfpga_lite/nios2eds/bin/gnu/h-x86_64-mingw32/bin/../lib/gcc/nios2-elf/5.3.0/../../../../../H-x86_64-mingw32/nios2-elf/lib/mno-hw-mul\libc.a(lib_a-lseekr.o)
 .bss           0x00000000000312a0        0x0 a:/intelfpga_lite/nios2eds/bin/gnu/h-x86_64-mingw32/bin/../lib/gcc/nios2-elf/5.3.0/../../../../../H-x86_64-mingw32/nios2-elf/lib/mno-hw-mul\libc.a(lib_a-makebuf.o)
 .bss           0x00000000000312a0        0x0 a:/intelfpga_lite/nios2eds/bin/gnu/h-x86_64-mingw32/bin/../lib/gcc/nios2-elf/5.3.0/../../../../../H-x86_64-mingw32/nios2-elf/lib/mno-hw-mul\libc.a(lib_a-readr.o)
 .bss           0x00000000000312a0        0x0 a:/intelfpga_lite/nios2eds/bin/gnu/h-x86_64-mingw32/bin/../lib/gcc/nios2-elf/5.3.0/../../../../../H-x86_64-mingw32/nios2-elf/lib/mno-hw-mul\libc.a(lib_a-fstatr.o)
 .bss           0x00000000000312a0        0x0 a:/intelfpga_lite/nios2eds/bin/gnu/h-x86_64-mingw32/bin/../lib/gcc/nios2-elf/5.3.0/../../../../../H-x86_64-mingw32/nios2-elf/lib/mno-hw-mul\libc.a(lib_a-isattyr.o)
 .bss           0x00000000000312a0        0x0 a:/intelfpga_lite/nios2eds/bin/gnu/h-x86_64-mingw32/bin/../lib/gcc/nios2-elf/5.3.0/mno-hw-mul\libgcc.a(lib2-divmod.o)
 .bss           0x00000000000312a0        0x0 a:/intelfpga_lite/nios2eds/bin/gnu/h-x86_64-mingw32/bin/../lib/gcc/nios2-elf/5.3.0/mno-hw-mul\libgcc.a(lib2-mul.o)
 .bss           0x00000000000312a0        0x0 ../lab4_bsp/\libucosii_bsp.a(alt_close.o)
 .bss           0x00000000000312a0        0x0 ../lab4_bsp/\libucosii_bsp.a(alt_dev.o)
 .bss           0x00000000000312a0        0x0 ../lab4_bsp/\libucosii_bsp.a(alt_errno.o)
 .bss           0x00000000000312a0        0x0 ../lab4_bsp/\libucosii_bsp.a(alt_fstat.o)
 .bss           0x00000000000312a0        0x0 ../lab4_bsp/\libucosii_bsp.a(alt_isatty.o)
 .bss           0x00000000000312a0        0x0 ../lab4_bsp/\libucosii_bsp.a(alt_load.o)
 .bss           0x00000000000312a0        0x0 ../lab4_bsp/\libucosii_bsp.a(alt_lseek.o)
 .bss           0x00000000000312a0        0x0 ../lab4_bsp/\libucosii_bsp.a(alt_main.o)
 .bss           0x00000000000312a0        0x0 ../lab4_bsp/\libucosii_bsp.a(alt_read.o)
 .bss           0x00000000000312a0        0x0 ../lab4_bsp/\libucosii_bsp.a(alt_release_fd.o)
 .bss           0x00000000000312a0        0x0 ../lab4_bsp/\libucosii_bsp.a(alt_sbrk.o)
 .bss           0x00000000000312a0        0x0 ../lab4_bsp/\libucosii_bsp.a(alt_write.o)
 .bss           0x00000000000312a0        0x0 ../lab4_bsp/\libucosii_bsp.a(alt_env_lock.o)
 .bss           0x00000000000312a0        0x0 ../lab4_bsp/\libucosii_bsp.a(alt_malloc_lock.o)
 .bss           0x00000000000312a0        0x0 ../lab4_bsp/\libucosii_bsp.a(os_core.o)
 .bss           0x00000000000312a0        0x0 ../lab4_bsp/\libucosii_bsp.a(os_dbg.o)
 .bss           0x00000000000312a0        0x0 ../lab4_bsp/\libucosii_bsp.a(os_flag.o)
 .bss           0x00000000000312a0        0x0 ../lab4_bsp/\libucosii_bsp.a(os_mem.o)
 .bss           0x00000000000312a0        0x0 ../lab4_bsp/\libucosii_bsp.a(os_q.o)
 .bss           0x00000000000312a0        0x0 ../lab4_bsp/\libucosii_bsp.a(os_sem.o)
 .bss           0x00000000000312a0        0x0 ../lab4_bsp/\libucosii_bsp.a(os_task.o)
 .bss           0x00000000000312a0        0x0 ../lab4_bsp/\libucosii_bsp.a(os_time.o)
 .bss           0x00000000000312a0        0x0 ../lab4_bsp/\libucosii_bsp.a(alt_sys_init.o)
 .bss           0x00000000000312a0        0x0 ../lab4_bsp/\libucosii_bsp.a(altera_avalon_jtag_uart_fd.o)
 .bss           0x00000000000312a0        0x0 ../lab4_bsp/\libucosii_bsp.a(altera_avalon_jtag_uart_init.o)
 .bss           0x00000000000312a0        0x0 ../lab4_bsp/\libucosii_bsp.a(altera_avalon_jtag_uart_ioctl.o)
 .bss           0x00000000000312a0        0x0 ../lab4_bsp/\libucosii_bsp.a(altera_avalon_jtag_uart_read.o)
 .bss           0x00000000000312a0        0x0 ../lab4_bsp/\libucosii_bsp.a(altera_avalon_jtag_uart_write.o)
 .bss           0x00000000000312a0        0x0 ../lab4_bsp/\libucosii_bsp.a(altera_avalon_timer_sc.o)
 .bss           0x00000000000312a0        0x0 ../lab4_bsp/\libucosii_bsp.a(alt_alarm_start.o)
 .bss           0x00000000000312a0        0x0 ../lab4_bsp/\libucosii_bsp.a(alt_dcache_flush_all.o)
 .bss           0x00000000000312a0        0x0 ../lab4_bsp/\libucosii_bsp.a(alt_dev_llist_insert.o)
 .bss           0x00000000000312a0        0x0 ../lab4_bsp/\libucosii_bsp.a(alt_do_ctors.o)
 .bss           0x00000000000312a0        0x0 ../lab4_bsp/\libucosii_bsp.a(alt_do_dtors.o)
 .bss           0x00000000000312a0        0x0 ../lab4_bsp/\libucosii_bsp.a(alt_icache_flush_all.o)
 .bss           0x00000000000312a0        0x0 ../lab4_bsp/\libucosii_bsp.a(alt_iic.o)
 .bss           0x00000000000312a0        0x0 ../lab4_bsp/\libucosii_bsp.a(alt_iic_isr_register.o)
 .bss           0x00000000000312a0        0x0 ../lab4_bsp/\libucosii_bsp.a(alt_io_redirect.o)
 .bss           0x00000000000312a0        0x0 ../lab4_bsp/\libucosii_bsp.a(alt_irq_entry.o)
 .bss           0x00000000000312a0        0x0 ../lab4_bsp/\libucosii_bsp.a(alt_irq_handler.o)
 .bss           0x00000000000312a0        0x0 ../lab4_bsp/\libucosii_bsp.a(alt_irq_vars.o)
 .bss           0x00000000000312a0        0x0 ../lab4_bsp/\libucosii_bsp.a(alt_open.o)
 .bss           0x00000000000312a0        0x0 ../lab4_bsp/\libucosii_bsp.a(alt_tick.o)
 .bss           0x00000000000312a0        0x0 ../lab4_bsp/\libucosii_bsp.a(altera_nios2_gen2_irq.o)
 .bss           0x00000000000312a0        0x0 ../lab4_bsp/\libucosii_bsp.a(os_cpu_a.o)
 .bss           0x00000000000312a0        0x0 ../lab4_bsp/\libucosii_bsp.a(os_cpu_c.o)
 .bss           0x00000000000312a0        0x0 ../lab4_bsp/\libucosii_bsp.a(alt_exception_entry.o)
 .bss           0x00000000000312a0        0x0 ../lab4_bsp/\libucosii_bsp.a(alt_find_dev.o)
 .bss           0x00000000000312a0        0x0 ../lab4_bsp/\libucosii_bsp.a(alt_find_file.o)
 .bss           0x00000000000312a0        0x0 ../lab4_bsp/\libucosii_bsp.a(alt_get_fd.o)
 .bss           0x00000000000312a0        0x0 ../lab4_bsp/\libucosii_bsp.a(alt_instruction_exception_entry.o)
 .bss           0x00000000000312a0        0x0 a:/intelfpga_lite/nios2eds/bin/gnu/h-x86_64-mingw32/bin/../lib/gcc/nios2-elf/5.3.0/../../../../../H-x86_64-mingw32/nios2-elf/lib/mno-hw-mul\libc.a(lib_a-atexit.o)
 .bss           0x00000000000312a0        0x0 a:/intelfpga_lite/nios2eds/bin/gnu/h-x86_64-mingw32/bin/../lib/gcc/nios2-elf/5.3.0/../../../../../H-x86_64-mingw32/nios2-elf/lib/mno-hw-mul\libc.a(lib_a-exit.o)
 .bss           0x00000000000312a0        0x0 a:/intelfpga_lite/nios2eds/bin/gnu/h-x86_64-mingw32/bin/../lib/gcc/nios2-elf/5.3.0/../../../../../H-x86_64-mingw32/nios2-elf/lib/mno-hw-mul\libc.a(lib_a-memcmp.o)
 .bss           0x00000000000312a0        0x0 a:/intelfpga_lite/nios2eds/bin/gnu/h-x86_64-mingw32/bin/../lib/gcc/nios2-elf/5.3.0/../../../../../H-x86_64-mingw32/nios2-elf/lib/mno-hw-mul\libc.a(lib_a-__atexit.o)
 .bss           0x00000000000312a0        0x0 a:/intelfpga_lite/nios2eds/bin/gnu/h-x86_64-mingw32/bin/../lib/gcc/nios2-elf/5.3.0/../../../../../H-x86_64-mingw32/nios2-elf/lib/mno-hw-mul\libc.a(lib_a-__call_atexit.o)
 .bss           0x00000000000312a0        0x0 ../lab4_bsp/\libucosii_bsp.a(alt_exit.o)
 *(COMMON)
 COMMON         0x00000000000312a0     0x4000 obj/default/hello_ucosii.o
                0x00000000000312a0                task1_stk
                0x00000000000332a0                task2_stk
 COMMON         0x00000000000352a0     0x3224 ../lab4_bsp/\libucosii_bsp.a(os_core.o)
                0x00000000000352a0                OSFlagTbl
                0x0000000000035610                OSMemTbl
                0x0000000000036240                OSTaskStatStk
                0x0000000000036a40                OSQTbl
                0x0000000000036c20                OSTaskIdleStk
                0x0000000000037420                OSEventTbl
                0x0000000000037f60                OSTCBTbl
                0x0000000000038470                OSTCBPrioTbl
 COMMON         0x00000000000384c4      0x100 ../lab4_bsp/\libucosii_bsp.a(alt_irq_handler.o)
                0x00000000000384c4                alt_irq
                0x00000000000385c4                . = ALIGN (0x4)
                0x00000000000385c4                __bss_end = ABSOLUTE (.)

.OnChip_Memory  0x00000000000385c4        0x0
                [!provide]                        PROVIDE (_alt_partition_OnChip_Memory_start, ABSOLUTE (.))
 *(.OnChip_Memory .OnChip_Memory. OnChip_Memory.*)
                0x00000000000385c4                . = ALIGN (0x4)
                [!provide]                        PROVIDE (_alt_partition_OnChip_Memory_end, ABSOLUTE (.))
                0x00000000000385c4                _end = ABSOLUTE (.)
                0x00000000000385c4                end = ABSOLUTE (.)
                0x00000000000385c4                __alt_stack_base = ABSOLUTE (.)
                [!provide]                        PROVIDE (_alt_partition_OnChip_Memory_load_addr, LOADADDR (.OnChip_Memory))

.stab
 *(.stab)

.stabstr
 *(.stabstr)

.stab.excl
 *(.stab.excl)

.stab.exclstr
 *(.stab.exclstr)

.stab.index
 *(.stab.index)

.stab.indexstr
 *(.stab.indexstr)

.comment        0x0000000000000000       0x23
 *(.comment)
 .comment       0x0000000000000000       0x23 obj/default/hello_ucosii.o
                                         0x24 (size before relaxing)
 .comment       0x0000000000000023       0x24 a:/intelfpga_lite/nios2eds/bin/gnu/h-x86_64-mingw32/bin/../lib/gcc/nios2-elf/5.3.0/../../../../../H-x86_64-mingw32/nios2-elf/lib/mno-hw-mul\libc.a(lib_a-puts.o)
 .comment       0x0000000000000023       0x24 a:/intelfpga_lite/nios2eds/bin/gnu/h-x86_64-mingw32/bin/../lib/gcc/nios2-elf/5.3.0/../../../../../H-x86_64-mingw32/nios2-elf/lib/mno-hw-mul\libc.a(lib_a-strlen.o)
 .comment       0x0000000000000023       0x24 a:/intelfpga_lite/nios2eds/bin/gnu/h-x86_64-mingw32/bin/../lib/gcc/nios2-elf/5.3.0/../../../../../H-x86_64-mingw32/nios2-elf/lib/mno-hw-mul\libc.a(lib_a-findfp.o)
 .comment       0x0000000000000023       0x24 a:/intelfpga_lite/nios2eds/bin/gnu/h-x86_64-mingw32/bin/../lib/gcc/nios2-elf/5.3.0/../../../../../H-x86_64-mingw32/nios2-elf/lib/mno-hw-mul\libc.a(lib_a-fvwrite.o)
 .comment       0x0000000000000023       0x24 a:/intelfpga_lite/nios2eds/bin/gnu/h-x86_64-mingw32/bin/../lib/gcc/nios2-elf/5.3.0/../../../../../H-x86_64-mingw32/nios2-elf/lib/mno-hw-mul\libc.a(lib_a-fwalk.o)
 .comment       0x0000000000000023       0x24 a:/intelfpga_lite/nios2eds/bin/gnu/h-x86_64-mingw32/bin/../lib/gcc/nios2-elf/5.3.0/../../../../../H-x86_64-mingw32/nios2-elf/lib/mno-hw-mul\libc.a(lib_a-impure.o)
 .comment       0x0000000000000023       0x24 a:/intelfpga_lite/nios2eds/bin/gnu/h-x86_64-mingw32/bin/../lib/gcc/nios2-elf/5.3.0/../../../../../H-x86_64-mingw32/nios2-elf/lib/mno-hw-mul\libc.a(lib_a-mallocr.o)
 .comment       0x0000000000000023       0x24 a:/intelfpga_lite/nios2eds/bin/gnu/h-x86_64-mingw32/bin/../lib/gcc/nios2-elf/5.3.0/../../../../../H-x86_64-mingw32/nios2-elf/lib/mno-hw-mul\libc.a(lib_a-memchr.o)
 .comment       0x0000000000000023       0x24 a:/intelfpga_lite/nios2eds/bin/gnu/h-x86_64-mingw32/bin/../lib/gcc/nios2-elf/5.3.0/../../../../../H-x86_64-mingw32/nios2-elf/lib/mno-hw-mul\libc.a(lib_a-memcpy.o)
 .comment       0x0000000000000023       0x24 a:/intelfpga_lite/nios2eds/bin/gnu/h-x86_64-mingw32/bin/../lib/gcc/nios2-elf/5.3.0/../../../../../H-x86_64-mingw32/nios2-elf/lib/mno-hw-mul\libc.a(lib_a-memmove.o)
 .comment       0x0000000000000023       0x24 a:/intelfpga_lite/nios2eds/bin/gnu/h-x86_64-mingw32/bin/../lib/gcc/nios2-elf/5.3.0/../../../../../H-x86_64-mingw32/nios2-elf/lib/mno-hw-mul\libc.a(lib_a-memset.o)
 .comment       0x0000000000000023       0x24 a:/intelfpga_lite/nios2eds/bin/gnu/h-x86_64-mingw32/bin/../lib/gcc/nios2-elf/5.3.0/../../../../../H-x86_64-mingw32/nios2-elf/lib/mno-hw-mul\libc.a(lib_a-reallocr.o)
 .comment       0x0000000000000023       0x24 a:/intelfpga_lite/nios2eds/bin/gnu/h-x86_64-mingw32/bin/../lib/gcc/nios2-elf/5.3.0/../../../../../H-x86_64-mingw32/nios2-elf/lib/mno-hw-mul\libc.a(lib_a-sbrkr.o)
 .comment       0x0000000000000023       0x24 a:/intelfpga_lite/nios2eds/bin/gnu/h-x86_64-mingw32/bin/../lib/gcc/nios2-elf/5.3.0/../../../../../H-x86_64-mingw32/nios2-elf/lib/mno-hw-mul\libc.a(lib_a-stdio.o)
 .comment       0x0000000000000023       0x24 a:/intelfpga_lite/nios2eds/bin/gnu/h-x86_64-mingw32/bin/../lib/gcc/nios2-elf/5.3.0/../../../../../H-x86_64-mingw32/nios2-elf/lib/mno-hw-mul\libc.a(lib_a-writer.o)
 .comment       0x0000000000000023       0x24 a:/intelfpga_lite/nios2eds/bin/gnu/h-x86_64-mingw32/bin/../lib/gcc/nios2-elf/5.3.0/../../../../../H-x86_64-mingw32/nios2-elf/lib/mno-hw-mul\libc.a(lib_a-wsetup.o)
 .comment       0x0000000000000023       0x24 a:/intelfpga_lite/nios2eds/bin/gnu/h-x86_64-mingw32/bin/../lib/gcc/nios2-elf/5.3.0/../../../../../H-x86_64-mingw32/nios2-elf/lib/mno-hw-mul\libc.a(closer.o)
 .comment       0x0000000000000023       0x24 a:/intelfpga_lite/nios2eds/bin/gnu/h-x86_64-mingw32/bin/../lib/gcc/nios2-elf/5.3.0/../../../../../H-x86_64-mingw32/nios2-elf/lib/mno-hw-mul\libc.a(lib_a-fclose.o)
 .comment       0x0000000000000023       0x24 a:/intelfpga_lite/nios2eds/bin/gnu/h-x86_64-mingw32/bin/../lib/gcc/nios2-elf/5.3.0/../../../../../H-x86_64-mingw32/nios2-elf/lib/mno-hw-mul\libc.a(lib_a-fflush.o)
 .comment       0x0000000000000023       0x24 a:/intelfpga_lite/nios2eds/bin/gnu/h-x86_64-mingw32/bin/../lib/gcc/nios2-elf/5.3.0/../../../../../H-x86_64-mingw32/nios2-elf/lib/mno-hw-mul\libc.a(lib_a-freer.o)
 .comment       0x0000000000000023       0x24 a:/intelfpga_lite/nios2eds/bin/gnu/h-x86_64-mingw32/bin/../lib/gcc/nios2-elf/5.3.0/../../../../../H-x86_64-mingw32/nios2-elf/lib/mno-hw-mul\libc.a(lib_a-int_errno.o)
 .comment       0x0000000000000023       0x24 a:/intelfpga_lite/nios2eds/bin/gnu/h-x86_64-mingw32/bin/../lib/gcc/nios2-elf/5.3.0/../../../../../H-x86_64-mingw32/nios2-elf/lib/mno-hw-mul\libc.a(lib_a-lseekr.o)
 .comment       0x0000000000000023       0x24 a:/intelfpga_lite/nios2eds/bin/gnu/h-x86_64-mingw32/bin/../lib/gcc/nios2-elf/5.3.0/../../../../../H-x86_64-mingw32/nios2-elf/lib/mno-hw-mul\libc.a(lib_a-makebuf.o)
 .comment       0x0000000000000023       0x24 a:/intelfpga_lite/nios2eds/bin/gnu/h-x86_64-mingw32/bin/../lib/gcc/nios2-elf/5.3.0/../../../../../H-x86_64-mingw32/nios2-elf/lib/mno-hw-mul\libc.a(lib_a-readr.o)
 .comment       0x0000000000000023       0x24 a:/intelfpga_lite/nios2eds/bin/gnu/h-x86_64-mingw32/bin/../lib/gcc/nios2-elf/5.3.0/../../../../../H-x86_64-mingw32/nios2-elf/lib/mno-hw-mul\libc.a(lib_a-fstatr.o)
 .comment       0x0000000000000023       0x24 a:/intelfpga_lite/nios2eds/bin/gnu/h-x86_64-mingw32/bin/../lib/gcc/nios2-elf/5.3.0/../../../../../H-x86_64-mingw32/nios2-elf/lib/mno-hw-mul\libc.a(lib_a-isattyr.o)
 .comment       0x0000000000000023       0x24 a:/intelfpga_lite/nios2eds/bin/gnu/h-x86_64-mingw32/bin/../lib/gcc/nios2-elf/5.3.0/mno-hw-mul\libgcc.a(lib2-divmod.o)
 .comment       0x0000000000000023       0x24 a:/intelfpga_lite/nios2eds/bin/gnu/h-x86_64-mingw32/bin/../lib/gcc/nios2-elf/5.3.0/mno-hw-mul\libgcc.a(lib2-mul.o)
 .comment       0x0000000000000023       0x24 ../lab4_bsp/\libucosii_bsp.a(alt_close.o)
 .comment       0x0000000000000023       0x24 ../lab4_bsp/\libucosii_bsp.a(alt_dev.o)
 .comment       0x0000000000000023       0x24 ../lab4_bsp/\libucosii_bsp.a(alt_errno.o)
 .comment       0x0000000000000023       0x24 ../lab4_bsp/\libucosii_bsp.a(alt_fstat.o)
 .comment       0x0000000000000023       0x24 ../lab4_bsp/\libucosii_bsp.a(alt_isatty.o)
 .comment       0x0000000000000023       0x24 ../lab4_bsp/\libucosii_bsp.a(alt_load.o)
 .comment       0x0000000000000023       0x24 ../lab4_bsp/\libucosii_bsp.a(alt_lseek.o)
 .comment       0x0000000000000023       0x24 ../lab4_bsp/\libucosii_bsp.a(alt_main.o)
 .comment       0x0000000000000023       0x24 ../lab4_bsp/\libucosii_bsp.a(alt_read.o)
 .comment       0x0000000000000023       0x24 ../lab4_bsp/\libucosii_bsp.a(alt_release_fd.o)
 .comment       0x0000000000000023       0x24 ../lab4_bsp/\libucosii_bsp.a(alt_sbrk.o)
 .comment       0x0000000000000023       0x24 ../lab4_bsp/\libucosii_bsp.a(alt_write.o)
 .comment       0x0000000000000023       0x24 ../lab4_bsp/\libucosii_bsp.a(alt_env_lock.o)
 .comment       0x0000000000000023       0x24 ../lab4_bsp/\libucosii_bsp.a(alt_malloc_lock.o)
 .comment       0x0000000000000023       0x24 ../lab4_bsp/\libucosii_bsp.a(os_core.o)
 .comment       0x0000000000000023       0x24 ../lab4_bsp/\libucosii_bsp.a(os_dbg.o)
 .comment       0x0000000000000023       0x24 ../lab4_bsp/\libucosii_bsp.a(os_flag.o)
 .comment       0x0000000000000023       0x24 ../lab4_bsp/\libucosii_bsp.a(os_mem.o)
 .comment       0x0000000000000023       0x24 ../lab4_bsp/\libucosii_bsp.a(os_q.o)
 .comment       0x0000000000000023       0x24 ../lab4_bsp/\libucosii_bsp.a(os_sem.o)
 .comment       0x0000000000000023       0x24 ../lab4_bsp/\libucosii_bsp.a(os_task.o)
 .comment       0x0000000000000023       0x24 ../lab4_bsp/\libucosii_bsp.a(os_time.o)
 .comment       0x0000000000000023       0x24 ../lab4_bsp/\libucosii_bsp.a(alt_sys_init.o)
 .comment       0x0000000000000023       0x24 ../lab4_bsp/\libucosii_bsp.a(altera_avalon_jtag_uart_fd.o)
 .comment       0x0000000000000023       0x24 ../lab4_bsp/\libucosii_bsp.a(altera_avalon_jtag_uart_init.o)
 .comment       0x0000000000000023       0x24 ../lab4_bsp/\libucosii_bsp.a(altera_avalon_jtag_uart_ioctl.o)
 .comment       0x0000000000000023       0x24 ../lab4_bsp/\libucosii_bsp.a(altera_avalon_jtag_uart_read.o)
 .comment       0x0000000000000023       0x24 ../lab4_bsp/\libucosii_bsp.a(altera_avalon_jtag_uart_write.o)
 .comment       0x0000000000000023       0x24 ../lab4_bsp/\libucosii_bsp.a(altera_avalon_timer_sc.o)
 .comment       0x0000000000000023       0x24 ../lab4_bsp/\libucosii_bsp.a(alt_alarm_start.o)
 .comment       0x0000000000000023       0x24 ../lab4_bsp/\libucosii_bsp.a(alt_dcache_flush_all.o)
 .comment       0x0000000000000023       0x24 ../lab4_bsp/\libucosii_bsp.a(alt_dev_llist_insert.o)
 .comment       0x0000000000000023       0x24 ../lab4_bsp/\libucosii_bsp.a(alt_do_ctors.o)
 .comment       0x0000000000000023       0x24 ../lab4_bsp/\libucosii_bsp.a(alt_do_dtors.o)
 .comment       0x0000000000000023       0x24 ../lab4_bsp/\libucosii_bsp.a(alt_icache_flush_all.o)
 .comment       0x0000000000000023       0x24 ../lab4_bsp/\libucosii_bsp.a(alt_iic.o)
 .comment       0x0000000000000023       0x24 ../lab4_bsp/\libucosii_bsp.a(alt_iic_isr_register.o)
 .comment       0x0000000000000023       0x24 ../lab4_bsp/\libucosii_bsp.a(alt_io_redirect.o)
 .comment       0x0000000000000023       0x24 ../lab4_bsp/\libucosii_bsp.a(alt_irq_handler.o)
 .comment       0x0000000000000023       0x24 ../lab4_bsp/\libucosii_bsp.a(alt_irq_vars.o)
 .comment       0x0000000000000023       0x24 ../lab4_bsp/\libucosii_bsp.a(alt_open.o)
 .comment       0x0000000000000023       0x24 ../lab4_bsp/\libucosii_bsp.a(alt_tick.o)
 .comment       0x0000000000000023       0x24 ../lab4_bsp/\libucosii_bsp.a(altera_nios2_gen2_irq.o)
 .comment       0x0000000000000023       0x24 ../lab4_bsp/\libucosii_bsp.a(os_cpu_c.o)
 .comment       0x0000000000000023       0x24 ../lab4_bsp/\libucosii_bsp.a(alt_find_dev.o)
 .comment       0x0000000000000023       0x24 ../lab4_bsp/\libucosii_bsp.a(alt_find_file.o)
 .comment       0x0000000000000023       0x24 ../lab4_bsp/\libucosii_bsp.a(alt_get_fd.o)
 .comment       0x0000000000000023       0x24 ../lab4_bsp/\libucosii_bsp.a(alt_instruction_exception_entry.o)
 .comment       0x0000000000000023       0x24 a:/intelfpga_lite/nios2eds/bin/gnu/h-x86_64-mingw32/bin/../lib/gcc/nios2-elf/5.3.0/../../../../../H-x86_64-mingw32/nios2-elf/lib/mno-hw-mul\libc.a(lib_a-atexit.o)
 .comment       0x0000000000000023       0x24 a:/intelfpga_lite/nios2eds/bin/gnu/h-x86_64-mingw32/bin/../lib/gcc/nios2-elf/5.3.0/../../../../../H-x86_64-mingw32/nios2-elf/lib/mno-hw-mul\libc.a(lib_a-exit.o)
 .comment       0x0000000000000023       0x24 a:/intelfpga_lite/nios2eds/bin/gnu/h-x86_64-mingw32/bin/../lib/gcc/nios2-elf/5.3.0/../../../../../H-x86_64-mingw32/nios2-elf/lib/mno-hw-mul\libc.a(lib_a-memcmp.o)
 .comment       0x0000000000000023       0x24 a:/intelfpga_lite/nios2eds/bin/gnu/h-x86_64-mingw32/bin/../lib/gcc/nios2-elf/5.3.0/../../../../../H-x86_64-mingw32/nios2-elf/lib/mno-hw-mul\libc.a(lib_a-__atexit.o)
 .comment       0x0000000000000023       0x24 a:/intelfpga_lite/nios2eds/bin/gnu/h-x86_64-mingw32/bin/../lib/gcc/nios2-elf/5.3.0/../../../../../H-x86_64-mingw32/nios2-elf/lib/mno-hw-mul\libc.a(lib_a-__call_atexit.o)
 .comment       0x0000000000000023       0x24 ../lab4_bsp/\libucosii_bsp.a(alt_exit.o)

.debug
 *(.debug)

.line
 *(.line)

.debug_srcinfo
 *(.debug_srcinfo)

.debug_sfnames
 *(.debug_sfnames)

.debug_aranges  0x0000000000000000      0xb90
 *(.debug_aranges)
 .debug_aranges
                0x0000000000000000       0x28 ../lab4_bsp//obj/HAL/src/crt0.o
 .debug_aranges
                0x0000000000000028       0x20 obj/default/hello_ucosii.o
 .debug_aranges
                0x0000000000000048       0x28 a:/intelfpga_lite/nios2eds/bin/gnu/h-x86_64-mingw32/bin/../lib/gcc/nios2-elf/5.3.0/../../../../../H-x86_64-mingw32/nios2-elf/lib/mno-hw-mul\libc.a(lib_a-puts.o)
 .debug_aranges
                0x0000000000000070       0x20 a:/intelfpga_lite/nios2eds/bin/gnu/h-x86_64-mingw32/bin/../lib/gcc/nios2-elf/5.3.0/../../../../../H-x86_64-mingw32/nios2-elf/lib/mno-hw-mul\libc.a(lib_a-strlen.o)
 .debug_aranges
                0x0000000000000090       0x68 a:/intelfpga_lite/nios2eds/bin/gnu/h-x86_64-mingw32/bin/../lib/gcc/nios2-elf/5.3.0/../../../../../H-x86_64-mingw32/nios2-elf/lib/mno-hw-mul\libc.a(lib_a-findfp.o)
 .debug_aranges
                0x00000000000000f8       0x20 a:/intelfpga_lite/nios2eds/bin/gnu/h-x86_64-mingw32/bin/../lib/gcc/nios2-elf/5.3.0/../../../../../H-x86_64-mingw32/nios2-elf/lib/mno-hw-mul\libc.a(lib_a-fvwrite.o)
 .debug_aranges
                0x0000000000000118       0x28 a:/intelfpga_lite/nios2eds/bin/gnu/h-x86_64-mingw32/bin/../lib/gcc/nios2-elf/5.3.0/../../../../../H-x86_64-mingw32/nios2-elf/lib/mno-hw-mul\libc.a(lib_a-fwalk.o)
 .debug_aranges
                0x0000000000000140       0x18 a:/intelfpga_lite/nios2eds/bin/gnu/h-x86_64-mingw32/bin/../lib/gcc/nios2-elf/5.3.0/../../../../../H-x86_64-mingw32/nios2-elf/lib/mno-hw-mul\libc.a(lib_a-impure.o)
 .debug_aranges
                0x0000000000000158       0x20 a:/intelfpga_lite/nios2eds/bin/gnu/h-x86_64-mingw32/bin/../lib/gcc/nios2-elf/5.3.0/../../../../../H-x86_64-mingw32/nios2-elf/lib/mno-hw-mul\libc.a(lib_a-mallocr.o)
 .debug_aranges
                0x0000000000000178       0x20 a:/intelfpga_lite/nios2eds/bin/gnu/h-x86_64-mingw32/bin/../lib/gcc/nios2-elf/5.3.0/../../../../../H-x86_64-mingw32/nios2-elf/lib/mno-hw-mul\libc.a(lib_a-memchr.o)
 .debug_aranges
                0x0000000000000198       0x20 a:/intelfpga_lite/nios2eds/bin/gnu/h-x86_64-mingw32/bin/../lib/gcc/nios2-elf/5.3.0/../../../../../H-x86_64-mingw32/nios2-elf/lib/mno-hw-mul\libc.a(lib_a-memcpy.o)
 .debug_aranges
                0x00000000000001b8       0x20 a:/intelfpga_lite/nios2eds/bin/gnu/h-x86_64-mingw32/bin/../lib/gcc/nios2-elf/5.3.0/../../../../../H-x86_64-mingw32/nios2-elf/lib/mno-hw-mul\libc.a(lib_a-memmove.o)
 .debug_aranges
                0x00000000000001d8       0x20 a:/intelfpga_lite/nios2eds/bin/gnu/h-x86_64-mingw32/bin/../lib/gcc/nios2-elf/5.3.0/../../../../../H-x86_64-mingw32/nios2-elf/lib/mno-hw-mul\libc.a(lib_a-memset.o)
 .debug_aranges
                0x00000000000001f8       0x20 a:/intelfpga_lite/nios2eds/bin/gnu/h-x86_64-mingw32/bin/../lib/gcc/nios2-elf/5.3.0/../../../../../H-x86_64-mingw32/nios2-elf/lib/mno-hw-mul\libc.a(lib_a-reallocr.o)
 .debug_aranges
                0x0000000000000218       0x20 a:/intelfpga_lite/nios2eds/bin/gnu/h-x86_64-mingw32/bin/../lib/gcc/nios2-elf/5.3.0/../../../../../H-x86_64-mingw32/nios2-elf/lib/mno-hw-mul\libc.a(lib_a-sbrkr.o)
 .debug_aranges
                0x0000000000000238       0x40 a:/intelfpga_lite/nios2eds/bin/gnu/h-x86_64-mingw32/bin/../lib/gcc/nios2-elf/5.3.0/../../../../../H-x86_64-mingw32/nios2-elf/lib/mno-hw-mul\libc.a(lib_a-stdio.o)
 .debug_aranges
                0x0000000000000278       0x20 a:/intelfpga_lite/nios2eds/bin/gnu/h-x86_64-mingw32/bin/../lib/gcc/nios2-elf/5.3.0/../../../../../H-x86_64-mingw32/nios2-elf/lib/mno-hw-mul\libc.a(lib_a-writer.o)
 .debug_aranges
                0x0000000000000298       0x20 a:/intelfpga_lite/nios2eds/bin/gnu/h-x86_64-mingw32/bin/../lib/gcc/nios2-elf/5.3.0/../../../../../H-x86_64-mingw32/nios2-elf/lib/mno-hw-mul\libc.a(lib_a-wsetup.o)
 .debug_aranges
                0x00000000000002b8       0x20 a:/intelfpga_lite/nios2eds/bin/gnu/h-x86_64-mingw32/bin/../lib/gcc/nios2-elf/5.3.0/../../../../../H-x86_64-mingw32/nios2-elf/lib/mno-hw-mul\libc.a(closer.o)
 .debug_aranges
                0x00000000000002d8       0x28 a:/intelfpga_lite/nios2eds/bin/gnu/h-x86_64-mingw32/bin/../lib/gcc/nios2-elf/5.3.0/../../../../../H-x86_64-mingw32/nios2-elf/lib/mno-hw-mul\libc.a(lib_a-fclose.o)
 .debug_aranges
                0x0000000000000300       0x30 a:/intelfpga_lite/nios2eds/bin/gnu/h-x86_64-mingw32/bin/../lib/gcc/nios2-elf/5.3.0/../../../../../H-x86_64-mingw32/nios2-elf/lib/mno-hw-mul\libc.a(lib_a-fflush.o)
 .debug_aranges
                0x0000000000000330       0x28 a:/intelfpga_lite/nios2eds/bin/gnu/h-x86_64-mingw32/bin/../lib/gcc/nios2-elf/5.3.0/../../../../../H-x86_64-mingw32/nios2-elf/lib/mno-hw-mul\libc.a(lib_a-freer.o)
 .debug_aranges
                0x0000000000000358       0x18 a:/intelfpga_lite/nios2eds/bin/gnu/h-x86_64-mingw32/bin/../lib/gcc/nios2-elf/5.3.0/../../../../../H-x86_64-mingw32/nios2-elf/lib/mno-hw-mul\libc.a(lib_a-int_errno.o)
 .debug_aranges
                0x0000000000000370       0x20 a:/intelfpga_lite/nios2eds/bin/gnu/h-x86_64-mingw32/bin/../lib/gcc/nios2-elf/5.3.0/../../../../../H-x86_64-mingw32/nios2-elf/lib/mno-hw-mul\libc.a(lib_a-lseekr.o)
 .debug_aranges
                0x0000000000000390       0x20 a:/intelfpga_lite/nios2eds/bin/gnu/h-x86_64-mingw32/bin/../lib/gcc/nios2-elf/5.3.0/../../../../../H-x86_64-mingw32/nios2-elf/lib/mno-hw-mul\libc.a(lib_a-makebuf.o)
 .debug_aranges
                0x00000000000003b0       0x20 a:/intelfpga_lite/nios2eds/bin/gnu/h-x86_64-mingw32/bin/../lib/gcc/nios2-elf/5.3.0/../../../../../H-x86_64-mingw32/nios2-elf/lib/mno-hw-mul\libc.a(lib_a-readr.o)
 .debug_aranges
                0x00000000000003d0       0x20 a:/intelfpga_lite/nios2eds/bin/gnu/h-x86_64-mingw32/bin/../lib/gcc/nios2-elf/5.3.0/../../../../../H-x86_64-mingw32/nios2-elf/lib/mno-hw-mul\libc.a(lib_a-fstatr.o)
 .debug_aranges
                0x00000000000003f0       0x20 a:/intelfpga_lite/nios2eds/bin/gnu/h-x86_64-mingw32/bin/../lib/gcc/nios2-elf/5.3.0/../../../../../H-x86_64-mingw32/nios2-elf/lib/mno-hw-mul\libc.a(lib_a-isattyr.o)
 .debug_aranges
                0x0000000000000410       0x20 a:/intelfpga_lite/nios2eds/bin/gnu/h-x86_64-mingw32/bin/../lib/gcc/nios2-elf/5.3.0/mno-hw-mul\libgcc.a(lib2-divmod.o)
 .debug_aranges
                0x0000000000000430       0x20 a:/intelfpga_lite/nios2eds/bin/gnu/h-x86_64-mingw32/bin/../lib/gcc/nios2-elf/5.3.0/mno-hw-mul\libgcc.a(lib2-mul.o)
 .debug_aranges
                0x0000000000000450       0x20 ../lab4_bsp/\libucosii_bsp.a(alt_close.o)
 .debug_aranges
                0x0000000000000470       0x20 ../lab4_bsp/\libucosii_bsp.a(alt_dev.o)
 .debug_aranges
                0x0000000000000490       0x18 ../lab4_bsp/\libucosii_bsp.a(alt_errno.o)
 .debug_aranges
                0x00000000000004a8       0x20 ../lab4_bsp/\libucosii_bsp.a(alt_fstat.o)
 .debug_aranges
                0x00000000000004c8       0x20 ../lab4_bsp/\libucosii_bsp.a(alt_isatty.o)
 .debug_aranges
                0x00000000000004e8       0x20 ../lab4_bsp/\libucosii_bsp.a(alt_load.o)
 .debug_aranges
                0x0000000000000508       0x20 ../lab4_bsp/\libucosii_bsp.a(alt_lseek.o)
 .debug_aranges
                0x0000000000000528       0x20 ../lab4_bsp/\libucosii_bsp.a(alt_main.o)
 .debug_aranges
                0x0000000000000548       0x20 ../lab4_bsp/\libucosii_bsp.a(alt_read.o)
 .debug_aranges
                0x0000000000000568       0x20 ../lab4_bsp/\libucosii_bsp.a(alt_release_fd.o)
 .debug_aranges
                0x0000000000000588       0x20 ../lab4_bsp/\libucosii_bsp.a(alt_sbrk.o)
 .debug_aranges
                0x00000000000005a8       0x20 ../lab4_bsp/\libucosii_bsp.a(alt_write.o)
 .debug_aranges
                0x00000000000005c8       0x20 ../lab4_bsp/\libucosii_bsp.a(alt_env_lock.o)
 .debug_aranges
                0x00000000000005e8       0x20 ../lab4_bsp/\libucosii_bsp.a(alt_malloc_lock.o)
 .debug_aranges
                0x0000000000000608       0x20 ../lab4_bsp/\libucosii_bsp.a(os_core.o)
 .debug_aranges
                0x0000000000000628       0x20 ../lab4_bsp/\libucosii_bsp.a(os_dbg.o)
 .debug_aranges
                0x0000000000000648       0x20 ../lab4_bsp/\libucosii_bsp.a(os_flag.o)
 .debug_aranges
                0x0000000000000668       0x20 ../lab4_bsp/\libucosii_bsp.a(os_mem.o)
 .debug_aranges
                0x0000000000000688       0x20 ../lab4_bsp/\libucosii_bsp.a(os_q.o)
 .debug_aranges
                0x00000000000006a8       0x20 ../lab4_bsp/\libucosii_bsp.a(os_sem.o)
 .debug_aranges
                0x00000000000006c8       0x20 ../lab4_bsp/\libucosii_bsp.a(os_task.o)
 .debug_aranges
                0x00000000000006e8       0x20 ../lab4_bsp/\libucosii_bsp.a(os_time.o)
 .debug_aranges
                0x0000000000000708       0x20 ../lab4_bsp/\libucosii_bsp.a(alt_sys_init.o)
 .debug_aranges
                0x0000000000000728       0x20 ../lab4_bsp/\libucosii_bsp.a(altera_avalon_jtag_uart_fd.o)
 .debug_aranges
                0x0000000000000748       0x20 ../lab4_bsp/\libucosii_bsp.a(altera_avalon_jtag_uart_init.o)
 .debug_aranges
                0x0000000000000768       0x20 ../lab4_bsp/\libucosii_bsp.a(altera_avalon_jtag_uart_ioctl.o)
 .debug_aranges
                0x0000000000000788       0x20 ../lab4_bsp/\libucosii_bsp.a(altera_avalon_jtag_uart_read.o)
 .debug_aranges
                0x00000000000007a8       0x20 ../lab4_bsp/\libucosii_bsp.a(altera_avalon_jtag_uart_write.o)
 .debug_aranges
                0x00000000000007c8       0x20 ../lab4_bsp/\libucosii_bsp.a(altera_avalon_timer_sc.o)
 .debug_aranges
                0x00000000000007e8       0x20 ../lab4_bsp/\libucosii_bsp.a(alt_alarm_start.o)
 .debug_aranges
                0x0000000000000808       0x20 ../lab4_bsp/\libucosii_bsp.a(alt_dcache_flush_all.o)
 .debug_aranges
                0x0000000000000828       0x20 ../lab4_bsp/\libucosii_bsp.a(alt_dev_llist_insert.o)
 .debug_aranges
                0x0000000000000848       0x20 ../lab4_bsp/\libucosii_bsp.a(alt_do_ctors.o)
 .debug_aranges
                0x0000000000000868       0x20 ../lab4_bsp/\libucosii_bsp.a(alt_do_dtors.o)
 .debug_aranges
                0x0000000000000888       0x20 ../lab4_bsp/\libucosii_bsp.a(alt_icache_flush_all.o)
 .debug_aranges
                0x00000000000008a8       0x20 ../lab4_bsp/\libucosii_bsp.a(alt_iic.o)
 .debug_aranges
                0x00000000000008c8       0x20 ../lab4_bsp/\libucosii_bsp.a(alt_iic_isr_register.o)
 .debug_aranges
                0x00000000000008e8       0x20 ../lab4_bsp/\libucosii_bsp.a(alt_io_redirect.o)
 .debug_aranges
                0x0000000000000908       0x30 ../lab4_bsp/\libucosii_bsp.a(alt_irq_entry.o)
 .debug_aranges
                0x0000000000000938       0x20 ../lab4_bsp/\libucosii_bsp.a(alt_irq_handler.o)
 .debug_aranges
                0x0000000000000958       0x18 ../lab4_bsp/\libucosii_bsp.a(alt_irq_vars.o)
 .debug_aranges
                0x0000000000000970       0x20 ../lab4_bsp/\libucosii_bsp.a(alt_open.o)
 .debug_aranges
                0x0000000000000990       0x20 ../lab4_bsp/\libucosii_bsp.a(alt_tick.o)
 .debug_aranges
                0x00000000000009b0       0x20 ../lab4_bsp/\libucosii_bsp.a(altera_nios2_gen2_irq.o)
 .debug_aranges
                0x00000000000009d0       0x20 ../lab4_bsp/\libucosii_bsp.a(os_cpu_a.o)
 .debug_aranges
                0x00000000000009f0       0x20 ../lab4_bsp/\libucosii_bsp.a(os_cpu_c.o)
 .debug_aranges
                0x0000000000000a10       0x38 ../lab4_bsp/\libucosii_bsp.a(alt_exception_entry.o)
 .debug_aranges
                0x0000000000000a48       0x20 ../lab4_bsp/\libucosii_bsp.a(alt_find_dev.o)
 .debug_aranges
                0x0000000000000a68       0x20 ../lab4_bsp/\libucosii_bsp.a(alt_find_file.o)
 .debug_aranges
                0x0000000000000a88       0x20 ../lab4_bsp/\libucosii_bsp.a(alt_get_fd.o)
 .debug_aranges
                0x0000000000000aa8       0x28 ../lab4_bsp/\libucosii_bsp.a(alt_instruction_exception_entry.o)
 .debug_aranges
                0x0000000000000ad0       0x20 a:/intelfpga_lite/nios2eds/bin/gnu/h-x86_64-mingw32/bin/../lib/gcc/nios2-elf/5.3.0/../../../../../H-x86_64-mingw32/nios2-elf/lib/mno-hw-mul\libc.a(lib_a-atexit.o)
 .debug_aranges
                0x0000000000000af0       0x20 a:/intelfpga_lite/nios2eds/bin/gnu/h-x86_64-mingw32/bin/../lib/gcc/nios2-elf/5.3.0/../../../../../H-x86_64-mingw32/nios2-elf/lib/mno-hw-mul\libc.a(lib_a-exit.o)
 .debug_aranges
                0x0000000000000b10       0x20 a:/intelfpga_lite/nios2eds/bin/gnu/h-x86_64-mingw32/bin/../lib/gcc/nios2-elf/5.3.0/../../../../../H-x86_64-mingw32/nios2-elf/lib/mno-hw-mul\libc.a(lib_a-memcmp.o)
 .debug_aranges
                0x0000000000000b30       0x20 a:/intelfpga_lite/nios2eds/bin/gnu/h-x86_64-mingw32/bin/../lib/gcc/nios2-elf/5.3.0/../../../../../H-x86_64-mingw32/nios2-elf/lib/mno-hw-mul\libc.a(lib_a-__atexit.o)
 .debug_aranges
                0x0000000000000b50       0x20 a:/intelfpga_lite/nios2eds/bin/gnu/h-x86_64-mingw32/bin/../lib/gcc/nios2-elf/5.3.0/../../../../../H-x86_64-mingw32/nios2-elf/lib/mno-hw-mul\libc.a(lib_a-__call_atexit.o)
 .debug_aranges
                0x0000000000000b70       0x20 ../lab4_bsp/\libucosii_bsp.a(alt_exit.o)

.debug_pubnames
 *(.debug_pubnames)

.debug_info     0x0000000000000000    0x1fb68
 *(.debug_info .gnu.linkonce.wi.*)
 .debug_info    0x0000000000000000       0x5a ../lab4_bsp//obj/HAL/src/crt0.o
 .debug_info    0x000000000000005a      0x152 obj/default/hello_ucosii.o
 .debug_info    0x00000000000001ac      0xa38 a:/intelfpga_lite/nios2eds/bin/gnu/h-x86_64-mingw32/bin/../lib/gcc/nios2-elf/5.3.0/../../../../../H-x86_64-mingw32/nios2-elf/lib/mno-hw-mul\libc.a(lib_a-puts.o)
 .debug_info    0x0000000000000be4       0xe2 a:/intelfpga_lite/nios2eds/bin/gnu/h-x86_64-mingw32/bin/../lib/gcc/nios2-elf/5.3.0/../../../../../H-x86_64-mingw32/nios2-elf/lib/mno-hw-mul\libc.a(lib_a-strlen.o)
 .debug_info    0x0000000000000cc6      0xd36 a:/intelfpga_lite/nios2eds/bin/gnu/h-x86_64-mingw32/bin/../lib/gcc/nios2-elf/5.3.0/../../../../../H-x86_64-mingw32/nios2-elf/lib/mno-hw-mul\libc.a(lib_a-findfp.o)
 .debug_info    0x00000000000019fc      0xbb8 a:/intelfpga_lite/nios2eds/bin/gnu/h-x86_64-mingw32/bin/../lib/gcc/nios2-elf/5.3.0/../../../../../H-x86_64-mingw32/nios2-elf/lib/mno-hw-mul\libc.a(lib_a-fvwrite.o)
 .debug_info    0x00000000000025b4      0x9b0 a:/intelfpga_lite/nios2eds/bin/gnu/h-x86_64-mingw32/bin/../lib/gcc/nios2-elf/5.3.0/../../../../../H-x86_64-mingw32/nios2-elf/lib/mno-hw-mul\libc.a(lib_a-fwalk.o)
 .debug_info    0x0000000000002f64      0x8a1 a:/intelfpga_lite/nios2eds/bin/gnu/h-x86_64-mingw32/bin/../lib/gcc/nios2-elf/5.3.0/../../../../../H-x86_64-mingw32/nios2-elf/lib/mno-hw-mul\libc.a(lib_a-impure.o)
 .debug_info    0x0000000000003805      0xd57 a:/intelfpga_lite/nios2eds/bin/gnu/h-x86_64-mingw32/bin/../lib/gcc/nios2-elf/5.3.0/../../../../../H-x86_64-mingw32/nios2-elf/lib/mno-hw-mul\libc.a(lib_a-mallocr.o)
 .debug_info    0x000000000000455c      0x132 a:/intelfpga_lite/nios2eds/bin/gnu/h-x86_64-mingw32/bin/../lib/gcc/nios2-elf/5.3.0/../../../../../H-x86_64-mingw32/nios2-elf/lib/mno-hw-mul\libc.a(lib_a-memchr.o)
 .debug_info    0x000000000000468e      0x144 a:/intelfpga_lite/nios2eds/bin/gnu/h-x86_64-mingw32/bin/../lib/gcc/nios2-elf/5.3.0/../../../../../H-x86_64-mingw32/nios2-elf/lib/mno-hw-mul\libc.a(lib_a-memcpy.o)
 .debug_info    0x00000000000047d2      0x13a a:/intelfpga_lite/nios2eds/bin/gnu/h-x86_64-mingw32/bin/../lib/gcc/nios2-elf/5.3.0/../../../../../H-x86_64-mingw32/nios2-elf/lib/mno-hw-mul\libc.a(lib_a-memmove.o)
 .debug_info    0x000000000000490c      0x121 a:/intelfpga_lite/nios2eds/bin/gnu/h-x86_64-mingw32/bin/../lib/gcc/nios2-elf/5.3.0/../../../../../H-x86_64-mingw32/nios2-elf/lib/mno-hw-mul\libc.a(lib_a-memset.o)
 .debug_info    0x0000000000004a2d      0xc6b a:/intelfpga_lite/nios2eds/bin/gnu/h-x86_64-mingw32/bin/../lib/gcc/nios2-elf/5.3.0/../../../../../H-x86_64-mingw32/nios2-elf/lib/mno-hw-mul\libc.a(lib_a-reallocr.o)
 .debug_info    0x0000000000005698      0x900 a:/intelfpga_lite/nios2eds/bin/gnu/h-x86_64-mingw32/bin/../lib/gcc/nios2-elf/5.3.0/../../../../../H-x86_64-mingw32/nios2-elf/lib/mno-hw-mul\libc.a(lib_a-sbrkr.o)
 .debug_info    0x0000000000005f98      0xb32 a:/intelfpga_lite/nios2eds/bin/gnu/h-x86_64-mingw32/bin/../lib/gcc/nios2-elf/5.3.0/../../../../../H-x86_64-mingw32/nios2-elf/lib/mno-hw-mul\libc.a(lib_a-stdio.o)
 .debug_info    0x0000000000006aca      0x928 a:/intelfpga_lite/nios2eds/bin/gnu/h-x86_64-mingw32/bin/../lib/gcc/nios2-elf/5.3.0/../../../../../H-x86_64-mingw32/nios2-elf/lib/mno-hw-mul\libc.a(lib_a-writer.o)
 .debug_info    0x00000000000073f2      0x936 a:/intelfpga_lite/nios2eds/bin/gnu/h-x86_64-mingw32/bin/../lib/gcc/nios2-elf/5.3.0/../../../../../H-x86_64-mingw32/nios2-elf/lib/mno-hw-mul\libc.a(lib_a-wsetup.o)
 .debug_info    0x0000000000007d28      0x8df a:/intelfpga_lite/nios2eds/bin/gnu/h-x86_64-mingw32/bin/../lib/gcc/nios2-elf/5.3.0/../../../../../H-x86_64-mingw32/nios2-elf/lib/mno-hw-mul\libc.a(closer.o)
 .debug_info    0x0000000000008607      0xa23 a:/intelfpga_lite/nios2eds/bin/gnu/h-x86_64-mingw32/bin/../lib/gcc/nios2-elf/5.3.0/../../../../../H-x86_64-mingw32/nios2-elf/lib/mno-hw-mul\libc.a(lib_a-fclose.o)
 .debug_info    0x000000000000902a      0xa93 a:/intelfpga_lite/nios2eds/bin/gnu/h-x86_64-mingw32/bin/../lib/gcc/nios2-elf/5.3.0/../../../../../H-x86_64-mingw32/nios2-elf/lib/mno-hw-mul\libc.a(lib_a-fflush.o)
 .debug_info    0x0000000000009abd      0xbf7 a:/intelfpga_lite/nios2eds/bin/gnu/h-x86_64-mingw32/bin/../lib/gcc/nios2-elf/5.3.0/../../../../../H-x86_64-mingw32/nios2-elf/lib/mno-hw-mul\libc.a(lib_a-freer.o)
 .debug_info    0x000000000000a6b4       0x8a a:/intelfpga_lite/nios2eds/bin/gnu/h-x86_64-mingw32/bin/../lib/gcc/nios2-elf/5.3.0/../../../../../H-x86_64-mingw32/nios2-elf/lib/mno-hw-mul\libc.a(lib_a-int_errno.o)
 .debug_info    0x000000000000a73e      0x90b a:/intelfpga_lite/nios2eds/bin/gnu/h-x86_64-mingw32/bin/../lib/gcc/nios2-elf/5.3.0/../../../../../H-x86_64-mingw32/nios2-elf/lib/mno-hw-mul\libc.a(lib_a-lseekr.o)
 .debug_info    0x000000000000b049      0xad8 a:/intelfpga_lite/nios2eds/bin/gnu/h-x86_64-mingw32/bin/../lib/gcc/nios2-elf/5.3.0/../../../../../H-x86_64-mingw32/nios2-elf/lib/mno-hw-mul\libc.a(lib_a-makebuf.o)
 .debug_info    0x000000000000bb21      0x921 a:/intelfpga_lite/nios2eds/bin/gnu/h-x86_64-mingw32/bin/../lib/gcc/nios2-elf/5.3.0/../../../../../H-x86_64-mingw32/nios2-elf/lib/mno-hw-mul\libc.a(lib_a-readr.o)
 .debug_info    0x000000000000c442      0xa5d a:/intelfpga_lite/nios2eds/bin/gnu/h-x86_64-mingw32/bin/../lib/gcc/nios2-elf/5.3.0/../../../../../H-x86_64-mingw32/nios2-elf/lib/mno-hw-mul\libc.a(lib_a-fstatr.o)
 .debug_info    0x000000000000ce9f      0x8df a:/intelfpga_lite/nios2eds/bin/gnu/h-x86_64-mingw32/bin/../lib/gcc/nios2-elf/5.3.0/../../../../../H-x86_64-mingw32/nios2-elf/lib/mno-hw-mul\libc.a(lib_a-isattyr.o)
 .debug_info    0x000000000000d77e      0x2c6 a:/intelfpga_lite/nios2eds/bin/gnu/h-x86_64-mingw32/bin/../lib/gcc/nios2-elf/5.3.0/mno-hw-mul\libgcc.a(lib2-divmod.o)
 .debug_info    0x000000000000da44       0xb4 a:/intelfpga_lite/nios2eds/bin/gnu/h-x86_64-mingw32/bin/../lib/gcc/nios2-elf/5.3.0/mno-hw-mul\libgcc.a(lib2-mul.o)
 .debug_info    0x000000000000daf8      0x355 ../lab4_bsp/\libucosii_bsp.a(alt_close.o)
 .debug_info    0x000000000000de4d      0x585 ../lab4_bsp/\libucosii_bsp.a(alt_dev.o)
 .debug_info    0x000000000000e3d2       0xa6 ../lab4_bsp/\libucosii_bsp.a(alt_errno.o)
 .debug_info    0x000000000000e478      0x4bc ../lab4_bsp/\libucosii_bsp.a(alt_fstat.o)
 .debug_info    0x000000000000e934      0x4bf ../lab4_bsp/\libucosii_bsp.a(alt_isatty.o)
 .debug_info    0x000000000000edf3      0x145 ../lab4_bsp/\libucosii_bsp.a(alt_load.o)
 .debug_info    0x000000000000ef38      0x386 ../lab4_bsp/\libucosii_bsp.a(alt_lseek.o)
 .debug_info    0x000000000000f2be      0x26d ../lab4_bsp/\libucosii_bsp.a(alt_main.o)
 .debug_info    0x000000000000f52b      0x4e4 ../lab4_bsp/\libucosii_bsp.a(alt_read.o)
 .debug_info    0x000000000000fa0f      0x2f9 ../lab4_bsp/\libucosii_bsp.a(alt_release_fd.o)
 .debug_info    0x000000000000fd08      0x1ac ../lab4_bsp/\libucosii_bsp.a(alt_sbrk.o)
 .debug_info    0x000000000000feb4      0x4eb ../lab4_bsp/\libucosii_bsp.a(alt_write.o)
 .debug_info    0x000000000001039f      0xc67 ../lab4_bsp/\libucosii_bsp.a(alt_env_lock.o)
 .debug_info    0x0000000000011006      0xdad ../lab4_bsp/\libucosii_bsp.a(alt_malloc_lock.o)
 .debug_info    0x0000000000011db3     0x15b9 ../lab4_bsp/\libucosii_bsp.a(os_core.o)
 .debug_info    0x000000000001336c      0xaa8 ../lab4_bsp/\libucosii_bsp.a(os_dbg.o)
 .debug_info    0x0000000000013e14      0xf9c ../lab4_bsp/\libucosii_bsp.a(os_flag.o)
 .debug_info    0x0000000000014db0      0x67a ../lab4_bsp/\libucosii_bsp.a(os_mem.o)
 .debug_info    0x000000000001542a      0xda3 ../lab4_bsp/\libucosii_bsp.a(os_q.o)
 .debug_info    0x00000000000161cd      0xa04 ../lab4_bsp/\libucosii_bsp.a(os_sem.o)
 .debug_info    0x0000000000016bd1     0x1117 ../lab4_bsp/\libucosii_bsp.a(os_task.o)
 .debug_info    0x0000000000017ce8      0x6e9 ../lab4_bsp/\libucosii_bsp.a(os_time.o)
 .debug_info    0x00000000000183d1      0x626 ../lab4_bsp/\libucosii_bsp.a(alt_sys_init.o)
 .debug_info    0x00000000000189f7      0x67b ../lab4_bsp/\libucosii_bsp.a(altera_avalon_jtag_uart_fd.o)
 .debug_info    0x0000000000019072      0x6b3 ../lab4_bsp/\libucosii_bsp.a(altera_avalon_jtag_uart_init.o)
 .debug_info    0x0000000000019725      0x3cd ../lab4_bsp/\libucosii_bsp.a(altera_avalon_jtag_uart_ioctl.o)
 .debug_info    0x0000000000019af2      0x57a ../lab4_bsp/\libucosii_bsp.a(altera_avalon_jtag_uart_read.o)
 .debug_info    0x000000000001a06c      0x579 ../lab4_bsp/\libucosii_bsp.a(altera_avalon_jtag_uart_write.o)
 .debug_info    0x000000000001a5e5      0x226 ../lab4_bsp/\libucosii_bsp.a(altera_avalon_timer_sc.o)
 .debug_info    0x000000000001a80b      0x2cc ../lab4_bsp/\libucosii_bsp.a(alt_alarm_start.o)
 .debug_info    0x000000000001aad7       0x92 ../lab4_bsp/\libucosii_bsp.a(alt_dcache_flush_all.o)
 .debug_info    0x000000000001ab69      0x1a9 ../lab4_bsp/\libucosii_bsp.a(alt_dev_llist_insert.o)
 .debug_info    0x000000000001ad12       0x83 ../lab4_bsp/\libucosii_bsp.a(alt_do_ctors.o)
 .debug_info    0x000000000001ad95       0x83 ../lab4_bsp/\libucosii_bsp.a(alt_do_dtors.o)
 .debug_info    0x000000000001ae18       0x92 ../lab4_bsp/\libucosii_bsp.a(alt_icache_flush_all.o)
 .debug_info    0x000000000001aeaa      0x350 ../lab4_bsp/\libucosii_bsp.a(alt_iic.o)
 .debug_info    0x000000000001b1fa      0x1ef ../lab4_bsp/\libucosii_bsp.a(alt_iic_isr_register.o)
 .debug_info    0x000000000001b3e9      0x4d9 ../lab4_bsp/\libucosii_bsp.a(alt_io_redirect.o)
 .debug_info    0x000000000001b8c2       0x63 ../lab4_bsp/\libucosii_bsp.a(alt_irq_entry.o)
 .debug_info    0x000000000001b925      0x1b0 ../lab4_bsp/\libucosii_bsp.a(alt_irq_handler.o)
 .debug_info    0x000000000001bad5       0x88 ../lab4_bsp/\libucosii_bsp.a(alt_irq_vars.o)
 .debug_info    0x000000000001bb5d      0x3e4 ../lab4_bsp/\libucosii_bsp.a(alt_open.o)
 .debug_info    0x000000000001bf41      0x2a7 ../lab4_bsp/\libucosii_bsp.a(alt_tick.o)
 .debug_info    0x000000000001c1e8       0x92 ../lab4_bsp/\libucosii_bsp.a(altera_nios2_gen2_irq.o)
 .debug_info    0x000000000001c27a       0x62 ../lab4_bsp/\libucosii_bsp.a(os_cpu_a.o)
 .debug_info    0x000000000001c2dc      0xcea ../lab4_bsp/\libucosii_bsp.a(os_cpu_c.o)
 .debug_info    0x000000000001cfc6       0x69 ../lab4_bsp/\libucosii_bsp.a(alt_exception_entry.o)
 .debug_info    0x000000000001d02f      0x31d ../lab4_bsp/\libucosii_bsp.a(alt_find_dev.o)
 .debug_info    0x000000000001d34c      0x31a ../lab4_bsp/\libucosii_bsp.a(alt_find_file.o)
 .debug_info    0x000000000001d666      0x44b ../lab4_bsp/\libucosii_bsp.a(alt_get_fd.o)
 .debug_info    0x000000000001dab1      0x1e7 ../lab4_bsp/\libucosii_bsp.a(alt_instruction_exception_entry.o)
 .debug_info    0x000000000001dc98       0xfe a:/intelfpga_lite/nios2eds/bin/gnu/h-x86_64-mingw32/bin/../lib/gcc/nios2-elf/5.3.0/../../../../../H-x86_64-mingw32/nios2-elf/lib/mno-hw-mul\libc.a(lib_a-atexit.o)
 .debug_info    0x000000000001dd96      0x8e4 a:/intelfpga_lite/nios2eds/bin/gnu/h-x86_64-mingw32/bin/../lib/gcc/nios2-elf/5.3.0/../../../../../H-x86_64-mingw32/nios2-elf/lib/mno-hw-mul\libc.a(lib_a-exit.o)
 .debug_info    0x000000000001e67a      0x11a a:/intelfpga_lite/nios2eds/bin/gnu/h-x86_64-mingw32/bin/../lib/gcc/nios2-elf/5.3.0/../../../../../H-x86_64-mingw32/nios2-elf/lib/mno-hw-mul\libc.a(lib_a-memcmp.o)
 .debug_info    0x000000000001e794      0x934 a:/intelfpga_lite/nios2eds/bin/gnu/h-x86_64-mingw32/bin/../lib/gcc/nios2-elf/5.3.0/../../../../../H-x86_64-mingw32/nios2-elf/lib/mno-hw-mul\libc.a(lib_a-__atexit.o)
 .debug_info    0x000000000001f0c8      0x965 a:/intelfpga_lite/nios2eds/bin/gnu/h-x86_64-mingw32/bin/../lib/gcc/nios2-elf/5.3.0/../../../../../H-x86_64-mingw32/nios2-elf/lib/mno-hw-mul\libc.a(lib_a-__call_atexit.o)
 .debug_info    0x000000000001fa2d      0x13b ../lab4_bsp/\libucosii_bsp.a(alt_exit.o)

.debug_abbrev   0x0000000000000000     0x7ae6
 *(.debug_abbrev)
 .debug_abbrev  0x0000000000000000       0x12 ../lab4_bsp//obj/HAL/src/crt0.o
 .debug_abbrev  0x0000000000000012       0xbc obj/default/hello_ucosii.o
 .debug_abbrev  0x00000000000000ce      0x249 a:/intelfpga_lite/nios2eds/bin/gnu/h-x86_64-mingw32/bin/../lib/gcc/nios2-elf/5.3.0/../../../../../H-x86_64-mingw32/nios2-elf/lib/mno-hw-mul\libc.a(lib_a-puts.o)
 .debug_abbrev  0x0000000000000317       0x90 a:/intelfpga_lite/nios2eds/bin/gnu/h-x86_64-mingw32/bin/../lib/gcc/nios2-elf/5.3.0/../../../../../H-x86_64-mingw32/nios2-elf/lib/mno-hw-mul\libc.a(lib_a-strlen.o)
 .debug_abbrev  0x00000000000003a7      0x3ad a:/intelfpga_lite/nios2eds/bin/gnu/h-x86_64-mingw32/bin/../lib/gcc/nios2-elf/5.3.0/../../../../../H-x86_64-mingw32/nios2-elf/lib/mno-hw-mul\libc.a(lib_a-findfp.o)
 .debug_abbrev  0x0000000000000754      0x228 a:/intelfpga_lite/nios2eds/bin/gnu/h-x86_64-mingw32/bin/../lib/gcc/nios2-elf/5.3.0/../../../../../H-x86_64-mingw32/nios2-elf/lib/mno-hw-mul\libc.a(lib_a-fvwrite.o)
 .debug_abbrev  0x000000000000097c      0x1d1 a:/intelfpga_lite/nios2eds/bin/gnu/h-x86_64-mingw32/bin/../lib/gcc/nios2-elf/5.3.0/../../../../../H-x86_64-mingw32/nios2-elf/lib/mno-hw-mul\libc.a(lib_a-fwalk.o)
 .debug_abbrev  0x0000000000000b4d      0x18f a:/intelfpga_lite/nios2eds/bin/gnu/h-x86_64-mingw32/bin/../lib/gcc/nios2-elf/5.3.0/../../../../../H-x86_64-mingw32/nios2-elf/lib/mno-hw-mul\libc.a(lib_a-impure.o)
 .debug_abbrev  0x0000000000000cdc      0x29d a:/intelfpga_lite/nios2eds/bin/gnu/h-x86_64-mingw32/bin/../lib/gcc/nios2-elf/5.3.0/../../../../../H-x86_64-mingw32/nios2-elf/lib/mno-hw-mul\libc.a(lib_a-mallocr.o)
 .debug_abbrev  0x0000000000000f79       0xab a:/intelfpga_lite/nios2eds/bin/gnu/h-x86_64-mingw32/bin/../lib/gcc/nios2-elf/5.3.0/../../../../../H-x86_64-mingw32/nios2-elf/lib/mno-hw-mul\libc.a(lib_a-memchr.o)
 .debug_abbrev  0x0000000000001024       0xa3 a:/intelfpga_lite/nios2eds/bin/gnu/h-x86_64-mingw32/bin/../lib/gcc/nios2-elf/5.3.0/../../../../../H-x86_64-mingw32/nios2-elf/lib/mno-hw-mul\libc.a(lib_a-memcpy.o)
 .debug_abbrev  0x00000000000010c7       0x9c a:/intelfpga_lite/nios2eds/bin/gnu/h-x86_64-mingw32/bin/../lib/gcc/nios2-elf/5.3.0/../../../../../H-x86_64-mingw32/nios2-elf/lib/mno-hw-mul\libc.a(lib_a-memmove.o)
 .debug_abbrev  0x0000000000001163       0xae a:/intelfpga_lite/nios2eds/bin/gnu/h-x86_64-mingw32/bin/../lib/gcc/nios2-elf/5.3.0/../../../../../H-x86_64-mingw32/nios2-elf/lib/mno-hw-mul\libc.a(lib_a-memset.o)
 .debug_abbrev  0x0000000000001211      0x231 a:/intelfpga_lite/nios2eds/bin/gnu/h-x86_64-mingw32/bin/../lib/gcc/nios2-elf/5.3.0/../../../../../H-x86_64-mingw32/nios2-elf/lib/mno-hw-mul\libc.a(lib_a-reallocr.o)
 .debug_abbrev  0x0000000000001442      0x20a a:/intelfpga_lite/nios2eds/bin/gnu/h-x86_64-mingw32/bin/../lib/gcc/nios2-elf/5.3.0/../../../../../H-x86_64-mingw32/nios2-elf/lib/mno-hw-mul\libc.a(lib_a-sbrkr.o)
 .debug_abbrev  0x000000000000164c      0x239 a:/intelfpga_lite/nios2eds/bin/gnu/h-x86_64-mingw32/bin/../lib/gcc/nios2-elf/5.3.0/../../../../../H-x86_64-mingw32/nios2-elf/lib/mno-hw-mul\libc.a(lib_a-stdio.o)
 .debug_abbrev  0x0000000000001885      0x1eb a:/intelfpga_lite/nios2eds/bin/gnu/h-x86_64-mingw32/bin/../lib/gcc/nios2-elf/5.3.0/../../../../../H-x86_64-mingw32/nios2-elf/lib/mno-hw-mul\libc.a(lib_a-writer.o)
 .debug_abbrev  0x0000000000001a70      0x218 a:/intelfpga_lite/nios2eds/bin/gnu/h-x86_64-mingw32/bin/../lib/gcc/nios2-elf/5.3.0/../../../../../H-x86_64-mingw32/nios2-elf/lib/mno-hw-mul\libc.a(lib_a-wsetup.o)
 .debug_abbrev  0x0000000000001c88      0x1e6 a:/intelfpga_lite/nios2eds/bin/gnu/h-x86_64-mingw32/bin/../lib/gcc/nios2-elf/5.3.0/../../../../../H-x86_64-mingw32/nios2-elf/lib/mno-hw-mul\libc.a(closer.o)
 .debug_abbrev  0x0000000000001e6e      0x2a2 a:/intelfpga_lite/nios2eds/bin/gnu/h-x86_64-mingw32/bin/../lib/gcc/nios2-elf/5.3.0/../../../../../H-x86_64-mingw32/nios2-elf/lib/mno-hw-mul\libc.a(lib_a-fclose.o)
 .debug_abbrev  0x0000000000002110      0x2a0 a:/intelfpga_lite/nios2eds/bin/gnu/h-x86_64-mingw32/bin/../lib/gcc/nios2-elf/5.3.0/../../../../../H-x86_64-mingw32/nios2-elf/lib/mno-hw-mul\libc.a(lib_a-fflush.o)
 .debug_abbrev  0x00000000000023b0      0x264 a:/intelfpga_lite/nios2eds/bin/gnu/h-x86_64-mingw32/bin/../lib/gcc/nios2-elf/5.3.0/../../../../../H-x86_64-mingw32/nios2-elf/lib/mno-hw-mul\libc.a(lib_a-freer.o)
 .debug_abbrev  0x0000000000002614       0x37 a:/intelfpga_lite/nios2eds/bin/gnu/h-x86_64-mingw32/bin/../lib/gcc/nios2-elf/5.3.0/../../../../../H-x86_64-mingw32/nios2-elf/lib/mno-hw-mul\libc.a(lib_a-int_errno.o)
 .debug_abbrev  0x000000000000264b      0x1f5 a:/intelfpga_lite/nios2eds/bin/gnu/h-x86_64-mingw32/bin/../lib/gcc/nios2-elf/5.3.0/../../../../../H-x86_64-mingw32/nios2-elf/lib/mno-hw-mul\libc.a(lib_a-lseekr.o)
 .debug_abbrev  0x0000000000002840      0x20f a:/intelfpga_lite/nios2eds/bin/gnu/h-x86_64-mingw32/bin/../lib/gcc/nios2-elf/5.3.0/../../../../../H-x86_64-mingw32/nios2-elf/lib/mno-hw-mul\libc.a(lib_a-makebuf.o)
 .debug_abbrev  0x0000000000002a4f      0x1e6 a:/intelfpga_lite/nios2eds/bin/gnu/h-x86_64-mingw32/bin/../lib/gcc/nios2-elf/5.3.0/../../../../../H-x86_64-mingw32/nios2-elf/lib/mno-hw-mul\libc.a(lib_a-readr.o)
 .debug_abbrev  0x0000000000002c35      0x1f5 a:/intelfpga_lite/nios2eds/bin/gnu/h-x86_64-mingw32/bin/../lib/gcc/nios2-elf/5.3.0/../../../../../H-x86_64-mingw32/nios2-elf/lib/mno-hw-mul\libc.a(lib_a-fstatr.o)
 .debug_abbrev  0x0000000000002e2a      0x1e6 a:/intelfpga_lite/nios2eds/bin/gnu/h-x86_64-mingw32/bin/../lib/gcc/nios2-elf/5.3.0/../../../../../H-x86_64-mingw32/nios2-elf/lib/mno-hw-mul\libc.a(lib_a-isattyr.o)
 .debug_abbrev  0x0000000000003010      0x10e a:/intelfpga_lite/nios2eds/bin/gnu/h-x86_64-mingw32/bin/../lib/gcc/nios2-elf/5.3.0/mno-hw-mul\libgcc.a(lib2-divmod.o)
 .debug_abbrev  0x000000000000311e       0x6f a:/intelfpga_lite/nios2eds/bin/gnu/h-x86_64-mingw32/bin/../lib/gcc/nios2-elf/5.3.0/mno-hw-mul\libgcc.a(lib2-mul.o)
 .debug_abbrev  0x000000000000318d      0x126 ../lab4_bsp/\libucosii_bsp.a(alt_close.o)
 .debug_abbrev  0x00000000000032b3      0x11c ../lab4_bsp/\libucosii_bsp.a(alt_dev.o)
 .debug_abbrev  0x00000000000033cf       0x5a ../lab4_bsp/\libucosii_bsp.a(alt_errno.o)
 .debug_abbrev  0x0000000000003429      0x126 ../lab4_bsp/\libucosii_bsp.a(alt_fstat.o)
 .debug_abbrev  0x000000000000354f      0x126 ../lab4_bsp/\libucosii_bsp.a(alt_isatty.o)
 .debug_abbrev  0x0000000000003675       0x9f ../lab4_bsp/\libucosii_bsp.a(alt_load.o)
 .debug_abbrev  0x0000000000003714      0x126 ../lab4_bsp/\libucosii_bsp.a(alt_lseek.o)
 .debug_abbrev  0x000000000000383a      0x139 ../lab4_bsp/\libucosii_bsp.a(alt_main.o)
 .debug_abbrev  0x0000000000003973      0x135 ../lab4_bsp/\libucosii_bsp.a(alt_read.o)
 .debug_abbrev  0x0000000000003aa8       0xe5 ../lab4_bsp/\libucosii_bsp.a(alt_release_fd.o)
 .debug_abbrev  0x0000000000003b8d      0x112 ../lab4_bsp/\libucosii_bsp.a(alt_sbrk.o)
 .debug_abbrev  0x0000000000003c9f      0x13a ../lab4_bsp/\libucosii_bsp.a(alt_write.o)
 .debug_abbrev  0x0000000000003dd9      0x1e3 ../lab4_bsp/\libucosii_bsp.a(alt_env_lock.o)
 .debug_abbrev  0x0000000000003fbc      0x26d ../lab4_bsp/\libucosii_bsp.a(alt_malloc_lock.o)
 .debug_abbrev  0x0000000000004229      0x302 ../lab4_bsp/\libucosii_bsp.a(os_core.o)
 .debug_abbrev  0x000000000000452b       0xf7 ../lab4_bsp/\libucosii_bsp.a(os_dbg.o)
 .debug_abbrev  0x0000000000004622      0x25a ../lab4_bsp/\libucosii_bsp.a(os_flag.o)
 .debug_abbrev  0x000000000000487c      0x228 ../lab4_bsp/\libucosii_bsp.a(os_mem.o)
 .debug_abbrev  0x0000000000004aa4      0x248 ../lab4_bsp/\libucosii_bsp.a(os_q.o)
 .debug_abbrev  0x0000000000004cec      0x262 ../lab4_bsp/\libucosii_bsp.a(os_sem.o)
 .debug_abbrev  0x0000000000004f4e      0x247 ../lab4_bsp/\libucosii_bsp.a(os_task.o)
 .debug_abbrev  0x0000000000005195      0x20c ../lab4_bsp/\libucosii_bsp.a(os_time.o)
 .debug_abbrev  0x00000000000053a1      0x1cc ../lab4_bsp/\libucosii_bsp.a(alt_sys_init.o)
 .debug_abbrev  0x000000000000556d      0x16c ../lab4_bsp/\libucosii_bsp.a(altera_avalon_jtag_uart_fd.o)
 .debug_abbrev  0x00000000000056d9      0x24f ../lab4_bsp/\libucosii_bsp.a(altera_avalon_jtag_uart_init.o)
 .debug_abbrev  0x0000000000005928      0x156 ../lab4_bsp/\libucosii_bsp.a(altera_avalon_jtag_uart_ioctl.o)
 .debug_abbrev  0x0000000000005a7e      0x1f8 ../lab4_bsp/\libucosii_bsp.a(altera_avalon_jtag_uart_read.o)
 .debug_abbrev  0x0000000000005c76      0x1f6 ../lab4_bsp/\libucosii_bsp.a(altera_avalon_jtag_uart_write.o)
 .debug_abbrev  0x0000000000005e6c      0x155 ../lab4_bsp/\libucosii_bsp.a(altera_avalon_timer_sc.o)
 .debug_abbrev  0x0000000000005fc1      0x162 ../lab4_bsp/\libucosii_bsp.a(alt_alarm_start.o)
 .debug_abbrev  0x0000000000006123       0x42 ../lab4_bsp/\libucosii_bsp.a(alt_dcache_flush_all.o)
 .debug_abbrev  0x0000000000006165      0x114 ../lab4_bsp/\libucosii_bsp.a(alt_dev_llist_insert.o)
 .debug_abbrev  0x0000000000006279       0x79 ../lab4_bsp/\libucosii_bsp.a(alt_do_ctors.o)
 .debug_abbrev  0x00000000000062f2       0x79 ../lab4_bsp/\libucosii_bsp.a(alt_do_dtors.o)
 .debug_abbrev  0x000000000000636b       0x42 ../lab4_bsp/\libucosii_bsp.a(alt_icache_flush_all.o)
 .debug_abbrev  0x00000000000063ad      0x163 ../lab4_bsp/\libucosii_bsp.a(alt_iic.o)
 .debug_abbrev  0x0000000000006510      0x169 ../lab4_bsp/\libucosii_bsp.a(alt_iic_isr_register.o)
 .debug_abbrev  0x0000000000006679      0x11b ../lab4_bsp/\libucosii_bsp.a(alt_io_redirect.o)
 .debug_abbrev  0x0000000000006794       0x12 ../lab4_bsp/\libucosii_bsp.a(alt_irq_entry.o)
 .debug_abbrev  0x00000000000067a6      0x13a ../lab4_bsp/\libucosii_bsp.a(alt_irq_handler.o)
 .debug_abbrev  0x00000000000068e0       0x40 ../lab4_bsp/\libucosii_bsp.a(alt_irq_vars.o)
 .debug_abbrev  0x0000000000006920      0x14f ../lab4_bsp/\libucosii_bsp.a(alt_open.o)
 .debug_abbrev  0x0000000000006a6f      0x15a ../lab4_bsp/\libucosii_bsp.a(alt_tick.o)
 .debug_abbrev  0x0000000000006bc9       0x42 ../lab4_bsp/\libucosii_bsp.a(altera_nios2_gen2_irq.o)
 .debug_abbrev  0x0000000000006c0b       0x14 ../lab4_bsp/\libucosii_bsp.a(os_cpu_a.o)
 .debug_abbrev  0x0000000000006c1f      0x215 ../lab4_bsp/\libucosii_bsp.a(os_cpu_c.o)
 .debug_abbrev  0x0000000000006e34       0x12 ../lab4_bsp/\libucosii_bsp.a(alt_exception_entry.o)
 .debug_abbrev  0x0000000000006e46       0xf7 ../lab4_bsp/\libucosii_bsp.a(alt_find_dev.o)
 .debug_abbrev  0x0000000000006f3d       0xf7 ../lab4_bsp/\libucosii_bsp.a(alt_find_file.o)
 .debug_abbrev  0x0000000000007034      0x19b ../lab4_bsp/\libucosii_bsp.a(alt_get_fd.o)
 .debug_abbrev  0x00000000000071cf       0xdc ../lab4_bsp/\libucosii_bsp.a(alt_instruction_exception_entry.o)
 .debug_abbrev  0x00000000000072ab       0xaa a:/intelfpga_lite/nios2eds/bin/gnu/h-x86_64-mingw32/bin/../lib/gcc/nios2-elf/5.3.0/../../../../../H-x86_64-mingw32/nios2-elf/lib/mno-hw-mul\libc.a(lib_a-atexit.o)
 .debug_abbrev  0x0000000000007355      0x1e5 a:/intelfpga_lite/nios2eds/bin/gnu/h-x86_64-mingw32/bin/../lib/gcc/nios2-elf/5.3.0/../../../../../H-x86_64-mingw32/nios2-elf/lib/mno-hw-mul\libc.a(lib_a-exit.o)
 .debug_abbrev  0x000000000000753a       0x7f a:/intelfpga_lite/nios2eds/bin/gnu/h-x86_64-mingw32/bin/../lib/gcc/nios2-elf/5.3.0/../../../../../H-x86_64-mingw32/nios2-elf/lib/mno-hw-mul\libc.a(lib_a-memcmp.o)
 .debug_abbrev  0x00000000000075b9      0x21e a:/intelfpga_lite/nios2eds/bin/gnu/h-x86_64-mingw32/bin/../lib/gcc/nios2-elf/5.3.0/../../../../../H-x86_64-mingw32/nios2-elf/lib/mno-hw-mul\libc.a(lib_a-__atexit.o)
 .debug_abbrev  0x00000000000077d7      0x22e a:/intelfpga_lite/nios2eds/bin/gnu/h-x86_64-mingw32/bin/../lib/gcc/nios2-elf/5.3.0/../../../../../H-x86_64-mingw32/nios2-elf/lib/mno-hw-mul\libc.a(lib_a-__call_atexit.o)
 .debug_abbrev  0x0000000000007a05       0xe1 ../lab4_bsp/\libucosii_bsp.a(alt_exit.o)

.debug_line     0x0000000000000000     0x8eb8
 *(.debug_line)
 .debug_line    0x0000000000000000       0x66 ../lab4_bsp//obj/HAL/src/crt0.o
 .debug_line    0x0000000000000066       0xc8 obj/default/hello_ucosii.o
 .debug_line    0x000000000000012e      0x248 a:/intelfpga_lite/nios2eds/bin/gnu/h-x86_64-mingw32/bin/../lib/gcc/nios2-elf/5.3.0/../../../../../H-x86_64-mingw32/nios2-elf/lib/mno-hw-mul\libc.a(lib_a-puts.o)
 .debug_line    0x0000000000000376      0x16f a:/intelfpga_lite/nios2eds/bin/gnu/h-x86_64-mingw32/bin/../lib/gcc/nios2-elf/5.3.0/../../../../../H-x86_64-mingw32/nios2-elf/lib/mno-hw-mul\libc.a(lib_a-strlen.o)
 .debug_line    0x00000000000004e5      0x375 a:/intelfpga_lite/nios2eds/bin/gnu/h-x86_64-mingw32/bin/../lib/gcc/nios2-elf/5.3.0/../../../../../H-x86_64-mingw32/nios2-elf/lib/mno-hw-mul\libc.a(lib_a-findfp.o)
 .debug_line    0x000000000000085a      0x346 a:/intelfpga_lite/nios2eds/bin/gnu/h-x86_64-mingw32/bin/../lib/gcc/nios2-elf/5.3.0/../../../../../H-x86_64-mingw32/nios2-elf/lib/mno-hw-mul\libc.a(lib_a-fvwrite.o)
 .debug_line    0x0000000000000ba0      0x23a a:/intelfpga_lite/nios2eds/bin/gnu/h-x86_64-mingw32/bin/../lib/gcc/nios2-elf/5.3.0/../../../../../H-x86_64-mingw32/nios2-elf/lib/mno-hw-mul\libc.a(lib_a-fwalk.o)
 .debug_line    0x0000000000000dda      0x160 a:/intelfpga_lite/nios2eds/bin/gnu/h-x86_64-mingw32/bin/../lib/gcc/nios2-elf/5.3.0/../../../../../H-x86_64-mingw32/nios2-elf/lib/mno-hw-mul\libc.a(lib_a-impure.o)
 .debug_line    0x0000000000000f3a      0x3fc a:/intelfpga_lite/nios2eds/bin/gnu/h-x86_64-mingw32/bin/../lib/gcc/nios2-elf/5.3.0/../../../../../H-x86_64-mingw32/nios2-elf/lib/mno-hw-mul\libc.a(lib_a-mallocr.o)
 .debug_line    0x0000000000001336      0x18d a:/intelfpga_lite/nios2eds/bin/gnu/h-x86_64-mingw32/bin/../lib/gcc/nios2-elf/5.3.0/../../../../../H-x86_64-mingw32/nios2-elf/lib/mno-hw-mul\libc.a(lib_a-memchr.o)
 .debug_line    0x00000000000014c3      0x18c a:/intelfpga_lite/nios2eds/bin/gnu/h-x86_64-mingw32/bin/../lib/gcc/nios2-elf/5.3.0/../../../../../H-x86_64-mingw32/nios2-elf/lib/mno-hw-mul\libc.a(lib_a-memcpy.o)
 .debug_line    0x000000000000164f      0x18d a:/intelfpga_lite/nios2eds/bin/gnu/h-x86_64-mingw32/bin/../lib/gcc/nios2-elf/5.3.0/../../../../../H-x86_64-mingw32/nios2-elf/lib/mno-hw-mul\libc.a(lib_a-memmove.o)
 .debug_line    0x00000000000017dc      0x18f a:/intelfpga_lite/nios2eds/bin/gnu/h-x86_64-mingw32/bin/../lib/gcc/nios2-elf/5.3.0/../../../../../H-x86_64-mingw32/nios2-elf/lib/mno-hw-mul\libc.a(lib_a-memset.o)
 .debug_line    0x000000000000196b      0x2f5 a:/intelfpga_lite/nios2eds/bin/gnu/h-x86_64-mingw32/bin/../lib/gcc/nios2-elf/5.3.0/../../../../../H-x86_64-mingw32/nios2-elf/lib/mno-hw-mul\libc.a(lib_a-reallocr.o)
 .debug_line    0x0000000000001c60      0x1e9 a:/intelfpga_lite/nios2eds/bin/gnu/h-x86_64-mingw32/bin/../lib/gcc/nios2-elf/5.3.0/../../../../../H-x86_64-mingw32/nios2-elf/lib/mno-hw-mul\libc.a(lib_a-sbrkr.o)
 .debug_line    0x0000000000001e49      0x26a a:/intelfpga_lite/nios2eds/bin/gnu/h-x86_64-mingw32/bin/../lib/gcc/nios2-elf/5.3.0/../../../../../H-x86_64-mingw32/nios2-elf/lib/mno-hw-mul\libc.a(lib_a-stdio.o)
 .debug_line    0x00000000000020b3      0x1f6 a:/intelfpga_lite/nios2eds/bin/gnu/h-x86_64-mingw32/bin/../lib/gcc/nios2-elf/5.3.0/../../../../../H-x86_64-mingw32/nios2-elf/lib/mno-hw-mul\libc.a(lib_a-writer.o)
 .debug_line    0x00000000000022a9      0x266 a:/intelfpga_lite/nios2eds/bin/gnu/h-x86_64-mingw32/bin/../lib/gcc/nios2-elf/5.3.0/../../../../../H-x86_64-mingw32/nios2-elf/lib/mno-hw-mul\libc.a(lib_a-wsetup.o)
 .debug_line    0x000000000000250f      0x1f6 a:/intelfpga_lite/nios2eds/bin/gnu/h-x86_64-mingw32/bin/../lib/gcc/nios2-elf/5.3.0/../../../../../H-x86_64-mingw32/nios2-elf/lib/mno-hw-mul\libc.a(closer.o)
 .debug_line    0x0000000000002705      0x239 a:/intelfpga_lite/nios2eds/bin/gnu/h-x86_64-mingw32/bin/../lib/gcc/nios2-elf/5.3.0/../../../../../H-x86_64-mingw32/nios2-elf/lib/mno-hw-mul\libc.a(lib_a-fclose.o)
 .debug_line    0x000000000000293e      0x2ea a:/intelfpga_lite/nios2eds/bin/gnu/h-x86_64-mingw32/bin/../lib/gcc/nios2-elf/5.3.0/../../../../../H-x86_64-mingw32/nios2-elf/lib/mno-hw-mul\libc.a(lib_a-fflush.o)
 .debug_line    0x0000000000002c28      0x2f7 a:/intelfpga_lite/nios2eds/bin/gnu/h-x86_64-mingw32/bin/../lib/gcc/nios2-elf/5.3.0/../../../../../H-x86_64-mingw32/nios2-elf/lib/mno-hw-mul\libc.a(lib_a-freer.o)
 .debug_line    0x0000000000002f1f       0x5f a:/intelfpga_lite/nios2eds/bin/gnu/h-x86_64-mingw32/bin/../lib/gcc/nios2-elf/5.3.0/../../../../../H-x86_64-mingw32/nios2-elf/lib/mno-hw-mul\libc.a(lib_a-int_errno.o)
 .debug_line    0x0000000000002f7e      0x1f6 a:/intelfpga_lite/nios2eds/bin/gnu/h-x86_64-mingw32/bin/../lib/gcc/nios2-elf/5.3.0/../../../../../H-x86_64-mingw32/nios2-elf/lib/mno-hw-mul\libc.a(lib_a-lseekr.o)
 .debug_line    0x0000000000003174      0x274 a:/intelfpga_lite/nios2eds/bin/gnu/h-x86_64-mingw32/bin/../lib/gcc/nios2-elf/5.3.0/../../../../../H-x86_64-mingw32/nios2-elf/lib/mno-hw-mul\libc.a(lib_a-makebuf.o)
 .debug_line    0x00000000000033e8      0x1f5 a:/intelfpga_lite/nios2eds/bin/gnu/h-x86_64-mingw32/bin/../lib/gcc/nios2-elf/5.3.0/../../../../../H-x86_64-mingw32/nios2-elf/lib/mno-hw-mul\libc.a(lib_a-readr.o)
 .debug_line    0x00000000000035dd      0x1ff a:/intelfpga_lite/nios2eds/bin/gnu/h-x86_64-mingw32/bin/../lib/gcc/nios2-elf/5.3.0/../../../../../H-x86_64-mingw32/nios2-elf/lib/mno-hw-mul\libc.a(lib_a-fstatr.o)
 .debug_line    0x00000000000037dc      0x1f7 a:/intelfpga_lite/nios2eds/bin/gnu/h-x86_64-mingw32/bin/../lib/gcc/nios2-elf/5.3.0/../../../../../H-x86_64-mingw32/nios2-elf/lib/mno-hw-mul\libc.a(lib_a-isattyr.o)
 .debug_line    0x00000000000039d3      0x105 a:/intelfpga_lite/nios2eds/bin/gnu/h-x86_64-mingw32/bin/../lib/gcc/nios2-elf/5.3.0/mno-hw-mul\libgcc.a(lib2-divmod.o)
 .debug_line    0x0000000000003ad8       0x80 a:/intelfpga_lite/nios2eds/bin/gnu/h-x86_64-mingw32/bin/../lib/gcc/nios2-elf/5.3.0/mno-hw-mul\libgcc.a(lib2-mul.o)
 .debug_line    0x0000000000003b58      0x16f ../lab4_bsp/\libucosii_bsp.a(alt_close.o)
 .debug_line    0x0000000000003cc7      0x137 ../lab4_bsp/\libucosii_bsp.a(alt_dev.o)
 .debug_line    0x0000000000003dfe       0x51 ../lab4_bsp/\libucosii_bsp.a(alt_errno.o)
 .debug_line    0x0000000000003e4f      0x168 ../lab4_bsp/\libucosii_bsp.a(alt_fstat.o)
 .debug_line    0x0000000000003fb7      0x16c ../lab4_bsp/\libucosii_bsp.a(alt_isatty.o)
 .debug_line    0x0000000000004123       0x8e ../lab4_bsp/\libucosii_bsp.a(alt_load.o)
 .debug_line    0x00000000000041b1      0x16d ../lab4_bsp/\libucosii_bsp.a(alt_lseek.o)
 .debug_line    0x000000000000431e      0x12f ../lab4_bsp/\libucosii_bsp.a(alt_main.o)
 .debug_line    0x000000000000444d      0x1e1 ../lab4_bsp/\libucosii_bsp.a(alt_read.o)
 .debug_line    0x000000000000462e       0xbf ../lab4_bsp/\libucosii_bsp.a(alt_release_fd.o)
 .debug_line    0x00000000000046ed       0xee ../lab4_bsp/\libucosii_bsp.a(alt_sbrk.o)
 .debug_line    0x00000000000047db      0x1e0 ../lab4_bsp/\libucosii_bsp.a(alt_write.o)
 .debug_line    0x00000000000049bb      0x1a0 ../lab4_bsp/\libucosii_bsp.a(alt_env_lock.o)
 .debug_line    0x0000000000004b5b      0x204 ../lab4_bsp/\libucosii_bsp.a(alt_malloc_lock.o)
 .debug_line    0x0000000000004d5f      0x68b ../lab4_bsp/\libucosii_bsp.a(os_core.o)
 .debug_line    0x00000000000053ea       0xd2 ../lab4_bsp/\libucosii_bsp.a(os_dbg.o)
 .debug_line    0x00000000000054bc      0x4ff ../lab4_bsp/\libucosii_bsp.a(os_flag.o)
 .debug_line    0x00000000000059bb      0x23f ../lab4_bsp/\libucosii_bsp.a(os_mem.o)
 .debug_line    0x0000000000005bfa      0x3fb ../lab4_bsp/\libucosii_bsp.a(os_q.o)
 .debug_line    0x0000000000005ff5      0x2e0 ../lab4_bsp/\libucosii_bsp.a(os_sem.o)
 .debug_line    0x00000000000062d5      0x52d ../lab4_bsp/\libucosii_bsp.a(os_task.o)
 .debug_line    0x0000000000006802      0x1a8 ../lab4_bsp/\libucosii_bsp.a(os_time.o)
 .debug_line    0x00000000000069aa      0x177 ../lab4_bsp/\libucosii_bsp.a(alt_sys_init.o)
 .debug_line    0x0000000000006b21      0x155 ../lab4_bsp/\libucosii_bsp.a(altera_avalon_jtag_uart_fd.o)
 .debug_line    0x0000000000006c76      0x225 ../lab4_bsp/\libucosii_bsp.a(altera_avalon_jtag_uart_init.o)
 .debug_line    0x0000000000006e9b      0x157 ../lab4_bsp/\libucosii_bsp.a(altera_avalon_jtag_uart_ioctl.o)
 .debug_line    0x0000000000006ff2      0x1db ../lab4_bsp/\libucosii_bsp.a(altera_avalon_jtag_uart_read.o)
 .debug_line    0x00000000000071cd      0x1dc ../lab4_bsp/\libucosii_bsp.a(altera_avalon_jtag_uart_write.o)
 .debug_line    0x00000000000073a9       0xfd ../lab4_bsp/\libucosii_bsp.a(altera_avalon_timer_sc.o)
 .debug_line    0x00000000000074a6       0xf9 ../lab4_bsp/\libucosii_bsp.a(alt_alarm_start.o)
 .debug_line    0x000000000000759f       0x51 ../lab4_bsp/\libucosii_bsp.a(alt_dcache_flush_all.o)
 .debug_line    0x00000000000075f0       0xcf ../lab4_bsp/\libucosii_bsp.a(alt_dev_llist_insert.o)
 .debug_line    0x00000000000076bf       0x59 ../lab4_bsp/\libucosii_bsp.a(alt_do_ctors.o)
 .debug_line    0x0000000000007718       0x59 ../lab4_bsp/\libucosii_bsp.a(alt_do_dtors.o)
 .debug_line    0x0000000000007771       0x4f ../lab4_bsp/\libucosii_bsp.a(alt_icache_flush_all.o)
 .debug_line    0x00000000000077c0       0xeb ../lab4_bsp/\libucosii_bsp.a(alt_iic.o)
 .debug_line    0x00000000000078ab       0xdb ../lab4_bsp/\libucosii_bsp.a(alt_iic_isr_register.o)
 .debug_line    0x0000000000007986      0x13f ../lab4_bsp/\libucosii_bsp.a(alt_io_redirect.o)
 .debug_line    0x0000000000007ac5       0x6b ../lab4_bsp/\libucosii_bsp.a(alt_irq_entry.o)
 .debug_line    0x0000000000007b30       0xc8 ../lab4_bsp/\libucosii_bsp.a(alt_irq_handler.o)
 .debug_line    0x0000000000007bf8       0x50 ../lab4_bsp/\libucosii_bsp.a(alt_irq_vars.o)
 .debug_line    0x0000000000007c48      0x13a ../lab4_bsp/\libucosii_bsp.a(alt_open.o)
 .debug_line    0x0000000000007d82       0xff ../lab4_bsp/\libucosii_bsp.a(alt_tick.o)
 .debug_line    0x0000000000007e81       0x51 ../lab4_bsp/\libucosii_bsp.a(altera_nios2_gen2_irq.o)
 .debug_line    0x0000000000007ed2       0x86 ../lab4_bsp/\libucosii_bsp.a(os_cpu_a.o)
 .debug_line    0x0000000000007f58      0x1a8 ../lab4_bsp/\libucosii_bsp.a(os_cpu_c.o)
 .debug_line    0x0000000000008100       0xb3 ../lab4_bsp/\libucosii_bsp.a(alt_exception_entry.o)
 .debug_line    0x00000000000081b3       0xc4 ../lab4_bsp/\libucosii_bsp.a(alt_find_dev.o)
 .debug_line    0x0000000000008277       0xe0 ../lab4_bsp/\libucosii_bsp.a(alt_find_file.o)
 .debug_line    0x0000000000008357      0x128 ../lab4_bsp/\libucosii_bsp.a(alt_get_fd.o)
 .debug_line    0x000000000000847f       0xb9 ../lab4_bsp/\libucosii_bsp.a(alt_instruction_exception_entry.o)
 .debug_line    0x0000000000008538       0xe7 a:/intelfpga_lite/nios2eds/bin/gnu/h-x86_64-mingw32/bin/../lib/gcc/nios2-elf/5.3.0/../../../../../H-x86_64-mingw32/nios2-elf/lib/mno-hw-mul\libc.a(lib_a-atexit.o)
 .debug_line    0x000000000000861f      0x1fc a:/intelfpga_lite/nios2eds/bin/gnu/h-x86_64-mingw32/bin/../lib/gcc/nios2-elf/5.3.0/../../../../../H-x86_64-mingw32/nios2-elf/lib/mno-hw-mul\libc.a(lib_a-exit.o)
 .debug_line    0x000000000000881b      0x176 a:/intelfpga_lite/nios2eds/bin/gnu/h-x86_64-mingw32/bin/../lib/gcc/nios2-elf/5.3.0/../../../../../H-x86_64-mingw32/nios2-elf/lib/mno-hw-mul\libc.a(lib_a-memcmp.o)
 .debug_line    0x0000000000008991      0x21f a:/intelfpga_lite/nios2eds/bin/gnu/h-x86_64-mingw32/bin/../lib/gcc/nios2-elf/5.3.0/../../../../../H-x86_64-mingw32/nios2-elf/lib/mno-hw-mul\libc.a(lib_a-__atexit.o)
 .debug_line    0x0000000000008bb0      0x23a a:/intelfpga_lite/nios2eds/bin/gnu/h-x86_64-mingw32/bin/../lib/gcc/nios2-elf/5.3.0/../../../../../H-x86_64-mingw32/nios2-elf/lib/mno-hw-mul\libc.a(lib_a-__call_atexit.o)
 .debug_line    0x0000000000008dea       0xce ../lab4_bsp/\libucosii_bsp.a(alt_exit.o)

.debug_frame    0x0000000000000000     0x2600
 *(.debug_frame)
 .debug_frame   0x0000000000000000       0x70 obj/default/hello_ucosii.o
 .debug_frame   0x0000000000000070       0x48 a:/intelfpga_lite/nios2eds/bin/gnu/h-x86_64-mingw32/bin/../lib/gcc/nios2-elf/5.3.0/../../../../../H-x86_64-mingw32/nios2-elf/lib/mno-hw-mul\libc.a(lib_a-puts.o)
 .debug_frame   0x00000000000000b8       0x20 a:/intelfpga_lite/nios2eds/bin/gnu/h-x86_64-mingw32/bin/../lib/gcc/nios2-elf/5.3.0/../../../../../H-x86_64-mingw32/nios2-elf/lib/mno-hw-mul\libc.a(lib_a-strlen.o)
 .debug_frame   0x00000000000000d8      0x160 a:/intelfpga_lite/nios2eds/bin/gnu/h-x86_64-mingw32/bin/../lib/gcc/nios2-elf/5.3.0/../../../../../H-x86_64-mingw32/nios2-elf/lib/mno-hw-mul\libc.a(lib_a-findfp.o)
 .debug_frame   0x0000000000000238       0x78 a:/intelfpga_lite/nios2eds/bin/gnu/h-x86_64-mingw32/bin/../lib/gcc/nios2-elf/5.3.0/../../../../../H-x86_64-mingw32/nios2-elf/lib/mno-hw-mul\libc.a(lib_a-fvwrite.o)
 .debug_frame   0x00000000000002b0       0x90 a:/intelfpga_lite/nios2eds/bin/gnu/h-x86_64-mingw32/bin/../lib/gcc/nios2-elf/5.3.0/../../../../../H-x86_64-mingw32/nios2-elf/lib/mno-hw-mul\libc.a(lib_a-fwalk.o)
 .debug_frame   0x0000000000000340       0x54 a:/intelfpga_lite/nios2eds/bin/gnu/h-x86_64-mingw32/bin/../lib/gcc/nios2-elf/5.3.0/../../../../../H-x86_64-mingw32/nios2-elf/lib/mno-hw-mul\libc.a(lib_a-mallocr.o)
 .debug_frame   0x0000000000000394       0x20 a:/intelfpga_lite/nios2eds/bin/gnu/h-x86_64-mingw32/bin/../lib/gcc/nios2-elf/5.3.0/../../../../../H-x86_64-mingw32/nios2-elf/lib/mno-hw-mul\libc.a(lib_a-memchr.o)
 .debug_frame   0x00000000000003b4       0x38 a:/intelfpga_lite/nios2eds/bin/gnu/h-x86_64-mingw32/bin/../lib/gcc/nios2-elf/5.3.0/../../../../../H-x86_64-mingw32/nios2-elf/lib/mno-hw-mul\libc.a(lib_a-memcpy.o)
 .debug_frame   0x00000000000003ec       0x20 a:/intelfpga_lite/nios2eds/bin/gnu/h-x86_64-mingw32/bin/../lib/gcc/nios2-elf/5.3.0/../../../../../H-x86_64-mingw32/nios2-elf/lib/mno-hw-mul\libc.a(lib_a-memmove.o)
 .debug_frame   0x000000000000040c       0x20 a:/intelfpga_lite/nios2eds/bin/gnu/h-x86_64-mingw32/bin/../lib/gcc/nios2-elf/5.3.0/../../../../../H-x86_64-mingw32/nios2-elf/lib/mno-hw-mul\libc.a(lib_a-memset.o)
 .debug_frame   0x000000000000042c       0x70 a:/intelfpga_lite/nios2eds/bin/gnu/h-x86_64-mingw32/bin/../lib/gcc/nios2-elf/5.3.0/../../../../../H-x86_64-mingw32/nios2-elf/lib/mno-hw-mul\libc.a(lib_a-reallocr.o)
 .debug_frame   0x000000000000049c       0x38 a:/intelfpga_lite/nios2eds/bin/gnu/h-x86_64-mingw32/bin/../lib/gcc/nios2-elf/5.3.0/../../../../../H-x86_64-mingw32/nios2-elf/lib/mno-hw-mul\libc.a(lib_a-sbrkr.o)
 .debug_frame   0x00000000000004d4       0xb4 a:/intelfpga_lite/nios2eds/bin/gnu/h-x86_64-mingw32/bin/../lib/gcc/nios2-elf/5.3.0/../../../../../H-x86_64-mingw32/nios2-elf/lib/mno-hw-mul\libc.a(lib_a-stdio.o)
 .debug_frame   0x0000000000000588       0x38 a:/intelfpga_lite/nios2eds/bin/gnu/h-x86_64-mingw32/bin/../lib/gcc/nios2-elf/5.3.0/../../../../../H-x86_64-mingw32/nios2-elf/lib/mno-hw-mul\libc.a(lib_a-writer.o)
 .debug_frame   0x00000000000005c0       0x38 a:/intelfpga_lite/nios2eds/bin/gnu/h-x86_64-mingw32/bin/../lib/gcc/nios2-elf/5.3.0/../../../../../H-x86_64-mingw32/nios2-elf/lib/mno-hw-mul\libc.a(lib_a-wsetup.o)
 .debug_frame   0x00000000000005f8       0x38 a:/intelfpga_lite/nios2eds/bin/gnu/h-x86_64-mingw32/bin/../lib/gcc/nios2-elf/5.3.0/../../../../../H-x86_64-mingw32/nios2-elf/lib/mno-hw-mul\libc.a(closer.o)
 .debug_frame   0x0000000000000630       0x54 a:/intelfpga_lite/nios2eds/bin/gnu/h-x86_64-mingw32/bin/../lib/gcc/nios2-elf/5.3.0/../../../../../H-x86_64-mingw32/nios2-elf/lib/mno-hw-mul\libc.a(lib_a-fclose.o)
 .debug_frame   0x0000000000000684       0x7c a:/intelfpga_lite/nios2eds/bin/gnu/h-x86_64-mingw32/bin/../lib/gcc/nios2-elf/5.3.0/../../../../../H-x86_64-mingw32/nios2-elf/lib/mno-hw-mul\libc.a(lib_a-fflush.o)
 .debug_frame   0x0000000000000700       0x70 a:/intelfpga_lite/nios2eds/bin/gnu/h-x86_64-mingw32/bin/../lib/gcc/nios2-elf/5.3.0/../../../../../H-x86_64-mingw32/nios2-elf/lib/mno-hw-mul\libc.a(lib_a-freer.o)
 .debug_frame   0x0000000000000770       0x38 a:/intelfpga_lite/nios2eds/bin/gnu/h-x86_64-mingw32/bin/../lib/gcc/nios2-elf/5.3.0/../../../../../H-x86_64-mingw32/nios2-elf/lib/mno-hw-mul\libc.a(lib_a-lseekr.o)
 .debug_frame   0x00000000000007a8       0x4c a:/intelfpga_lite/nios2eds/bin/gnu/h-x86_64-mingw32/bin/../lib/gcc/nios2-elf/5.3.0/../../../../../H-x86_64-mingw32/nios2-elf/lib/mno-hw-mul\libc.a(lib_a-makebuf.o)
 .debug_frame   0x00000000000007f4       0x38 a:/intelfpga_lite/nios2eds/bin/gnu/h-x86_64-mingw32/bin/../lib/gcc/nios2-elf/5.3.0/../../../../../H-x86_64-mingw32/nios2-elf/lib/mno-hw-mul\libc.a(lib_a-readr.o)
 .debug_frame   0x000000000000082c       0x38 a:/intelfpga_lite/nios2eds/bin/gnu/h-x86_64-mingw32/bin/../lib/gcc/nios2-elf/5.3.0/../../../../../H-x86_64-mingw32/nios2-elf/lib/mno-hw-mul\libc.a(lib_a-fstatr.o)
 .debug_frame   0x0000000000000864       0x38 a:/intelfpga_lite/nios2eds/bin/gnu/h-x86_64-mingw32/bin/../lib/gcc/nios2-elf/5.3.0/../../../../../H-x86_64-mingw32/nios2-elf/lib/mno-hw-mul\libc.a(lib_a-isattyr.o)
 .debug_frame   0x000000000000089c       0x50 a:/intelfpga_lite/nios2eds/bin/gnu/h-x86_64-mingw32/bin/../lib/gcc/nios2-elf/5.3.0/mno-hw-mul\libgcc.a(lib2-divmod.o)
 .debug_frame   0x00000000000008ec       0x20 a:/intelfpga_lite/nios2eds/bin/gnu/h-x86_64-mingw32/bin/../lib/gcc/nios2-elf/5.3.0/mno-hw-mul\libgcc.a(lib2-mul.o)
 .debug_frame   0x000000000000090c       0x60 ../lab4_bsp/\libucosii_bsp.a(alt_close.o)
 .debug_frame   0x000000000000096c       0x34 ../lab4_bsp/\libucosii_bsp.a(alt_dev.o)
 .debug_frame   0x00000000000009a0       0x60 ../lab4_bsp/\libucosii_bsp.a(alt_fstat.o)
 .debug_frame   0x0000000000000a00       0x60 ../lab4_bsp/\libucosii_bsp.a(alt_isatty.o)
 .debug_frame   0x0000000000000a60       0x5c ../lab4_bsp/\libucosii_bsp.a(alt_load.o)
 .debug_frame   0x0000000000000abc       0x60 ../lab4_bsp/\libucosii_bsp.a(alt_lseek.o)
 .debug_frame   0x0000000000000b1c       0x2c ../lab4_bsp/\libucosii_bsp.a(alt_main.o)
 .debug_frame   0x0000000000000b48       0x60 ../lab4_bsp/\libucosii_bsp.a(alt_read.o)
 .debug_frame   0x0000000000000ba8       0x3c ../lab4_bsp/\libucosii_bsp.a(alt_release_fd.o)
 .debug_frame   0x0000000000000be4       0x34 ../lab4_bsp/\libucosii_bsp.a(alt_sbrk.o)
 .debug_frame   0x0000000000000c18       0x60 ../lab4_bsp/\libucosii_bsp.a(alt_write.o)
 .debug_frame   0x0000000000000c78       0x60 ../lab4_bsp/\libucosii_bsp.a(alt_env_lock.o)
 .debug_frame   0x0000000000000cd8       0x64 ../lab4_bsp/\libucosii_bsp.a(alt_malloc_lock.o)
 .debug_frame   0x0000000000000d3c      0x530 ../lab4_bsp/\libucosii_bsp.a(os_core.o)
 .debug_frame   0x000000000000126c       0x34 ../lab4_bsp/\libucosii_bsp.a(os_dbg.o)
 .debug_frame   0x00000000000012a0      0x200 ../lab4_bsp/\libucosii_bsp.a(os_flag.o)
 .debug_frame   0x00000000000014a0      0x118 ../lab4_bsp/\libucosii_bsp.a(os_mem.o)
 .debug_frame   0x00000000000015b8      0x1bc ../lab4_bsp/\libucosii_bsp.a(os_q.o)
 .debug_frame   0x0000000000001774      0x144 ../lab4_bsp/\libucosii_bsp.a(os_sem.o)
 .debug_frame   0x00000000000018b8      0x1e4 ../lab4_bsp/\libucosii_bsp.a(os_task.o)
 .debug_frame   0x0000000000001a9c       0xd8 ../lab4_bsp/\libucosii_bsp.a(os_time.o)
 .debug_frame   0x0000000000001b74       0x88 ../lab4_bsp/\libucosii_bsp.a(alt_sys_init.o)
 .debug_frame   0x0000000000001bfc       0xb0 ../lab4_bsp/\libucosii_bsp.a(altera_avalon_jtag_uart_fd.o)
 .debug_frame   0x0000000000001cac       0xac ../lab4_bsp/\libucosii_bsp.a(altera_avalon_jtag_uart_init.o)
 .debug_frame   0x0000000000001d58       0x34 ../lab4_bsp/\libucosii_bsp.a(altera_avalon_jtag_uart_ioctl.o)
 .debug_frame   0x0000000000001d8c       0x38 ../lab4_bsp/\libucosii_bsp.a(altera_avalon_jtag_uart_read.o)
 .debug_frame   0x0000000000001dc4       0x38 ../lab4_bsp/\libucosii_bsp.a(altera_avalon_jtag_uart_write.o)
 .debug_frame   0x0000000000001dfc       0x60 ../lab4_bsp/\libucosii_bsp.a(altera_avalon_timer_sc.o)
 .debug_frame   0x0000000000001e5c       0x34 ../lab4_bsp/\libucosii_bsp.a(alt_alarm_start.o)
 .debug_frame   0x0000000000001e90       0x34 ../lab4_bsp/\libucosii_bsp.a(alt_dcache_flush_all.o)
 .debug_frame   0x0000000000001ec4       0x60 ../lab4_bsp/\libucosii_bsp.a(alt_dev_llist_insert.o)
 .debug_frame   0x0000000000001f24       0x38 ../lab4_bsp/\libucosii_bsp.a(alt_do_ctors.o)
 .debug_frame   0x0000000000001f5c       0x38 ../lab4_bsp/\libucosii_bsp.a(alt_do_dtors.o)
 .debug_frame   0x0000000000001f94       0x34 ../lab4_bsp/\libucosii_bsp.a(alt_icache_flush_all.o)
 .debug_frame   0x0000000000001fc8       0xa4 ../lab4_bsp/\libucosii_bsp.a(alt_iic.o)
 .debug_frame   0x000000000000206c       0x38 ../lab4_bsp/\libucosii_bsp.a(alt_iic_isr_register.o)
 .debug_frame   0x00000000000020a4       0x64 ../lab4_bsp/\libucosii_bsp.a(alt_io_redirect.o)
 .debug_frame   0x0000000000002108       0x38 ../lab4_bsp/\libucosii_bsp.a(alt_irq_handler.o)
 .debug_frame   0x0000000000002140       0x8c ../lab4_bsp/\libucosii_bsp.a(alt_open.o)
 .debug_frame   0x00000000000021cc       0x5c ../lab4_bsp/\libucosii_bsp.a(alt_tick.o)
 .debug_frame   0x0000000000002228       0x34 ../lab4_bsp/\libucosii_bsp.a(altera_nios2_gen2_irq.o)
 .debug_frame   0x000000000000225c      0x17c ../lab4_bsp/\libucosii_bsp.a(os_cpu_c.o)
 .debug_frame   0x00000000000023d8       0x38 ../lab4_bsp/\libucosii_bsp.a(alt_find_dev.o)
 .debug_frame   0x0000000000002410       0x38 ../lab4_bsp/\libucosii_bsp.a(alt_find_file.o)
 .debug_frame   0x0000000000002448       0x3c ../lab4_bsp/\libucosii_bsp.a(alt_get_fd.o)
 .debug_frame   0x0000000000002484       0x5c ../lab4_bsp/\libucosii_bsp.a(alt_instruction_exception_entry.o)
 .debug_frame   0x00000000000024e0       0x20 a:/intelfpga_lite/nios2eds/bin/gnu/h-x86_64-mingw32/bin/../lib/gcc/nios2-elf/5.3.0/../../../../../H-x86_64-mingw32/nios2-elf/lib/mno-hw-mul\libc.a(lib_a-atexit.o)
 .debug_frame   0x0000000000002500       0x28 a:/intelfpga_lite/nios2eds/bin/gnu/h-x86_64-mingw32/bin/../lib/gcc/nios2-elf/5.3.0/../../../../../H-x86_64-mingw32/nios2-elf/lib/mno-hw-mul\libc.a(lib_a-exit.o)
 .debug_frame   0x0000000000002528       0x20 a:/intelfpga_lite/nios2eds/bin/gnu/h-x86_64-mingw32/bin/../lib/gcc/nios2-elf/5.3.0/../../../../../H-x86_64-mingw32/nios2-elf/lib/mno-hw-mul\libc.a(lib_a-memcmp.o)
 .debug_frame   0x0000000000002548       0x38 a:/intelfpga_lite/nios2eds/bin/gnu/h-x86_64-mingw32/bin/../lib/gcc/nios2-elf/5.3.0/../../../../../H-x86_64-mingw32/nios2-elf/lib/mno-hw-mul\libc.a(lib_a-__atexit.o)
 .debug_frame   0x0000000000002580       0x54 a:/intelfpga_lite/nios2eds/bin/gnu/h-x86_64-mingw32/bin/../lib/gcc/nios2-elf/5.3.0/../../../../../H-x86_64-mingw32/nios2-elf/lib/mno-hw-mul\libc.a(lib_a-__call_atexit.o)
 .debug_frame   0x00000000000025d4       0x2c ../lab4_bsp/\libucosii_bsp.a(alt_exit.o)

.debug_str      0x0000000000000000     0x38a2
 *(.debug_str)
 .debug_str     0x0000000000000000      0x135 obj/default/hello_ucosii.o
                                        0x17a (size before relaxing)
 .debug_str     0x0000000000000135      0x4f4 a:/intelfpga_lite/nios2eds/bin/gnu/h-x86_64-mingw32/bin/../lib/gcc/nios2-elf/5.3.0/../../../../../H-x86_64-mingw32/nios2-elf/lib/mno-hw-mul\libc.a(lib_a-puts.o)
                                        0x61c (size before relaxing)
 .debug_str     0x0000000000000629       0xd9 a:/intelfpga_lite/nios2eds/bin/gnu/h-x86_64-mingw32/bin/../lib/gcc/nios2-elf/5.3.0/../../../../../H-x86_64-mingw32/nios2-elf/lib/mno-hw-mul\libc.a(lib_a-strlen.o)
                                        0x1f7 (size before relaxing)
 .debug_str     0x0000000000000702      0x146 a:/intelfpga_lite/nios2eds/bin/gnu/h-x86_64-mingw32/bin/../lib/gcc/nios2-elf/5.3.0/../../../../../H-x86_64-mingw32/nios2-elf/lib/mno-hw-mul\libc.a(lib_a-findfp.o)
                                        0x6cb (size before relaxing)
 .debug_str     0x0000000000000848       0x9a a:/intelfpga_lite/nios2eds/bin/gnu/h-x86_64-mingw32/bin/../lib/gcc/nios2-elf/5.3.0/../../../../../H-x86_64-mingw32/nios2-elf/lib/mno-hw-mul\libc.a(lib_a-fvwrite.o)
                                        0x647 (size before relaxing)
 .debug_str     0x00000000000008e2       0x4a a:/intelfpga_lite/nios2eds/bin/gnu/h-x86_64-mingw32/bin/../lib/gcc/nios2-elf/5.3.0/../../../../../H-x86_64-mingw32/nios2-elf/lib/mno-hw-mul\libc.a(lib_a-fwalk.o)
                                        0x5ba (size before relaxing)
 .debug_str     0x000000000000092c       0xd6 a:/intelfpga_lite/nios2eds/bin/gnu/h-x86_64-mingw32/bin/../lib/gcc/nios2-elf/5.3.0/../../../../../H-x86_64-mingw32/nios2-elf/lib/mno-hw-mul\libc.a(lib_a-impure.o)
                                        0x5b5 (size before relaxing)
 .debug_str     0x0000000000000a02      0x2bb a:/intelfpga_lite/nios2eds/bin/gnu/h-x86_64-mingw32/bin/../lib/gcc/nios2-elf/5.3.0/../../../../../H-x86_64-mingw32/nios2-elf/lib/mno-hw-mul\libc.a(lib_a-mallocr.o)
                                        0x7ba (size before relaxing)
 .debug_str     0x0000000000000cbd       0x52 a:/intelfpga_lite/nios2eds/bin/gnu/h-x86_64-mingw32/bin/../lib/gcc/nios2-elf/5.3.0/../../../../../H-x86_64-mingw32/nios2-elf/lib/mno-hw-mul\libc.a(lib_a-memchr.o)
                                        0x1fe (size before relaxing)
 .debug_str     0x0000000000000d0f       0x64 a:/intelfpga_lite/nios2eds/bin/gnu/h-x86_64-mingw32/bin/../lib/gcc/nios2-elf/5.3.0/../../../../../H-x86_64-mingw32/nios2-elf/lib/mno-hw-mul\libc.a(lib_a-memcpy.o)
                                        0x20b (size before relaxing)
 .debug_str     0x0000000000000d73       0x47 a:/intelfpga_lite/nios2eds/bin/gnu/h-x86_64-mingw32/bin/../lib/gcc/nios2-elf/5.3.0/../../../../../H-x86_64-mingw32/nios2-elf/lib/mno-hw-mul\libc.a(lib_a-memmove.o)
                                        0x217 (size before relaxing)
 .debug_str     0x0000000000000dba       0x44 a:/intelfpga_lite/nios2eds/bin/gnu/h-x86_64-mingw32/bin/../lib/gcc/nios2-elf/5.3.0/../../../../../H-x86_64-mingw32/nios2-elf/lib/mno-hw-mul\libc.a(lib_a-memset.o)
                                        0x1f8 (size before relaxing)
 .debug_str     0x0000000000000dfe       0x49 a:/intelfpga_lite/nios2eds/bin/gnu/h-x86_64-mingw32/bin/../lib/gcc/nios2-elf/5.3.0/../../../../../H-x86_64-mingw32/nios2-elf/lib/mno-hw-mul\libc.a(lib_a-reallocr.o)
                                        0x696 (size before relaxing)
 .debug_str     0x0000000000000e47       0x4f a:/intelfpga_lite/nios2eds/bin/gnu/h-x86_64-mingw32/bin/../lib/gcc/nios2-elf/5.3.0/../../../../../H-x86_64-mingw32/nios2-elf/lib/mno-hw-mul\libc.a(lib_a-sbrkr.o)
                                        0x5ab (size before relaxing)
 .debug_str     0x0000000000000e96       0x9b a:/intelfpga_lite/nios2eds/bin/gnu/h-x86_64-mingw32/bin/../lib/gcc/nios2-elf/5.3.0/../../../../../H-x86_64-mingw32/nios2-elf/lib/mno-hw-mul\libc.a(lib_a-stdio.o)
                                        0x609 (size before relaxing)
 .debug_str     0x0000000000000f31       0x3c a:/intelfpga_lite/nios2eds/bin/gnu/h-x86_64-mingw32/bin/../lib/gcc/nios2-elf/5.3.0/../../../../../H-x86_64-mingw32/nios2-elf/lib/mno-hw-mul\libc.a(lib_a-writer.o)
                                        0x5af (size before relaxing)
 .debug_str     0x0000000000000f6d       0x49 a:/intelfpga_lite/nios2eds/bin/gnu/h-x86_64-mingw32/bin/../lib/gcc/nios2-elf/5.3.0/../../../../../H-x86_64-mingw32/nios2-elf/lib/mno-hw-mul\libc.a(lib_a-wsetup.o)
                                        0x5d4 (size before relaxing)
 .debug_str     0x0000000000000fb6       0x3c a:/intelfpga_lite/nios2eds/bin/gnu/h-x86_64-mingw32/bin/../lib/gcc/nios2-elf/5.3.0/../../../../../H-x86_64-mingw32/nios2-elf/lib/mno-hw-mul\libc.a(closer.o)
                                        0x59f (size before relaxing)
 .debug_str     0x0000000000000ff2       0x5d a:/intelfpga_lite/nios2eds/bin/gnu/h-x86_64-mingw32/bin/../lib/gcc/nios2-elf/5.3.0/../../../../../H-x86_64-mingw32/nios2-elf/lib/mno-hw-mul\libc.a(lib_a-fclose.o)
                                        0x602 (size before relaxing)
 .debug_str     0x000000000000104f       0x54 a:/intelfpga_lite/nios2eds/bin/gnu/h-x86_64-mingw32/bin/../lib/gcc/nios2-elf/5.3.0/../../../../../H-x86_64-mingw32/nios2-elf/lib/mno-hw-mul\libc.a(lib_a-fflush.o)
                                        0x615 (size before relaxing)
 .debug_str     0x00000000000010a3       0x34 a:/intelfpga_lite/nios2eds/bin/gnu/h-x86_64-mingw32/bin/../lib/gcc/nios2-elf/5.3.0/../../../../../H-x86_64-mingw32/nios2-elf/lib/mno-hw-mul\libc.a(lib_a-freer.o)
                                        0x704 (size before relaxing)
 .debug_str     0x00000000000010d7       0x3f a:/intelfpga_lite/nios2eds/bin/gnu/h-x86_64-mingw32/bin/../lib/gcc/nios2-elf/5.3.0/../../../../../H-x86_64-mingw32/nios2-elf/lib/mno-hw-mul\libc.a(lib_a-int_errno.o)
                                        0x1dd (size before relaxing)
 .debug_str     0x0000000000001116       0x42 a:/intelfpga_lite/nios2eds/bin/gnu/h-x86_64-mingw32/bin/../lib/gcc/nios2-elf/5.3.0/../../../../../H-x86_64-mingw32/nios2-elf/lib/mno-hw-mul\libc.a(lib_a-lseekr.o)
                                        0x5a6 (size before relaxing)
 .debug_str     0x0000000000001158      0x124 a:/intelfpga_lite/nios2eds/bin/gnu/h-x86_64-mingw32/bin/../lib/gcc/nios2-elf/5.3.0/../../../../../H-x86_64-mingw32/nios2-elf/lib/mno-hw-mul\libc.a(lib_a-makebuf.o)
                                        0x6b7 (size before relaxing)
 .debug_str     0x000000000000127c       0x3b a:/intelfpga_lite/nios2eds/bin/gnu/h-x86_64-mingw32/bin/../lib/gcc/nios2-elf/5.3.0/../../../../../H-x86_64-mingw32/nios2-elf/lib/mno-hw-mul\libc.a(lib_a-readr.o)
                                        0x5ac (size before relaxing)
 .debug_str     0x00000000000012b7       0x48 a:/intelfpga_lite/nios2eds/bin/gnu/h-x86_64-mingw32/bin/../lib/gcc/nios2-elf/5.3.0/../../../../../H-x86_64-mingw32/nios2-elf/lib/mno-hw-mul\libc.a(lib_a-fstatr.o)
                                        0x68b (size before relaxing)
 .debug_str     0x00000000000012ff       0x44 a:/intelfpga_lite/nios2eds/bin/gnu/h-x86_64-mingw32/bin/../lib/gcc/nios2-elf/5.3.0/../../../../../H-x86_64-mingw32/nios2-elf/lib/mno-hw-mul\libc.a(lib_a-isattyr.o)
                                        0x5a2 (size before relaxing)
 .debug_str     0x0000000000001343      0x187 a:/intelfpga_lite/nios2eds/bin/gnu/h-x86_64-mingw32/bin/../lib/gcc/nios2-elf/5.3.0/mno-hw-mul\libgcc.a(lib2-divmod.o)
                                        0x1d2 (size before relaxing)
 .debug_str     0x00000000000014ca       0x40 a:/intelfpga_lite/nios2eds/bin/gnu/h-x86_64-mingw32/bin/../lib/gcc/nios2-elf/5.3.0/mno-hw-mul\libgcc.a(lib2-mul.o)
                                        0x193 (size before relaxing)
 .debug_str     0x000000000000150a       0xd2 ../lab4_bsp/\libucosii_bsp.a(alt_close.o)
                                        0x227 (size before relaxing)
 .debug_str     0x00000000000015dc       0xc4 ../lab4_bsp/\libucosii_bsp.a(alt_dev.o)
                                        0x395 (size before relaxing)
 .debug_str     0x00000000000016a0       0x14 ../lab4_bsp/\libucosii_bsp.a(alt_errno.o)
                                        0x131 (size before relaxing)
 .debug_str     0x00000000000016b4       0x14 ../lab4_bsp/\libucosii_bsp.a(alt_fstat.o)
                                        0x308 (size before relaxing)
 .debug_str     0x00000000000016c8       0x15 ../lab4_bsp/\libucosii_bsp.a(alt_isatty.o)
                                        0x310 (size before relaxing)
 .debug_str     0x00000000000016dd       0xe9 ../lab4_bsp/\libucosii_bsp.a(alt_load.o)
                                        0x1fe (size before relaxing)
 .debug_str     0x00000000000017c6       0x14 ../lab4_bsp/\libucosii_bsp.a(alt_lseek.o)
                                        0x22d (size before relaxing)
 .debug_str     0x00000000000017da       0x5d ../lab4_bsp/\libucosii_bsp.a(alt_main.o)
                                        0x24c (size before relaxing)
 .debug_str     0x0000000000001837       0x13 ../lab4_bsp/\libucosii_bsp.a(alt_read.o)
                                        0x313 (size before relaxing)
 .debug_str     0x000000000000184a       0x28 ../lab4_bsp/\libucosii_bsp.a(alt_release_fd.o)
                                        0x211 (size before relaxing)
 .debug_str     0x0000000000001872       0x98 ../lab4_bsp/\libucosii_bsp.a(alt_sbrk.o)
                                        0x1c0 (size before relaxing)
 .debug_str     0x000000000000190a       0x14 ../lab4_bsp/\libucosii_bsp.a(alt_write.o)
                                        0x314 (size before relaxing)
 .debug_str     0x000000000000191e      0x246 ../lab4_bsp/\libucosii_bsp.a(alt_env_lock.o)
                                        0x7b4 (size before relaxing)
 .debug_str     0x0000000000001b64       0x36 ../lab4_bsp/\libucosii_bsp.a(alt_malloc_lock.o)
                                        0x816 (size before relaxing)
 .debug_str     0x0000000000001b9a      0x536 ../lab4_bsp/\libucosii_bsp.a(os_core.o)
                                        0x942 (size before relaxing)
 .debug_str     0x00000000000020d0      0x2e5 ../lab4_bsp/\libucosii_bsp.a(os_dbg.o)
                                        0x8b1 (size before relaxing)
 .debug_str     0x00000000000023b5      0x136 ../lab4_bsp/\libucosii_bsp.a(os_flag.o)
                                        0x5de (size before relaxing)
 .debug_str     0x00000000000024eb       0xcf ../lab4_bsp/\libucosii_bsp.a(os_mem.o)
                                        0x2e7 (size before relaxing)
 .debug_str     0x00000000000025ba       0xc0 ../lab4_bsp/\libucosii_bsp.a(os_q.o)
                                        0x561 (size before relaxing)
 .debug_str     0x000000000000267a       0x77 ../lab4_bsp/\libucosii_bsp.a(os_sem.o)
                                        0x4ea (size before relaxing)
 .debug_str     0x00000000000026f1      0x118 ../lab4_bsp/\libucosii_bsp.a(os_task.o)
                                        0x5ed (size before relaxing)
 .debug_str     0x0000000000002809       0x6d ../lab4_bsp/\libucosii_bsp.a(os_time.o)
                                        0x48d (size before relaxing)
 .debug_str     0x0000000000002876      0x185 ../lab4_bsp/\libucosii_bsp.a(alt_sys_init.o)
                                        0x46a (size before relaxing)
 .debug_str     0x00000000000029fb       0xb2 ../lab4_bsp/\libucosii_bsp.a(altera_avalon_jtag_uart_fd.o)
                                        0x480 (size before relaxing)
 .debug_str     0x0000000000002aad       0xf6 ../lab4_bsp/\libucosii_bsp.a(altera_avalon_jtag_uart_init.o)
                                        0x447 (size before relaxing)
 .debug_str     0x0000000000002ba3       0x4a ../lab4_bsp/\libucosii_bsp.a(altera_avalon_jtag_uart_ioctl.o)
                                        0x36f (size before relaxing)
 .debug_str     0x0000000000002bed       0x63 ../lab4_bsp/\libucosii_bsp.a(altera_avalon_jtag_uart_read.o)
                                        0x3e2 (size before relaxing)
 .debug_str     0x0000000000002c50       0x4a ../lab4_bsp/\libucosii_bsp.a(altera_avalon_jtag_uart_write.o)
                                        0x3e3 (size before relaxing)
 .debug_str     0x0000000000002c9a       0x66 ../lab4_bsp/\libucosii_bsp.a(altera_avalon_timer_sc.o)
                                        0x237 (size before relaxing)
 .debug_str     0x0000000000002d00       0x59 ../lab4_bsp/\libucosii_bsp.a(alt_alarm_start.o)
                                        0x26a (size before relaxing)
 .debug_str     0x0000000000002d59       0x34 ../lab4_bsp/\libucosii_bsp.a(alt_dcache_flush_all.o)
                                        0x141 (size before relaxing)
 .debug_str     0x0000000000002d8d       0x34 ../lab4_bsp/\libucosii_bsp.a(alt_dev_llist_insert.o)
                                        0x1b8 (size before relaxing)
 .debug_str     0x0000000000002dc1       0x48 ../lab4_bsp/\libucosii_bsp.a(alt_do_ctors.o)
                                         0xbc (size before relaxing)
 .debug_str     0x0000000000002e09       0x4c ../lab4_bsp/\libucosii_bsp.a(alt_do_dtors.o)
                                         0xbb (size before relaxing)
 .debug_str     0x0000000000002e55       0x34 ../lab4_bsp/\libucosii_bsp.a(alt_icache_flush_all.o)
                                        0x141 (size before relaxing)
 .debug_str     0x0000000000002e89       0xc4 ../lab4_bsp/\libucosii_bsp.a(alt_iic.o)
                                        0x22a (size before relaxing)
 .debug_str     0x0000000000002f4d       0x4c ../lab4_bsp/\libucosii_bsp.a(alt_iic_isr_register.o)
                                        0x1d4 (size before relaxing)
 .debug_str     0x0000000000002f99       0x56 ../lab4_bsp/\libucosii_bsp.a(alt_io_redirect.o)
                                        0x332 (size before relaxing)
 .debug_str     0x0000000000002fef       0x3a ../lab4_bsp/\libucosii_bsp.a(alt_irq_handler.o)
                                        0x1ab (size before relaxing)
 .debug_str     0x0000000000003029       0x17 ../lab4_bsp/\libucosii_bsp.a(alt_irq_vars.o)
                                        0x126 (size before relaxing)
 .debug_str     0x0000000000003040       0x29 ../lab4_bsp/\libucosii_bsp.a(alt_open.o)
                                        0x25f (size before relaxing)
 .debug_str     0x0000000000003069       0x4a ../lab4_bsp/\libucosii_bsp.a(alt_tick.o)
                                        0x24b (size before relaxing)
 .debug_str     0x00000000000030b3       0x3b ../lab4_bsp/\libucosii_bsp.a(altera_nios2_gen2_irq.o)
                                        0x148 (size before relaxing)
 .debug_str     0x00000000000030ee       0xd5 ../lab4_bsp/\libucosii_bsp.a(os_cpu_c.o)
                                        0x829 (size before relaxing)
 .debug_str     0x00000000000031c3       0x24 ../lab4_bsp/\libucosii_bsp.a(alt_find_dev.o)
                                        0x208 (size before relaxing)
 .debug_str     0x00000000000031e7       0x26 ../lab4_bsp/\libucosii_bsp.a(alt_find_file.o)
                                        0x216 (size before relaxing)
 .debug_str     0x000000000000320d       0x30 ../lab4_bsp/\libucosii_bsp.a(alt_get_fd.o)
                                        0x2b4 (size before relaxing)
 .debug_str     0x000000000000323d      0x48b ../lab4_bsp/\libucosii_bsp.a(alt_instruction_exception_entry.o)
                                        0x58c (size before relaxing)
 .debug_str     0x00000000000036c8       0x81 a:/intelfpga_lite/nios2eds/bin/gnu/h-x86_64-mingw32/bin/../lib/gcc/nios2-elf/5.3.0/../../../../../H-x86_64-mingw32/nios2-elf/lib/mno-hw-mul\libc.a(lib_a-atexit.o)
                                        0x221 (size before relaxing)
 .debug_str     0x0000000000003749       0x4c a:/intelfpga_lite/nios2eds/bin/gnu/h-x86_64-mingw32/bin/../lib/gcc/nios2-elf/5.3.0/../../../../../H-x86_64-mingw32/nios2-elf/lib/mno-hw-mul\libc.a(lib_a-exit.o)
                                        0x5be (size before relaxing)
 .debug_str     0x0000000000003795       0x44 a:/intelfpga_lite/nios2eds/bin/gnu/h-x86_64-mingw32/bin/../lib/gcc/nios2-elf/5.3.0/../../../../../H-x86_64-mingw32/nios2-elf/lib/mno-hw-mul\libc.a(lib_a-memcmp.o)
                                        0x1e4 (size before relaxing)
 .debug_str     0x00000000000037d9       0x3f a:/intelfpga_lite/nios2eds/bin/gnu/h-x86_64-mingw32/bin/../lib/gcc/nios2-elf/5.3.0/../../../../../H-x86_64-mingw32/nios2-elf/lib/mno-hw-mul\libc.a(lib_a-__atexit.o)
                                        0x5f6 (size before relaxing)
 .debug_str     0x0000000000003818       0x60 a:/intelfpga_lite/nios2eds/bin/gnu/h-x86_64-mingw32/bin/../lib/gcc/nios2-elf/5.3.0/../../../../../H-x86_64-mingw32/nios2-elf/lib/mno-hw-mul\libc.a(lib_a-__call_atexit.o)
                                        0x5e2 (size before relaxing)
 .debug_str     0x0000000000003878       0x2a ../lab4_bsp/\libucosii_bsp.a(alt_exit.o)
                                        0x17f (size before relaxing)

.debug_loc      0x0000000000000000     0x4ada
 *(.debug_loc)
 .debug_loc     0x0000000000000000      0x117 a:/intelfpga_lite/nios2eds/bin/gnu/h-x86_64-mingw32/bin/../lib/gcc/nios2-elf/5.3.0/../../../../../H-x86_64-mingw32/nios2-elf/lib/mno-hw-mul\libc.a(lib_a-puts.o)
 .debug_loc     0x0000000000000117       0x47 a:/intelfpga_lite/nios2eds/bin/gnu/h-x86_64-mingw32/bin/../lib/gcc/nios2-elf/5.3.0/../../../../../H-x86_64-mingw32/nios2-elf/lib/mno-hw-mul\libc.a(lib_a-strlen.o)
 .debug_loc     0x000000000000015e      0x2f9 a:/intelfpga_lite/nios2eds/bin/gnu/h-x86_64-mingw32/bin/../lib/gcc/nios2-elf/5.3.0/../../../../../H-x86_64-mingw32/nios2-elf/lib/mno-hw-mul\libc.a(lib_a-findfp.o)
 .debug_loc     0x0000000000000457      0x5c7 a:/intelfpga_lite/nios2eds/bin/gnu/h-x86_64-mingw32/bin/../lib/gcc/nios2-elf/5.3.0/../../../../../H-x86_64-mingw32/nios2-elf/lib/mno-hw-mul\libc.a(lib_a-fvwrite.o)
 .debug_loc     0x0000000000000a1e      0x25b a:/intelfpga_lite/nios2eds/bin/gnu/h-x86_64-mingw32/bin/../lib/gcc/nios2-elf/5.3.0/../../../../../H-x86_64-mingw32/nios2-elf/lib/mno-hw-mul\libc.a(lib_a-fwalk.o)
 .debug_loc     0x0000000000000c79      0xb1b a:/intelfpga_lite/nios2eds/bin/gnu/h-x86_64-mingw32/bin/../lib/gcc/nios2-elf/5.3.0/../../../../../H-x86_64-mingw32/nios2-elf/lib/mno-hw-mul\libc.a(lib_a-mallocr.o)
 .debug_loc     0x0000000000001794      0x1a1 a:/intelfpga_lite/nios2eds/bin/gnu/h-x86_64-mingw32/bin/../lib/gcc/nios2-elf/5.3.0/../../../../../H-x86_64-mingw32/nios2-elf/lib/mno-hw-mul\libc.a(lib_a-memchr.o)
 .debug_loc     0x0000000000001935      0x266 a:/intelfpga_lite/nios2eds/bin/gnu/h-x86_64-mingw32/bin/../lib/gcc/nios2-elf/5.3.0/../../../../../H-x86_64-mingw32/nios2-elf/lib/mno-hw-mul\libc.a(lib_a-memcpy.o)
 .debug_loc     0x0000000000001b9b      0x308 a:/intelfpga_lite/nios2eds/bin/gnu/h-x86_64-mingw32/bin/../lib/gcc/nios2-elf/5.3.0/../../../../../H-x86_64-mingw32/nios2-elf/lib/mno-hw-mul\libc.a(lib_a-memmove.o)
 .debug_loc     0x0000000000001ea3      0x1a6 a:/intelfpga_lite/nios2eds/bin/gnu/h-x86_64-mingw32/bin/../lib/gcc/nios2-elf/5.3.0/../../../../../H-x86_64-mingw32/nios2-elf/lib/mno-hw-mul\libc.a(lib_a-memset.o)
 .debug_loc     0x0000000000002049      0xde4 a:/intelfpga_lite/nios2eds/bin/gnu/h-x86_64-mingw32/bin/../lib/gcc/nios2-elf/5.3.0/../../../../../H-x86_64-mingw32/nios2-elf/lib/mno-hw-mul\libc.a(lib_a-reallocr.o)
 .debug_loc     0x0000000000002e2d       0x58 a:/intelfpga_lite/nios2eds/bin/gnu/h-x86_64-mingw32/bin/../lib/gcc/nios2-elf/5.3.0/../../../../../H-x86_64-mingw32/nios2-elf/lib/mno-hw-mul\libc.a(lib_a-sbrkr.o)
 .debug_loc     0x0000000000002e85      0x33a a:/intelfpga_lite/nios2eds/bin/gnu/h-x86_64-mingw32/bin/../lib/gcc/nios2-elf/5.3.0/../../../../../H-x86_64-mingw32/nios2-elf/lib/mno-hw-mul\libc.a(lib_a-stdio.o)
 .debug_loc     0x00000000000031bf       0xb0 a:/intelfpga_lite/nios2eds/bin/gnu/h-x86_64-mingw32/bin/../lib/gcc/nios2-elf/5.3.0/../../../../../H-x86_64-mingw32/nios2-elf/lib/mno-hw-mul\libc.a(lib_a-writer.o)
 .debug_loc     0x000000000000326f       0xa2 a:/intelfpga_lite/nios2eds/bin/gnu/h-x86_64-mingw32/bin/../lib/gcc/nios2-elf/5.3.0/../../../../../H-x86_64-mingw32/nios2-elf/lib/mno-hw-mul\libc.a(lib_a-wsetup.o)
 .debug_loc     0x0000000000003311       0x58 a:/intelfpga_lite/nios2eds/bin/gnu/h-x86_64-mingw32/bin/../lib/gcc/nios2-elf/5.3.0/../../../../../H-x86_64-mingw32/nios2-elf/lib/mno-hw-mul\libc.a(closer.o)
 .debug_loc     0x0000000000003369      0x199 a:/intelfpga_lite/nios2eds/bin/gnu/h-x86_64-mingw32/bin/../lib/gcc/nios2-elf/5.3.0/../../../../../H-x86_64-mingw32/nios2-elf/lib/mno-hw-mul\libc.a(lib_a-fclose.o)
 .debug_loc     0x0000000000003502      0x36f a:/intelfpga_lite/nios2eds/bin/gnu/h-x86_64-mingw32/bin/../lib/gcc/nios2-elf/5.3.0/../../../../../H-x86_64-mingw32/nios2-elf/lib/mno-hw-mul\libc.a(lib_a-fflush.o)
 .debug_loc     0x0000000000003871      0x4e7 a:/intelfpga_lite/nios2eds/bin/gnu/h-x86_64-mingw32/bin/../lib/gcc/nios2-elf/5.3.0/../../../../../H-x86_64-mingw32/nios2-elf/lib/mno-hw-mul\libc.a(lib_a-freer.o)
 .debug_loc     0x0000000000003d58       0xb0 a:/intelfpga_lite/nios2eds/bin/gnu/h-x86_64-mingw32/bin/../lib/gcc/nios2-elf/5.3.0/../../../../../H-x86_64-mingw32/nios2-elf/lib/mno-hw-mul\libc.a(lib_a-lseekr.o)
 .debug_loc     0x0000000000003e08      0x122 a:/intelfpga_lite/nios2eds/bin/gnu/h-x86_64-mingw32/bin/../lib/gcc/nios2-elf/5.3.0/../../../../../H-x86_64-mingw32/nios2-elf/lib/mno-hw-mul\libc.a(lib_a-makebuf.o)
 .debug_loc     0x0000000000003f2a       0xb0 a:/intelfpga_lite/nios2eds/bin/gnu/h-x86_64-mingw32/bin/../lib/gcc/nios2-elf/5.3.0/../../../../../H-x86_64-mingw32/nios2-elf/lib/mno-hw-mul\libc.a(lib_a-readr.o)
 .debug_loc     0x0000000000003fda       0x84 a:/intelfpga_lite/nios2eds/bin/gnu/h-x86_64-mingw32/bin/../lib/gcc/nios2-elf/5.3.0/../../../../../H-x86_64-mingw32/nios2-elf/lib/mno-hw-mul\libc.a(lib_a-fstatr.o)
 .debug_loc     0x000000000000405e       0x58 a:/intelfpga_lite/nios2eds/bin/gnu/h-x86_64-mingw32/bin/../lib/gcc/nios2-elf/5.3.0/../../../../../H-x86_64-mingw32/nios2-elf/lib/mno-hw-mul\libc.a(lib_a-isattyr.o)
 .debug_loc     0x00000000000040b6      0x4ce a:/intelfpga_lite/nios2eds/bin/gnu/h-x86_64-mingw32/bin/../lib/gcc/nios2-elf/5.3.0/mno-hw-mul\libgcc.a(lib2-divmod.o)
 .debug_loc     0x0000000000004584       0x93 a:/intelfpga_lite/nios2eds/bin/gnu/h-x86_64-mingw32/bin/../lib/gcc/nios2-elf/5.3.0/mno-hw-mul\libgcc.a(lib2-mul.o)
 .debug_loc     0x0000000000004617       0x2c a:/intelfpga_lite/nios2eds/bin/gnu/h-x86_64-mingw32/bin/../lib/gcc/nios2-elf/5.3.0/../../../../../H-x86_64-mingw32/nios2-elf/lib/mno-hw-mul\libc.a(lib_a-atexit.o)
 .debug_loc     0x0000000000004643       0x1e a:/intelfpga_lite/nios2eds/bin/gnu/h-x86_64-mingw32/bin/../lib/gcc/nios2-elf/5.3.0/../../../../../H-x86_64-mingw32/nios2-elf/lib/mno-hw-mul\libc.a(lib_a-exit.o)
 .debug_loc     0x0000000000004661      0x126 a:/intelfpga_lite/nios2eds/bin/gnu/h-x86_64-mingw32/bin/../lib/gcc/nios2-elf/5.3.0/../../../../../H-x86_64-mingw32/nios2-elf/lib/mno-hw-mul\libc.a(lib_a-memcmp.o)
 .debug_loc     0x0000000000004787      0x185 a:/intelfpga_lite/nios2eds/bin/gnu/h-x86_64-mingw32/bin/../lib/gcc/nios2-elf/5.3.0/../../../../../H-x86_64-mingw32/nios2-elf/lib/mno-hw-mul\libc.a(lib_a-__atexit.o)
 .debug_loc     0x000000000000490c      0x1ce a:/intelfpga_lite/nios2eds/bin/gnu/h-x86_64-mingw32/bin/../lib/gcc/nios2-elf/5.3.0/../../../../../H-x86_64-mingw32/nios2-elf/lib/mno-hw-mul\libc.a(lib_a-__call_atexit.o)

.debug_macinfo
 *(.debug_macinfo)

.debug_weaknames
 *(.debug_weaknames)

.debug_funcnames
 *(.debug_funcnames)

.debug_typenames
 *(.debug_typenames)

.debug_varnames
 *(.debug_varnames)

.debug_alt_sim_info
                0x0000000000000000       0x10
 *(.debug_alt_sim_info)
 .debug_alt_sim_info
                0x0000000000000000       0x10 ../lab4_bsp//obj/HAL/src/crt0.o
                0x000000000003f400                __alt_data_end = 0x3f400
                0x000000000003f400                PROVIDE (__alt_stack_pointer, __alt_data_end)
                [!provide]                        PROVIDE (__alt_stack_limit, __alt_stack_base)
                0x00000000000385c4                PROVIDE (__alt_heap_start, end)
                0x000000000003f400                PROVIDE (__alt_heap_limit, 0x3f400)
OUTPUT(lab4.elf elf32-littlenios2)

.debug_ranges   0x0000000000000000      0x680
 .debug_ranges  0x0000000000000000       0x20 ../lab4_bsp//obj/HAL/src/crt0.o
 .debug_ranges  0x0000000000000020       0x30 a:/intelfpga_lite/nios2eds/bin/gnu/h-x86_64-mingw32/bin/../lib/gcc/nios2-elf/5.3.0/../../../../../H-x86_64-mingw32/nios2-elf/lib/mno-hw-mul\libc.a(lib_a-puts.o)
 .debug_ranges  0x0000000000000050       0x10 a:/intelfpga_lite/nios2eds/bin/gnu/h-x86_64-mingw32/bin/../lib/gcc/nios2-elf/5.3.0/../../../../../H-x86_64-mingw32/nios2-elf/lib/mno-hw-mul\libc.a(lib_a-strlen.o)
 .debug_ranges  0x0000000000000060       0xc8 a:/intelfpga_lite/nios2eds/bin/gnu/h-x86_64-mingw32/bin/../lib/gcc/nios2-elf/5.3.0/../../../../../H-x86_64-mingw32/nios2-elf/lib/mno-hw-mul\libc.a(lib_a-findfp.o)
 .debug_ranges  0x0000000000000128       0x30 a:/intelfpga_lite/nios2eds/bin/gnu/h-x86_64-mingw32/bin/../lib/gcc/nios2-elf/5.3.0/../../../../../H-x86_64-mingw32/nios2-elf/lib/mno-hw-mul\libc.a(lib_a-fvwrite.o)
 .debug_ranges  0x0000000000000158       0x18 a:/intelfpga_lite/nios2eds/bin/gnu/h-x86_64-mingw32/bin/../lib/gcc/nios2-elf/5.3.0/../../../../../H-x86_64-mingw32/nios2-elf/lib/mno-hw-mul\libc.a(lib_a-fwalk.o)
 .debug_ranges  0x0000000000000170       0x48 a:/intelfpga_lite/nios2eds/bin/gnu/h-x86_64-mingw32/bin/../lib/gcc/nios2-elf/5.3.0/../../../../../H-x86_64-mingw32/nios2-elf/lib/mno-hw-mul\libc.a(lib_a-mallocr.o)
 .debug_ranges  0x00000000000001b8       0x10 a:/intelfpga_lite/nios2eds/bin/gnu/h-x86_64-mingw32/bin/../lib/gcc/nios2-elf/5.3.0/../../../../../H-x86_64-mingw32/nios2-elf/lib/mno-hw-mul\libc.a(lib_a-memchr.o)
 .debug_ranges  0x00000000000001c8       0x10 a:/intelfpga_lite/nios2eds/bin/gnu/h-x86_64-mingw32/bin/../lib/gcc/nios2-elf/5.3.0/../../../../../H-x86_64-mingw32/nios2-elf/lib/mno-hw-mul\libc.a(lib_a-memcpy.o)
 .debug_ranges  0x00000000000001d8       0x10 a:/intelfpga_lite/nios2eds/bin/gnu/h-x86_64-mingw32/bin/../lib/gcc/nios2-elf/5.3.0/../../../../../H-x86_64-mingw32/nios2-elf/lib/mno-hw-mul\libc.a(lib_a-memmove.o)
 .debug_ranges  0x00000000000001e8       0x10 a:/intelfpga_lite/nios2eds/bin/gnu/h-x86_64-mingw32/bin/../lib/gcc/nios2-elf/5.3.0/../../../../../H-x86_64-mingw32/nios2-elf/lib/mno-hw-mul\libc.a(lib_a-memset.o)
 .debug_ranges  0x00000000000001f8      0x148 a:/intelfpga_lite/nios2eds/bin/gnu/h-x86_64-mingw32/bin/../lib/gcc/nios2-elf/5.3.0/../../../../../H-x86_64-mingw32/nios2-elf/lib/mno-hw-mul\libc.a(lib_a-reallocr.o)
 .debug_ranges  0x0000000000000340       0x10 a:/intelfpga_lite/nios2eds/bin/gnu/h-x86_64-mingw32/bin/../lib/gcc/nios2-elf/5.3.0/../../../../../H-x86_64-mingw32/nios2-elf/lib/mno-hw-mul\libc.a(lib_a-sbrkr.o)
 .debug_ranges  0x0000000000000350       0x30 a:/intelfpga_lite/nios2eds/bin/gnu/h-x86_64-mingw32/bin/../lib/gcc/nios2-elf/5.3.0/../../../../../H-x86_64-mingw32/nios2-elf/lib/mno-hw-mul\libc.a(lib_a-stdio.o)
 .debug_ranges  0x0000000000000380       0x10 a:/intelfpga_lite/nios2eds/bin/gnu/h-x86_64-mingw32/bin/../lib/gcc/nios2-elf/5.3.0/../../../../../H-x86_64-mingw32/nios2-elf/lib/mno-hw-mul\libc.a(lib_a-writer.o)
 .debug_ranges  0x0000000000000390       0x40 a:/intelfpga_lite/nios2eds/bin/gnu/h-x86_64-mingw32/bin/../lib/gcc/nios2-elf/5.3.0/../../../../../H-x86_64-mingw32/nios2-elf/lib/mno-hw-mul\libc.a(lib_a-wsetup.o)
 .debug_ranges  0x00000000000003d0       0x10 a:/intelfpga_lite/nios2eds/bin/gnu/h-x86_64-mingw32/bin/../lib/gcc/nios2-elf/5.3.0/../../../../../H-x86_64-mingw32/nios2-elf/lib/mno-hw-mul\libc.a(closer.o)
 .debug_ranges  0x00000000000003e0       0x48 a:/intelfpga_lite/nios2eds/bin/gnu/h-x86_64-mingw32/bin/../lib/gcc/nios2-elf/5.3.0/../../../../../H-x86_64-mingw32/nios2-elf/lib/mno-hw-mul\libc.a(lib_a-fclose.o)
 .debug_ranges  0x0000000000000428       0x58 a:/intelfpga_lite/nios2eds/bin/gnu/h-x86_64-mingw32/bin/../lib/gcc/nios2-elf/5.3.0/../../../../../H-x86_64-mingw32/nios2-elf/lib/mno-hw-mul\libc.a(lib_a-fflush.o)
 .debug_ranges  0x0000000000000480       0x18 a:/intelfpga_lite/nios2eds/bin/gnu/h-x86_64-mingw32/bin/../lib/gcc/nios2-elf/5.3.0/../../../../../H-x86_64-mingw32/nios2-elf/lib/mno-hw-mul\libc.a(lib_a-freer.o)
 .debug_ranges  0x0000000000000498       0x10 a:/intelfpga_lite/nios2eds/bin/gnu/h-x86_64-mingw32/bin/../lib/gcc/nios2-elf/5.3.0/../../../../../H-x86_64-mingw32/nios2-elf/lib/mno-hw-mul\libc.a(lib_a-lseekr.o)
 .debug_ranges  0x00000000000004a8       0x10 a:/intelfpga_lite/nios2eds/bin/gnu/h-x86_64-mingw32/bin/../lib/gcc/nios2-elf/5.3.0/../../../../../H-x86_64-mingw32/nios2-elf/lib/mno-hw-mul\libc.a(lib_a-makebuf.o)
 .debug_ranges  0x00000000000004b8       0x10 a:/intelfpga_lite/nios2eds/bin/gnu/h-x86_64-mingw32/bin/../lib/gcc/nios2-elf/5.3.0/../../../../../H-x86_64-mingw32/nios2-elf/lib/mno-hw-mul\libc.a(lib_a-readr.o)
 .debug_ranges  0x00000000000004c8       0x10 a:/intelfpga_lite/nios2eds/bin/gnu/h-x86_64-mingw32/bin/../lib/gcc/nios2-elf/5.3.0/../../../../../H-x86_64-mingw32/nios2-elf/lib/mno-hw-mul\libc.a(lib_a-fstatr.o)
 .debug_ranges  0x00000000000004d8       0x10 a:/intelfpga_lite/nios2eds/bin/gnu/h-x86_64-mingw32/bin/../lib/gcc/nios2-elf/5.3.0/../../../../../H-x86_64-mingw32/nios2-elf/lib/mno-hw-mul\libc.a(lib_a-isattyr.o)
 .debug_ranges  0x00000000000004e8       0x60 a:/intelfpga_lite/nios2eds/bin/gnu/h-x86_64-mingw32/bin/../lib/gcc/nios2-elf/5.3.0/mno-hw-mul\libgcc.a(lib2-divmod.o)
 .debug_ranges  0x0000000000000548       0x30 ../lab4_bsp/\libucosii_bsp.a(altera_avalon_jtag_uart_init.o)
 .debug_ranges  0x0000000000000578       0x18 ../lab4_bsp/\libucosii_bsp.a(altera_avalon_jtag_uart_read.o)
 .debug_ranges  0x0000000000000590       0x28 ../lab4_bsp/\libucosii_bsp.a(alt_irq_entry.o)
 .debug_ranges  0x00000000000005b8       0x10 ../lab4_bsp/\libucosii_bsp.a(alt_irq_handler.o)
 .debug_ranges  0x00000000000005c8       0x30 ../lab4_bsp/\libucosii_bsp.a(alt_exception_entry.o)
 .debug_ranges  0x00000000000005f8       0x18 ../lab4_bsp/\libucosii_bsp.a(alt_instruction_exception_entry.o)
 .debug_ranges  0x0000000000000610       0x10 a:/intelfpga_lite/nios2eds/bin/gnu/h-x86_64-mingw32/bin/../lib/gcc/nios2-elf/5.3.0/../../../../../H-x86_64-mingw32/nios2-elf/lib/mno-hw-mul\libc.a(lib_a-atexit.o)
 .debug_ranges  0x0000000000000620       0x10 a:/intelfpga_lite/nios2eds/bin/gnu/h-x86_64-mingw32/bin/../lib/gcc/nios2-elf/5.3.0/../../../../../H-x86_64-mingw32/nios2-elf/lib/mno-hw-mul\libc.a(lib_a-exit.o)
 .debug_ranges  0x0000000000000630       0x10 a:/intelfpga_lite/nios2eds/bin/gnu/h-x86_64-mingw32/bin/../lib/gcc/nios2-elf/5.3.0/../../../../../H-x86_64-mingw32/nios2-elf/lib/mno-hw-mul\libc.a(lib_a-memcmp.o)
 .debug_ranges  0x0000000000000640       0x10 a:/intelfpga_lite/nios2eds/bin/gnu/h-x86_64-mingw32/bin/../lib/gcc/nios2-elf/5.3.0/../../../../../H-x86_64-mingw32/nios2-elf/lib/mno-hw-mul\libc.a(lib_a-__atexit.o)
 .debug_ranges  0x0000000000000650       0x30 a:/intelfpga_lite/nios2eds/bin/gnu/h-x86_64-mingw32/bin/../lib/gcc/nios2-elf/5.3.0/../../../../../H-x86_64-mingw32/nios2-elf/lib/mno-hw-mul\libc.a(lib_a-__call_atexit.o)
